
Web_MMS_Power.elf:     file format elf32-littlearm

Sections:
Idx Name          Size      VMA       LMA       File off  Algn
  0 .isr_vector   000000c0  08000000  08000000  00010000  2**0
                  CONTENTS, ALLOC, LOAD, READONLY, DATA
  1 .text         00005a50  080000c0  080000c0  000100c0  2**2
                  CONTENTS, ALLOC, LOAD, READONLY, CODE
  2 .rodata       0000011c  08005b10  08005b10  00015b10  2**2
                  CONTENTS, ALLOC, LOAD, READONLY, DATA
  3 .ARM.extab    00000000  08005c2c  08005c2c  00020314  2**0
                  CONTENTS
  4 .ARM          00000000  08005c2c  08005c2c  00020314  2**0
                  CONTENTS
  5 .preinit_array 00000000  08005c2c  08005c2c  00020314  2**0
                  CONTENTS, ALLOC, LOAD, DATA
  6 .init_array   00000004  08005c2c  08005c2c  00015c2c  2**2
                  CONTENTS, ALLOC, LOAD, DATA
  7 .fini_array   00000004  08005c30  08005c30  00015c30  2**2
                  CONTENTS, ALLOC, LOAD, DATA
  8 .data         00000314  20000000  08005c34  00020000  2**2
                  CONTENTS, ALLOC, LOAD, DATA
  9 .bss          00000c50  20000314  08005f48  00020314  2**2
                  ALLOC
 10 ._user_heap_stack 00000604  20000f64  08005f48  00020f64  2**0
                  ALLOC
 11 .ARM.attributes 00000028  00000000  00000000  00020314  2**0
                  CONTENTS, READONLY
 12 .debug_info   00020285  00000000  00000000  0002033c  2**0
                  CONTENTS, READONLY, DEBUGGING
 13 .debug_abbrev 00004a2c  00000000  00000000  000405c1  2**0
                  CONTENTS, READONLY, DEBUGGING
 14 .debug_loc    0000e4ca  00000000  00000000  00044fed  2**0
                  CONTENTS, READONLY, DEBUGGING
 15 .debug_aranges 00001010  00000000  00000000  000534b8  2**3
                  CONTENTS, READONLY, DEBUGGING
 16 .debug_ranges 00001b90  00000000  00000000  000544c8  2**3
                  CONTENTS, READONLY, DEBUGGING
 17 .debug_macro  0000887d  00000000  00000000  00056058  2**0
                  CONTENTS, READONLY, DEBUGGING
 18 .debug_line   00014dba  00000000  00000000  0005e8d5  2**0
                  CONTENTS, READONLY, DEBUGGING
 19 .debug_str    0008bb6a  00000000  00000000  0007368f  2**0
                  CONTENTS, READONLY, DEBUGGING
 20 .comment      0000007b  00000000  00000000  000ff1f9  2**0
                  CONTENTS, READONLY
 21 .debug_frame  000034c8  00000000  00000000  000ff274  2**2
                  CONTENTS, READONLY, DEBUGGING

Disassembly of section .text:

080000c0 <__do_global_dtors_aux>:
 80000c0:	b510      	push	{r4, lr}
 80000c2:	4c06      	ldr	r4, [pc, #24]	; (80000dc <__do_global_dtors_aux+0x1c>)
 80000c4:	7823      	ldrb	r3, [r4, #0]
 80000c6:	2b00      	cmp	r3, #0
 80000c8:	d107      	bne.n	80000da <__do_global_dtors_aux+0x1a>
 80000ca:	4b05      	ldr	r3, [pc, #20]	; (80000e0 <__do_global_dtors_aux+0x20>)
 80000cc:	2b00      	cmp	r3, #0
 80000ce:	d002      	beq.n	80000d6 <__do_global_dtors_aux+0x16>
 80000d0:	4804      	ldr	r0, [pc, #16]	; (80000e4 <__do_global_dtors_aux+0x24>)
 80000d2:	e000      	b.n	80000d6 <__do_global_dtors_aux+0x16>
 80000d4:	bf00      	nop
 80000d6:	2301      	movs	r3, #1
 80000d8:	7023      	strb	r3, [r4, #0]
 80000da:	bd10      	pop	{r4, pc}
 80000dc:	20000314 	.word	0x20000314
 80000e0:	00000000 	.word	0x00000000
 80000e4:	08005af8 	.word	0x08005af8

080000e8 <frame_dummy>:
 80000e8:	4b04      	ldr	r3, [pc, #16]	; (80000fc <frame_dummy+0x14>)
 80000ea:	b510      	push	{r4, lr}
 80000ec:	2b00      	cmp	r3, #0
 80000ee:	d003      	beq.n	80000f8 <frame_dummy+0x10>
 80000f0:	4903      	ldr	r1, [pc, #12]	; (8000100 <frame_dummy+0x18>)
 80000f2:	4804      	ldr	r0, [pc, #16]	; (8000104 <frame_dummy+0x1c>)
 80000f4:	e000      	b.n	80000f8 <frame_dummy+0x10>
 80000f6:	bf00      	nop
 80000f8:	bd10      	pop	{r4, pc}
 80000fa:	46c0      	nop			; (mov r8, r8)
 80000fc:	00000000 	.word	0x00000000
 8000100:	20000318 	.word	0x20000318
 8000104:	08005af8 	.word	0x08005af8

08000108 <strlen>:
 8000108:	2300      	movs	r3, #0
 800010a:	5cc2      	ldrb	r2, [r0, r3]
 800010c:	3301      	adds	r3, #1
 800010e:	2a00      	cmp	r2, #0
 8000110:	d1fb      	bne.n	800010a <strlen+0x2>
 8000112:	1e58      	subs	r0, r3, #1
 8000114:	4770      	bx	lr
	...

08000118 <__gnu_thumb1_case_uqi>:
 8000118:	b402      	push	{r1}
 800011a:	4671      	mov	r1, lr
 800011c:	0849      	lsrs	r1, r1, #1
 800011e:	0049      	lsls	r1, r1, #1
 8000120:	5c09      	ldrb	r1, [r1, r0]
 8000122:	0049      	lsls	r1, r1, #1
 8000124:	448e      	add	lr, r1
 8000126:	bc02      	pop	{r1}
 8000128:	4770      	bx	lr
 800012a:	46c0      	nop			; (mov r8, r8)

0800012c <__gnu_thumb1_case_uhi>:
 800012c:	b403      	push	{r0, r1}
 800012e:	4671      	mov	r1, lr
 8000130:	0849      	lsrs	r1, r1, #1
 8000132:	0040      	lsls	r0, r0, #1
 8000134:	0049      	lsls	r1, r1, #1
 8000136:	5a09      	ldrh	r1, [r1, r0]
 8000138:	0049      	lsls	r1, r1, #1
 800013a:	448e      	add	lr, r1
 800013c:	bc03      	pop	{r0, r1}
 800013e:	4770      	bx	lr

08000140 <__udivsi3>:
 8000140:	2200      	movs	r2, #0
 8000142:	0843      	lsrs	r3, r0, #1
 8000144:	428b      	cmp	r3, r1
 8000146:	d374      	bcc.n	8000232 <__udivsi3+0xf2>
 8000148:	0903      	lsrs	r3, r0, #4
 800014a:	428b      	cmp	r3, r1
 800014c:	d35f      	bcc.n	800020e <__udivsi3+0xce>
 800014e:	0a03      	lsrs	r3, r0, #8
 8000150:	428b      	cmp	r3, r1
 8000152:	d344      	bcc.n	80001de <__udivsi3+0x9e>
 8000154:	0b03      	lsrs	r3, r0, #12
 8000156:	428b      	cmp	r3, r1
 8000158:	d328      	bcc.n	80001ac <__udivsi3+0x6c>
 800015a:	0c03      	lsrs	r3, r0, #16
 800015c:	428b      	cmp	r3, r1
 800015e:	d30d      	bcc.n	800017c <__udivsi3+0x3c>
 8000160:	22ff      	movs	r2, #255	; 0xff
 8000162:	0209      	lsls	r1, r1, #8
 8000164:	ba12      	rev	r2, r2
 8000166:	0c03      	lsrs	r3, r0, #16
 8000168:	428b      	cmp	r3, r1
 800016a:	d302      	bcc.n	8000172 <__udivsi3+0x32>
 800016c:	1212      	asrs	r2, r2, #8
 800016e:	0209      	lsls	r1, r1, #8
 8000170:	d065      	beq.n	800023e <__udivsi3+0xfe>
 8000172:	0b03      	lsrs	r3, r0, #12
 8000174:	428b      	cmp	r3, r1
 8000176:	d319      	bcc.n	80001ac <__udivsi3+0x6c>
 8000178:	e000      	b.n	800017c <__udivsi3+0x3c>
 800017a:	0a09      	lsrs	r1, r1, #8
 800017c:	0bc3      	lsrs	r3, r0, #15
 800017e:	428b      	cmp	r3, r1
 8000180:	d301      	bcc.n	8000186 <__udivsi3+0x46>
 8000182:	03cb      	lsls	r3, r1, #15
 8000184:	1ac0      	subs	r0, r0, r3
 8000186:	4152      	adcs	r2, r2
 8000188:	0b83      	lsrs	r3, r0, #14
 800018a:	428b      	cmp	r3, r1
 800018c:	d301      	bcc.n	8000192 <__udivsi3+0x52>
 800018e:	038b      	lsls	r3, r1, #14
 8000190:	1ac0      	subs	r0, r0, r3
 8000192:	4152      	adcs	r2, r2
 8000194:	0b43      	lsrs	r3, r0, #13
 8000196:	428b      	cmp	r3, r1
 8000198:	d301      	bcc.n	800019e <__udivsi3+0x5e>
 800019a:	034b      	lsls	r3, r1, #13
 800019c:	1ac0      	subs	r0, r0, r3
 800019e:	4152      	adcs	r2, r2
 80001a0:	0b03      	lsrs	r3, r0, #12
 80001a2:	428b      	cmp	r3, r1
 80001a4:	d301      	bcc.n	80001aa <__udivsi3+0x6a>
 80001a6:	030b      	lsls	r3, r1, #12
 80001a8:	1ac0      	subs	r0, r0, r3
 80001aa:	4152      	adcs	r2, r2
 80001ac:	0ac3      	lsrs	r3, r0, #11
 80001ae:	428b      	cmp	r3, r1
 80001b0:	d301      	bcc.n	80001b6 <__udivsi3+0x76>
 80001b2:	02cb      	lsls	r3, r1, #11
 80001b4:	1ac0      	subs	r0, r0, r3
 80001b6:	4152      	adcs	r2, r2
 80001b8:	0a83      	lsrs	r3, r0, #10
 80001ba:	428b      	cmp	r3, r1
 80001bc:	d301      	bcc.n	80001c2 <__udivsi3+0x82>
 80001be:	028b      	lsls	r3, r1, #10
 80001c0:	1ac0      	subs	r0, r0, r3
 80001c2:	4152      	adcs	r2, r2
 80001c4:	0a43      	lsrs	r3, r0, #9
 80001c6:	428b      	cmp	r3, r1
 80001c8:	d301      	bcc.n	80001ce <__udivsi3+0x8e>
 80001ca:	024b      	lsls	r3, r1, #9
 80001cc:	1ac0      	subs	r0, r0, r3
 80001ce:	4152      	adcs	r2, r2
 80001d0:	0a03      	lsrs	r3, r0, #8
 80001d2:	428b      	cmp	r3, r1
 80001d4:	d301      	bcc.n	80001da <__udivsi3+0x9a>
 80001d6:	020b      	lsls	r3, r1, #8
 80001d8:	1ac0      	subs	r0, r0, r3
 80001da:	4152      	adcs	r2, r2
 80001dc:	d2cd      	bcs.n	800017a <__udivsi3+0x3a>
 80001de:	09c3      	lsrs	r3, r0, #7
 80001e0:	428b      	cmp	r3, r1
 80001e2:	d301      	bcc.n	80001e8 <__udivsi3+0xa8>
 80001e4:	01cb      	lsls	r3, r1, #7
 80001e6:	1ac0      	subs	r0, r0, r3
 80001e8:	4152      	adcs	r2, r2
 80001ea:	0983      	lsrs	r3, r0, #6
 80001ec:	428b      	cmp	r3, r1
 80001ee:	d301      	bcc.n	80001f4 <__udivsi3+0xb4>
 80001f0:	018b      	lsls	r3, r1, #6
 80001f2:	1ac0      	subs	r0, r0, r3
 80001f4:	4152      	adcs	r2, r2
 80001f6:	0943      	lsrs	r3, r0, #5
 80001f8:	428b      	cmp	r3, r1
 80001fa:	d301      	bcc.n	8000200 <__udivsi3+0xc0>
 80001fc:	014b      	lsls	r3, r1, #5
 80001fe:	1ac0      	subs	r0, r0, r3
 8000200:	4152      	adcs	r2, r2
 8000202:	0903      	lsrs	r3, r0, #4
 8000204:	428b      	cmp	r3, r1
 8000206:	d301      	bcc.n	800020c <__udivsi3+0xcc>
 8000208:	010b      	lsls	r3, r1, #4
 800020a:	1ac0      	subs	r0, r0, r3
 800020c:	4152      	adcs	r2, r2
 800020e:	08c3      	lsrs	r3, r0, #3
 8000210:	428b      	cmp	r3, r1
 8000212:	d301      	bcc.n	8000218 <__udivsi3+0xd8>
 8000214:	00cb      	lsls	r3, r1, #3
 8000216:	1ac0      	subs	r0, r0, r3
 8000218:	4152      	adcs	r2, r2
 800021a:	0883      	lsrs	r3, r0, #2
 800021c:	428b      	cmp	r3, r1
 800021e:	d301      	bcc.n	8000224 <__udivsi3+0xe4>
 8000220:	008b      	lsls	r3, r1, #2
 8000222:	1ac0      	subs	r0, r0, r3
 8000224:	4152      	adcs	r2, r2
 8000226:	0843      	lsrs	r3, r0, #1
 8000228:	428b      	cmp	r3, r1
 800022a:	d301      	bcc.n	8000230 <__udivsi3+0xf0>
 800022c:	004b      	lsls	r3, r1, #1
 800022e:	1ac0      	subs	r0, r0, r3
 8000230:	4152      	adcs	r2, r2
 8000232:	1a41      	subs	r1, r0, r1
 8000234:	d200      	bcs.n	8000238 <__udivsi3+0xf8>
 8000236:	4601      	mov	r1, r0
 8000238:	4152      	adcs	r2, r2
 800023a:	4610      	mov	r0, r2
 800023c:	4770      	bx	lr
 800023e:	e7ff      	b.n	8000240 <__udivsi3+0x100>
 8000240:	b501      	push	{r0, lr}
 8000242:	2000      	movs	r0, #0
 8000244:	f000 f8f0 	bl	8000428 <__aeabi_idiv0>
 8000248:	bd02      	pop	{r1, pc}
 800024a:	46c0      	nop			; (mov r8, r8)

0800024c <__aeabi_uidivmod>:
 800024c:	2900      	cmp	r1, #0
 800024e:	d0f7      	beq.n	8000240 <__udivsi3+0x100>
 8000250:	e776      	b.n	8000140 <__udivsi3>
 8000252:	4770      	bx	lr

08000254 <__divsi3>:
 8000254:	4603      	mov	r3, r0
 8000256:	430b      	orrs	r3, r1
 8000258:	d47f      	bmi.n	800035a <__divsi3+0x106>
 800025a:	2200      	movs	r2, #0
 800025c:	0843      	lsrs	r3, r0, #1
 800025e:	428b      	cmp	r3, r1
 8000260:	d374      	bcc.n	800034c <__divsi3+0xf8>
 8000262:	0903      	lsrs	r3, r0, #4
 8000264:	428b      	cmp	r3, r1
 8000266:	d35f      	bcc.n	8000328 <__divsi3+0xd4>
 8000268:	0a03      	lsrs	r3, r0, #8
 800026a:	428b      	cmp	r3, r1
 800026c:	d344      	bcc.n	80002f8 <__divsi3+0xa4>
 800026e:	0b03      	lsrs	r3, r0, #12
 8000270:	428b      	cmp	r3, r1
 8000272:	d328      	bcc.n	80002c6 <__divsi3+0x72>
 8000274:	0c03      	lsrs	r3, r0, #16
 8000276:	428b      	cmp	r3, r1
 8000278:	d30d      	bcc.n	8000296 <__divsi3+0x42>
 800027a:	22ff      	movs	r2, #255	; 0xff
 800027c:	0209      	lsls	r1, r1, #8
 800027e:	ba12      	rev	r2, r2
 8000280:	0c03      	lsrs	r3, r0, #16
 8000282:	428b      	cmp	r3, r1
 8000284:	d302      	bcc.n	800028c <__divsi3+0x38>
 8000286:	1212      	asrs	r2, r2, #8
 8000288:	0209      	lsls	r1, r1, #8
 800028a:	d065      	beq.n	8000358 <__divsi3+0x104>
 800028c:	0b03      	lsrs	r3, r0, #12
 800028e:	428b      	cmp	r3, r1
 8000290:	d319      	bcc.n	80002c6 <__divsi3+0x72>
 8000292:	e000      	b.n	8000296 <__divsi3+0x42>
 8000294:	0a09      	lsrs	r1, r1, #8
 8000296:	0bc3      	lsrs	r3, r0, #15
 8000298:	428b      	cmp	r3, r1
 800029a:	d301      	bcc.n	80002a0 <__divsi3+0x4c>
 800029c:	03cb      	lsls	r3, r1, #15
 800029e:	1ac0      	subs	r0, r0, r3
 80002a0:	4152      	adcs	r2, r2
 80002a2:	0b83      	lsrs	r3, r0, #14
 80002a4:	428b      	cmp	r3, r1
 80002a6:	d301      	bcc.n	80002ac <__divsi3+0x58>
 80002a8:	038b      	lsls	r3, r1, #14
 80002aa:	1ac0      	subs	r0, r0, r3
 80002ac:	4152      	adcs	r2, r2
 80002ae:	0b43      	lsrs	r3, r0, #13
 80002b0:	428b      	cmp	r3, r1
 80002b2:	d301      	bcc.n	80002b8 <__divsi3+0x64>
 80002b4:	034b      	lsls	r3, r1, #13
 80002b6:	1ac0      	subs	r0, r0, r3
 80002b8:	4152      	adcs	r2, r2
 80002ba:	0b03      	lsrs	r3, r0, #12
 80002bc:	428b      	cmp	r3, r1
 80002be:	d301      	bcc.n	80002c4 <__divsi3+0x70>
 80002c0:	030b      	lsls	r3, r1, #12
 80002c2:	1ac0      	subs	r0, r0, r3
 80002c4:	4152      	adcs	r2, r2
 80002c6:	0ac3      	lsrs	r3, r0, #11
 80002c8:	428b      	cmp	r3, r1
 80002ca:	d301      	bcc.n	80002d0 <__divsi3+0x7c>
 80002cc:	02cb      	lsls	r3, r1, #11
 80002ce:	1ac0      	subs	r0, r0, r3
 80002d0:	4152      	adcs	r2, r2
 80002d2:	0a83      	lsrs	r3, r0, #10
 80002d4:	428b      	cmp	r3, r1
 80002d6:	d301      	bcc.n	80002dc <__divsi3+0x88>
 80002d8:	028b      	lsls	r3, r1, #10
 80002da:	1ac0      	subs	r0, r0, r3
 80002dc:	4152      	adcs	r2, r2
 80002de:	0a43      	lsrs	r3, r0, #9
 80002e0:	428b      	cmp	r3, r1
 80002e2:	d301      	bcc.n	80002e8 <__divsi3+0x94>
 80002e4:	024b      	lsls	r3, r1, #9
 80002e6:	1ac0      	subs	r0, r0, r3
 80002e8:	4152      	adcs	r2, r2
 80002ea:	0a03      	lsrs	r3, r0, #8
 80002ec:	428b      	cmp	r3, r1
 80002ee:	d301      	bcc.n	80002f4 <__divsi3+0xa0>
 80002f0:	020b      	lsls	r3, r1, #8
 80002f2:	1ac0      	subs	r0, r0, r3
 80002f4:	4152      	adcs	r2, r2
 80002f6:	d2cd      	bcs.n	8000294 <__divsi3+0x40>
 80002f8:	09c3      	lsrs	r3, r0, #7
 80002fa:	428b      	cmp	r3, r1
 80002fc:	d301      	bcc.n	8000302 <__divsi3+0xae>
 80002fe:	01cb      	lsls	r3, r1, #7
 8000300:	1ac0      	subs	r0, r0, r3
 8000302:	4152      	adcs	r2, r2
 8000304:	0983      	lsrs	r3, r0, #6
 8000306:	428b      	cmp	r3, r1
 8000308:	d301      	bcc.n	800030e <__divsi3+0xba>
 800030a:	018b      	lsls	r3, r1, #6
 800030c:	1ac0      	subs	r0, r0, r3
 800030e:	4152      	adcs	r2, r2
 8000310:	0943      	lsrs	r3, r0, #5
 8000312:	428b      	cmp	r3, r1
 8000314:	d301      	bcc.n	800031a <__divsi3+0xc6>
 8000316:	014b      	lsls	r3, r1, #5
 8000318:	1ac0      	subs	r0, r0, r3
 800031a:	4152      	adcs	r2, r2
 800031c:	0903      	lsrs	r3, r0, #4
 800031e:	428b      	cmp	r3, r1
 8000320:	d301      	bcc.n	8000326 <__divsi3+0xd2>
 8000322:	010b      	lsls	r3, r1, #4
 8000324:	1ac0      	subs	r0, r0, r3
 8000326:	4152      	adcs	r2, r2
 8000328:	08c3      	lsrs	r3, r0, #3
 800032a:	428b      	cmp	r3, r1
 800032c:	d301      	bcc.n	8000332 <__divsi3+0xde>
 800032e:	00cb      	lsls	r3, r1, #3
 8000330:	1ac0      	subs	r0, r0, r3
 8000332:	4152      	adcs	r2, r2
 8000334:	0883      	lsrs	r3, r0, #2
 8000336:	428b      	cmp	r3, r1
 8000338:	d301      	bcc.n	800033e <__divsi3+0xea>
 800033a:	008b      	lsls	r3, r1, #2
 800033c:	1ac0      	subs	r0, r0, r3
 800033e:	4152      	adcs	r2, r2
 8000340:	0843      	lsrs	r3, r0, #1
 8000342:	428b      	cmp	r3, r1
 8000344:	d301      	bcc.n	800034a <__divsi3+0xf6>
 8000346:	004b      	lsls	r3, r1, #1
 8000348:	1ac0      	subs	r0, r0, r3
 800034a:	4152      	adcs	r2, r2
 800034c:	1a41      	subs	r1, r0, r1
 800034e:	d200      	bcs.n	8000352 <__divsi3+0xfe>
 8000350:	4601      	mov	r1, r0
 8000352:	4152      	adcs	r2, r2
 8000354:	4610      	mov	r0, r2
 8000356:	4770      	bx	lr
 8000358:	e05d      	b.n	8000416 <__divsi3+0x1c2>
 800035a:	0fca      	lsrs	r2, r1, #31
 800035c:	d000      	beq.n	8000360 <__divsi3+0x10c>
 800035e:	4249      	negs	r1, r1
 8000360:	1003      	asrs	r3, r0, #32
 8000362:	d300      	bcc.n	8000366 <__divsi3+0x112>
 8000364:	4240      	negs	r0, r0
 8000366:	4053      	eors	r3, r2
 8000368:	2200      	movs	r2, #0
 800036a:	469c      	mov	ip, r3
 800036c:	0903      	lsrs	r3, r0, #4
 800036e:	428b      	cmp	r3, r1
 8000370:	d32d      	bcc.n	80003ce <__divsi3+0x17a>
 8000372:	0a03      	lsrs	r3, r0, #8
 8000374:	428b      	cmp	r3, r1
 8000376:	d312      	bcc.n	800039e <__divsi3+0x14a>
 8000378:	22fc      	movs	r2, #252	; 0xfc
 800037a:	0189      	lsls	r1, r1, #6
 800037c:	ba12      	rev	r2, r2
 800037e:	0a03      	lsrs	r3, r0, #8
 8000380:	428b      	cmp	r3, r1
 8000382:	d30c      	bcc.n	800039e <__divsi3+0x14a>
 8000384:	0189      	lsls	r1, r1, #6
 8000386:	1192      	asrs	r2, r2, #6
 8000388:	428b      	cmp	r3, r1
 800038a:	d308      	bcc.n	800039e <__divsi3+0x14a>
 800038c:	0189      	lsls	r1, r1, #6
 800038e:	1192      	asrs	r2, r2, #6
 8000390:	428b      	cmp	r3, r1
 8000392:	d304      	bcc.n	800039e <__divsi3+0x14a>
 8000394:	0189      	lsls	r1, r1, #6
 8000396:	d03a      	beq.n	800040e <__divsi3+0x1ba>
 8000398:	1192      	asrs	r2, r2, #6
 800039a:	e000      	b.n	800039e <__divsi3+0x14a>
 800039c:	0989      	lsrs	r1, r1, #6
 800039e:	09c3      	lsrs	r3, r0, #7
 80003a0:	428b      	cmp	r3, r1
 80003a2:	d301      	bcc.n	80003a8 <__divsi3+0x154>
 80003a4:	01cb      	lsls	r3, r1, #7
 80003a6:	1ac0      	subs	r0, r0, r3
 80003a8:	4152      	adcs	r2, r2
 80003aa:	0983      	lsrs	r3, r0, #6
 80003ac:	428b      	cmp	r3, r1
 80003ae:	d301      	bcc.n	80003b4 <__divsi3+0x160>
 80003b0:	018b      	lsls	r3, r1, #6
 80003b2:	1ac0      	subs	r0, r0, r3
 80003b4:	4152      	adcs	r2, r2
 80003b6:	0943      	lsrs	r3, r0, #5
 80003b8:	428b      	cmp	r3, r1
 80003ba:	d301      	bcc.n	80003c0 <__divsi3+0x16c>
 80003bc:	014b      	lsls	r3, r1, #5
 80003be:	1ac0      	subs	r0, r0, r3
 80003c0:	4152      	adcs	r2, r2
 80003c2:	0903      	lsrs	r3, r0, #4
 80003c4:	428b      	cmp	r3, r1
 80003c6:	d301      	bcc.n	80003cc <__divsi3+0x178>
 80003c8:	010b      	lsls	r3, r1, #4
 80003ca:	1ac0      	subs	r0, r0, r3
 80003cc:	4152      	adcs	r2, r2
 80003ce:	08c3      	lsrs	r3, r0, #3
 80003d0:	428b      	cmp	r3, r1
 80003d2:	d301      	bcc.n	80003d8 <__divsi3+0x184>
 80003d4:	00cb      	lsls	r3, r1, #3
 80003d6:	1ac0      	subs	r0, r0, r3
 80003d8:	4152      	adcs	r2, r2
 80003da:	0883      	lsrs	r3, r0, #2
 80003dc:	428b      	cmp	r3, r1
 80003de:	d301      	bcc.n	80003e4 <__divsi3+0x190>
 80003e0:	008b      	lsls	r3, r1, #2
 80003e2:	1ac0      	subs	r0, r0, r3
 80003e4:	4152      	adcs	r2, r2
 80003e6:	d2d9      	bcs.n	800039c <__divsi3+0x148>
 80003e8:	0843      	lsrs	r3, r0, #1
 80003ea:	428b      	cmp	r3, r1
 80003ec:	d301      	bcc.n	80003f2 <__divsi3+0x19e>
 80003ee:	004b      	lsls	r3, r1, #1
 80003f0:	1ac0      	subs	r0, r0, r3
 80003f2:	4152      	adcs	r2, r2
 80003f4:	1a41      	subs	r1, r0, r1
 80003f6:	d200      	bcs.n	80003fa <__divsi3+0x1a6>
 80003f8:	4601      	mov	r1, r0
 80003fa:	4663      	mov	r3, ip
 80003fc:	4152      	adcs	r2, r2
 80003fe:	105b      	asrs	r3, r3, #1
 8000400:	4610      	mov	r0, r2
 8000402:	d301      	bcc.n	8000408 <__divsi3+0x1b4>
 8000404:	4240      	negs	r0, r0
 8000406:	2b00      	cmp	r3, #0
 8000408:	d500      	bpl.n	800040c <__divsi3+0x1b8>
 800040a:	4249      	negs	r1, r1
 800040c:	4770      	bx	lr
 800040e:	4663      	mov	r3, ip
 8000410:	105b      	asrs	r3, r3, #1
 8000412:	d300      	bcc.n	8000416 <__divsi3+0x1c2>
 8000414:	4240      	negs	r0, r0
 8000416:	b501      	push	{r0, lr}
 8000418:	2000      	movs	r0, #0
 800041a:	f000 f805 	bl	8000428 <__aeabi_idiv0>
 800041e:	bd02      	pop	{r1, pc}

08000420 <__aeabi_idivmod>:
 8000420:	2900      	cmp	r1, #0
 8000422:	d0f8      	beq.n	8000416 <__divsi3+0x1c2>
 8000424:	e716      	b.n	8000254 <__divsi3>
 8000426:	4770      	bx	lr

08000428 <__aeabi_idiv0>:
 8000428:	4770      	bx	lr
 800042a:	46c0      	nop			; (mov r8, r8)

0800042c <__aeabi_cdrcmple>:
 800042c:	4684      	mov	ip, r0
 800042e:	1c10      	adds	r0, r2, #0
 8000430:	4662      	mov	r2, ip
 8000432:	468c      	mov	ip, r1
 8000434:	1c19      	adds	r1, r3, #0
 8000436:	4663      	mov	r3, ip
 8000438:	e000      	b.n	800043c <__aeabi_cdcmpeq>
 800043a:	46c0      	nop			; (mov r8, r8)

0800043c <__aeabi_cdcmpeq>:
 800043c:	b51f      	push	{r0, r1, r2, r3, r4, lr}
 800043e:	f000 fa83 	bl	8000948 <__ledf2>
 8000442:	2800      	cmp	r0, #0
 8000444:	d401      	bmi.n	800044a <__aeabi_cdcmpeq+0xe>
 8000446:	2100      	movs	r1, #0
 8000448:	42c8      	cmn	r0, r1
 800044a:	bd1f      	pop	{r0, r1, r2, r3, r4, pc}

0800044c <__aeabi_dcmpeq>:
 800044c:	b510      	push	{r4, lr}
 800044e:	f000 f9db 	bl	8000808 <__eqdf2>
 8000452:	4240      	negs	r0, r0
 8000454:	3001      	adds	r0, #1
 8000456:	bd10      	pop	{r4, pc}

08000458 <__aeabi_dcmplt>:
 8000458:	b510      	push	{r4, lr}
 800045a:	f000 fa75 	bl	8000948 <__ledf2>
 800045e:	2800      	cmp	r0, #0
 8000460:	db01      	blt.n	8000466 <__aeabi_dcmplt+0xe>
 8000462:	2000      	movs	r0, #0
 8000464:	bd10      	pop	{r4, pc}
 8000466:	2001      	movs	r0, #1
 8000468:	bd10      	pop	{r4, pc}
 800046a:	46c0      	nop			; (mov r8, r8)

0800046c <__aeabi_dcmple>:
 800046c:	b510      	push	{r4, lr}
 800046e:	f000 fa6b 	bl	8000948 <__ledf2>
 8000472:	2800      	cmp	r0, #0
 8000474:	dd01      	ble.n	800047a <__aeabi_dcmple+0xe>
 8000476:	2000      	movs	r0, #0
 8000478:	bd10      	pop	{r4, pc}
 800047a:	2001      	movs	r0, #1
 800047c:	bd10      	pop	{r4, pc}
 800047e:	46c0      	nop			; (mov r8, r8)

08000480 <__aeabi_dcmpgt>:
 8000480:	b510      	push	{r4, lr}
 8000482:	f000 f9fd 	bl	8000880 <__gedf2>
 8000486:	2800      	cmp	r0, #0
 8000488:	dc01      	bgt.n	800048e <__aeabi_dcmpgt+0xe>
 800048a:	2000      	movs	r0, #0
 800048c:	bd10      	pop	{r4, pc}
 800048e:	2001      	movs	r0, #1
 8000490:	bd10      	pop	{r4, pc}
 8000492:	46c0      	nop			; (mov r8, r8)

08000494 <__aeabi_dcmpge>:
 8000494:	b510      	push	{r4, lr}
 8000496:	f000 f9f3 	bl	8000880 <__gedf2>
 800049a:	2800      	cmp	r0, #0
 800049c:	da01      	bge.n	80004a2 <__aeabi_dcmpge+0xe>
 800049e:	2000      	movs	r0, #0
 80004a0:	bd10      	pop	{r4, pc}
 80004a2:	2001      	movs	r0, #1
 80004a4:	bd10      	pop	{r4, pc}
 80004a6:	46c0      	nop			; (mov r8, r8)

080004a8 <__aeabi_d2uiz>:
 80004a8:	b570      	push	{r4, r5, r6, lr}
 80004aa:	2200      	movs	r2, #0
 80004ac:	4b0c      	ldr	r3, [pc, #48]	; (80004e0 <__aeabi_d2uiz+0x38>)
 80004ae:	0004      	movs	r4, r0
 80004b0:	000d      	movs	r5, r1
 80004b2:	f7ff ffef 	bl	8000494 <__aeabi_dcmpge>
 80004b6:	2800      	cmp	r0, #0
 80004b8:	d104      	bne.n	80004c4 <__aeabi_d2uiz+0x1c>
 80004ba:	0020      	movs	r0, r4
 80004bc:	0029      	movs	r1, r5
 80004be:	f001 f865 	bl	800158c <__aeabi_d2iz>
 80004c2:	bd70      	pop	{r4, r5, r6, pc}
 80004c4:	4b06      	ldr	r3, [pc, #24]	; (80004e0 <__aeabi_d2uiz+0x38>)
 80004c6:	2200      	movs	r2, #0
 80004c8:	0020      	movs	r0, r4
 80004ca:	0029      	movs	r1, r5
 80004cc:	f000 fd16 	bl	8000efc <__aeabi_dsub>
 80004d0:	f001 f85c 	bl	800158c <__aeabi_d2iz>
 80004d4:	2380      	movs	r3, #128	; 0x80
 80004d6:	061b      	lsls	r3, r3, #24
 80004d8:	469c      	mov	ip, r3
 80004da:	4460      	add	r0, ip
 80004dc:	e7f1      	b.n	80004c2 <__aeabi_d2uiz+0x1a>
 80004de:	46c0      	nop			; (mov r8, r8)
 80004e0:	41e00000 	.word	0x41e00000

080004e4 <__aeabi_fmul>:
 80004e4:	b5f0      	push	{r4, r5, r6, r7, lr}
 80004e6:	464e      	mov	r6, r9
 80004e8:	4657      	mov	r7, sl
 80004ea:	4645      	mov	r5, r8
 80004ec:	46de      	mov	lr, fp
 80004ee:	b5e0      	push	{r5, r6, r7, lr}
 80004f0:	0243      	lsls	r3, r0, #9
 80004f2:	0a5b      	lsrs	r3, r3, #9
 80004f4:	0045      	lsls	r5, r0, #1
 80004f6:	b083      	sub	sp, #12
 80004f8:	1c0f      	adds	r7, r1, #0
 80004fa:	4699      	mov	r9, r3
 80004fc:	0e2d      	lsrs	r5, r5, #24
 80004fe:	0fc6      	lsrs	r6, r0, #31
 8000500:	2d00      	cmp	r5, #0
 8000502:	d057      	beq.n	80005b4 <__aeabi_fmul+0xd0>
 8000504:	2dff      	cmp	r5, #255	; 0xff
 8000506:	d024      	beq.n	8000552 <__aeabi_fmul+0x6e>
 8000508:	2080      	movs	r0, #128	; 0x80
 800050a:	00db      	lsls	r3, r3, #3
 800050c:	04c0      	lsls	r0, r0, #19
 800050e:	4318      	orrs	r0, r3
 8000510:	2300      	movs	r3, #0
 8000512:	4681      	mov	r9, r0
 8000514:	469a      	mov	sl, r3
 8000516:	469b      	mov	fp, r3
 8000518:	3d7f      	subs	r5, #127	; 0x7f
 800051a:	027c      	lsls	r4, r7, #9
 800051c:	007a      	lsls	r2, r7, #1
 800051e:	0ffb      	lsrs	r3, r7, #31
 8000520:	0a64      	lsrs	r4, r4, #9
 8000522:	0e12      	lsrs	r2, r2, #24
 8000524:	4698      	mov	r8, r3
 8000526:	d023      	beq.n	8000570 <__aeabi_fmul+0x8c>
 8000528:	2aff      	cmp	r2, #255	; 0xff
 800052a:	d04b      	beq.n	80005c4 <__aeabi_fmul+0xe0>
 800052c:	00e3      	lsls	r3, r4, #3
 800052e:	2480      	movs	r4, #128	; 0x80
 8000530:	2000      	movs	r0, #0
 8000532:	04e4      	lsls	r4, r4, #19
 8000534:	3a7f      	subs	r2, #127	; 0x7f
 8000536:	431c      	orrs	r4, r3
 8000538:	18ad      	adds	r5, r5, r2
 800053a:	1c6b      	adds	r3, r5, #1
 800053c:	4647      	mov	r7, r8
 800053e:	9301      	str	r3, [sp, #4]
 8000540:	4653      	mov	r3, sl
 8000542:	4077      	eors	r7, r6
 8000544:	003a      	movs	r2, r7
 8000546:	2b0f      	cmp	r3, #15
 8000548:	d848      	bhi.n	80005dc <__aeabi_fmul+0xf8>
 800054a:	497d      	ldr	r1, [pc, #500]	; (8000740 <__aeabi_fmul+0x25c>)
 800054c:	009b      	lsls	r3, r3, #2
 800054e:	58cb      	ldr	r3, [r1, r3]
 8000550:	469f      	mov	pc, r3
 8000552:	2b00      	cmp	r3, #0
 8000554:	d000      	beq.n	8000558 <__aeabi_fmul+0x74>
 8000556:	e085      	b.n	8000664 <__aeabi_fmul+0x180>
 8000558:	3308      	adds	r3, #8
 800055a:	469a      	mov	sl, r3
 800055c:	3b06      	subs	r3, #6
 800055e:	469b      	mov	fp, r3
 8000560:	027c      	lsls	r4, r7, #9
 8000562:	007a      	lsls	r2, r7, #1
 8000564:	0ffb      	lsrs	r3, r7, #31
 8000566:	25ff      	movs	r5, #255	; 0xff
 8000568:	0a64      	lsrs	r4, r4, #9
 800056a:	0e12      	lsrs	r2, r2, #24
 800056c:	4698      	mov	r8, r3
 800056e:	d1db      	bne.n	8000528 <__aeabi_fmul+0x44>
 8000570:	2c00      	cmp	r4, #0
 8000572:	d000      	beq.n	8000576 <__aeabi_fmul+0x92>
 8000574:	e090      	b.n	8000698 <__aeabi_fmul+0x1b4>
 8000576:	4652      	mov	r2, sl
 8000578:	2301      	movs	r3, #1
 800057a:	431a      	orrs	r2, r3
 800057c:	4692      	mov	sl, r2
 800057e:	2001      	movs	r0, #1
 8000580:	e7db      	b.n	800053a <__aeabi_fmul+0x56>
 8000582:	464c      	mov	r4, r9
 8000584:	4658      	mov	r0, fp
 8000586:	0017      	movs	r7, r2
 8000588:	2802      	cmp	r0, #2
 800058a:	d024      	beq.n	80005d6 <__aeabi_fmul+0xf2>
 800058c:	2803      	cmp	r0, #3
 800058e:	d100      	bne.n	8000592 <__aeabi_fmul+0xae>
 8000590:	e0cf      	b.n	8000732 <__aeabi_fmul+0x24e>
 8000592:	2200      	movs	r2, #0
 8000594:	2300      	movs	r3, #0
 8000596:	2801      	cmp	r0, #1
 8000598:	d14d      	bne.n	8000636 <__aeabi_fmul+0x152>
 800059a:	0258      	lsls	r0, r3, #9
 800059c:	05d2      	lsls	r2, r2, #23
 800059e:	0a40      	lsrs	r0, r0, #9
 80005a0:	07ff      	lsls	r7, r7, #31
 80005a2:	4310      	orrs	r0, r2
 80005a4:	4338      	orrs	r0, r7
 80005a6:	b003      	add	sp, #12
 80005a8:	bc3c      	pop	{r2, r3, r4, r5}
 80005aa:	4690      	mov	r8, r2
 80005ac:	4699      	mov	r9, r3
 80005ae:	46a2      	mov	sl, r4
 80005b0:	46ab      	mov	fp, r5
 80005b2:	bdf0      	pop	{r4, r5, r6, r7, pc}
 80005b4:	2b00      	cmp	r3, #0
 80005b6:	d15b      	bne.n	8000670 <__aeabi_fmul+0x18c>
 80005b8:	2304      	movs	r3, #4
 80005ba:	469a      	mov	sl, r3
 80005bc:	3b03      	subs	r3, #3
 80005be:	2500      	movs	r5, #0
 80005c0:	469b      	mov	fp, r3
 80005c2:	e7aa      	b.n	800051a <__aeabi_fmul+0x36>
 80005c4:	35ff      	adds	r5, #255	; 0xff
 80005c6:	2c00      	cmp	r4, #0
 80005c8:	d160      	bne.n	800068c <__aeabi_fmul+0x1a8>
 80005ca:	4652      	mov	r2, sl
 80005cc:	2302      	movs	r3, #2
 80005ce:	431a      	orrs	r2, r3
 80005d0:	4692      	mov	sl, r2
 80005d2:	2002      	movs	r0, #2
 80005d4:	e7b1      	b.n	800053a <__aeabi_fmul+0x56>
 80005d6:	22ff      	movs	r2, #255	; 0xff
 80005d8:	2300      	movs	r3, #0
 80005da:	e7de      	b.n	800059a <__aeabi_fmul+0xb6>
 80005dc:	464b      	mov	r3, r9
 80005de:	0c1b      	lsrs	r3, r3, #16
 80005e0:	469c      	mov	ip, r3
 80005e2:	464b      	mov	r3, r9
 80005e4:	0426      	lsls	r6, r4, #16
 80005e6:	0c36      	lsrs	r6, r6, #16
 80005e8:	0418      	lsls	r0, r3, #16
 80005ea:	4661      	mov	r1, ip
 80005ec:	0033      	movs	r3, r6
 80005ee:	0c22      	lsrs	r2, r4, #16
 80005f0:	4664      	mov	r4, ip
 80005f2:	0c00      	lsrs	r0, r0, #16
 80005f4:	4343      	muls	r3, r0
 80005f6:	434e      	muls	r6, r1
 80005f8:	4350      	muls	r0, r2
 80005fa:	4354      	muls	r4, r2
 80005fc:	1980      	adds	r0, r0, r6
 80005fe:	0c1a      	lsrs	r2, r3, #16
 8000600:	1812      	adds	r2, r2, r0
 8000602:	4296      	cmp	r6, r2
 8000604:	d903      	bls.n	800060e <__aeabi_fmul+0x12a>
 8000606:	2180      	movs	r1, #128	; 0x80
 8000608:	0249      	lsls	r1, r1, #9
 800060a:	468c      	mov	ip, r1
 800060c:	4464      	add	r4, ip
 800060e:	041b      	lsls	r3, r3, #16
 8000610:	0c1b      	lsrs	r3, r3, #16
 8000612:	0410      	lsls	r0, r2, #16
 8000614:	18c0      	adds	r0, r0, r3
 8000616:	0183      	lsls	r3, r0, #6
 8000618:	1e5e      	subs	r6, r3, #1
 800061a:	41b3      	sbcs	r3, r6
 800061c:	0e80      	lsrs	r0, r0, #26
 800061e:	4318      	orrs	r0, r3
 8000620:	0c13      	lsrs	r3, r2, #16
 8000622:	191b      	adds	r3, r3, r4
 8000624:	019b      	lsls	r3, r3, #6
 8000626:	4303      	orrs	r3, r0
 8000628:	001c      	movs	r4, r3
 800062a:	0123      	lsls	r3, r4, #4
 800062c:	d579      	bpl.n	8000722 <__aeabi_fmul+0x23e>
 800062e:	2301      	movs	r3, #1
 8000630:	0862      	lsrs	r2, r4, #1
 8000632:	401c      	ands	r4, r3
 8000634:	4314      	orrs	r4, r2
 8000636:	9a01      	ldr	r2, [sp, #4]
 8000638:	327f      	adds	r2, #127	; 0x7f
 800063a:	2a00      	cmp	r2, #0
 800063c:	dd4d      	ble.n	80006da <__aeabi_fmul+0x1f6>
 800063e:	0763      	lsls	r3, r4, #29
 8000640:	d004      	beq.n	800064c <__aeabi_fmul+0x168>
 8000642:	230f      	movs	r3, #15
 8000644:	4023      	ands	r3, r4
 8000646:	2b04      	cmp	r3, #4
 8000648:	d000      	beq.n	800064c <__aeabi_fmul+0x168>
 800064a:	3404      	adds	r4, #4
 800064c:	0123      	lsls	r3, r4, #4
 800064e:	d503      	bpl.n	8000658 <__aeabi_fmul+0x174>
 8000650:	4b3c      	ldr	r3, [pc, #240]	; (8000744 <__aeabi_fmul+0x260>)
 8000652:	9a01      	ldr	r2, [sp, #4]
 8000654:	401c      	ands	r4, r3
 8000656:	3280      	adds	r2, #128	; 0x80
 8000658:	2afe      	cmp	r2, #254	; 0xfe
 800065a:	dcbc      	bgt.n	80005d6 <__aeabi_fmul+0xf2>
 800065c:	01a3      	lsls	r3, r4, #6
 800065e:	0a5b      	lsrs	r3, r3, #9
 8000660:	b2d2      	uxtb	r2, r2
 8000662:	e79a      	b.n	800059a <__aeabi_fmul+0xb6>
 8000664:	230c      	movs	r3, #12
 8000666:	469a      	mov	sl, r3
 8000668:	3b09      	subs	r3, #9
 800066a:	25ff      	movs	r5, #255	; 0xff
 800066c:	469b      	mov	fp, r3
 800066e:	e754      	b.n	800051a <__aeabi_fmul+0x36>
 8000670:	0018      	movs	r0, r3
 8000672:	f001 f813 	bl	800169c <__clzsi2>
 8000676:	464a      	mov	r2, r9
 8000678:	1f43      	subs	r3, r0, #5
 800067a:	2576      	movs	r5, #118	; 0x76
 800067c:	409a      	lsls	r2, r3
 800067e:	2300      	movs	r3, #0
 8000680:	426d      	negs	r5, r5
 8000682:	4691      	mov	r9, r2
 8000684:	1a2d      	subs	r5, r5, r0
 8000686:	469a      	mov	sl, r3
 8000688:	469b      	mov	fp, r3
 800068a:	e746      	b.n	800051a <__aeabi_fmul+0x36>
 800068c:	4652      	mov	r2, sl
 800068e:	2303      	movs	r3, #3
 8000690:	431a      	orrs	r2, r3
 8000692:	4692      	mov	sl, r2
 8000694:	2003      	movs	r0, #3
 8000696:	e750      	b.n	800053a <__aeabi_fmul+0x56>
 8000698:	0020      	movs	r0, r4
 800069a:	f000 ffff 	bl	800169c <__clzsi2>
 800069e:	1f43      	subs	r3, r0, #5
 80006a0:	1a2d      	subs	r5, r5, r0
 80006a2:	409c      	lsls	r4, r3
 80006a4:	3d76      	subs	r5, #118	; 0x76
 80006a6:	2000      	movs	r0, #0
 80006a8:	e747      	b.n	800053a <__aeabi_fmul+0x56>
 80006aa:	2380      	movs	r3, #128	; 0x80
 80006ac:	2700      	movs	r7, #0
 80006ae:	03db      	lsls	r3, r3, #15
 80006b0:	22ff      	movs	r2, #255	; 0xff
 80006b2:	e772      	b.n	800059a <__aeabi_fmul+0xb6>
 80006b4:	4642      	mov	r2, r8
 80006b6:	e766      	b.n	8000586 <__aeabi_fmul+0xa2>
 80006b8:	464c      	mov	r4, r9
 80006ba:	0032      	movs	r2, r6
 80006bc:	4658      	mov	r0, fp
 80006be:	e762      	b.n	8000586 <__aeabi_fmul+0xa2>
 80006c0:	2380      	movs	r3, #128	; 0x80
 80006c2:	464a      	mov	r2, r9
 80006c4:	03db      	lsls	r3, r3, #15
 80006c6:	421a      	tst	r2, r3
 80006c8:	d022      	beq.n	8000710 <__aeabi_fmul+0x22c>
 80006ca:	421c      	tst	r4, r3
 80006cc:	d120      	bne.n	8000710 <__aeabi_fmul+0x22c>
 80006ce:	4323      	orrs	r3, r4
 80006d0:	025b      	lsls	r3, r3, #9
 80006d2:	0a5b      	lsrs	r3, r3, #9
 80006d4:	4647      	mov	r7, r8
 80006d6:	22ff      	movs	r2, #255	; 0xff
 80006d8:	e75f      	b.n	800059a <__aeabi_fmul+0xb6>
 80006da:	2301      	movs	r3, #1
 80006dc:	1a9a      	subs	r2, r3, r2
 80006de:	2a1b      	cmp	r2, #27
 80006e0:	dc21      	bgt.n	8000726 <__aeabi_fmul+0x242>
 80006e2:	0023      	movs	r3, r4
 80006e4:	9901      	ldr	r1, [sp, #4]
 80006e6:	40d3      	lsrs	r3, r2
 80006e8:	319e      	adds	r1, #158	; 0x9e
 80006ea:	408c      	lsls	r4, r1
 80006ec:	001a      	movs	r2, r3
 80006ee:	0023      	movs	r3, r4
 80006f0:	1e5c      	subs	r4, r3, #1
 80006f2:	41a3      	sbcs	r3, r4
 80006f4:	4313      	orrs	r3, r2
 80006f6:	075a      	lsls	r2, r3, #29
 80006f8:	d004      	beq.n	8000704 <__aeabi_fmul+0x220>
 80006fa:	220f      	movs	r2, #15
 80006fc:	401a      	ands	r2, r3
 80006fe:	2a04      	cmp	r2, #4
 8000700:	d000      	beq.n	8000704 <__aeabi_fmul+0x220>
 8000702:	3304      	adds	r3, #4
 8000704:	015a      	lsls	r2, r3, #5
 8000706:	d411      	bmi.n	800072c <__aeabi_fmul+0x248>
 8000708:	019b      	lsls	r3, r3, #6
 800070a:	0a5b      	lsrs	r3, r3, #9
 800070c:	2200      	movs	r2, #0
 800070e:	e744      	b.n	800059a <__aeabi_fmul+0xb6>
 8000710:	2380      	movs	r3, #128	; 0x80
 8000712:	464a      	mov	r2, r9
 8000714:	03db      	lsls	r3, r3, #15
 8000716:	4313      	orrs	r3, r2
 8000718:	025b      	lsls	r3, r3, #9
 800071a:	0a5b      	lsrs	r3, r3, #9
 800071c:	0037      	movs	r7, r6
 800071e:	22ff      	movs	r2, #255	; 0xff
 8000720:	e73b      	b.n	800059a <__aeabi_fmul+0xb6>
 8000722:	9501      	str	r5, [sp, #4]
 8000724:	e787      	b.n	8000636 <__aeabi_fmul+0x152>
 8000726:	2200      	movs	r2, #0
 8000728:	2300      	movs	r3, #0
 800072a:	e736      	b.n	800059a <__aeabi_fmul+0xb6>
 800072c:	2201      	movs	r2, #1
 800072e:	2300      	movs	r3, #0
 8000730:	e733      	b.n	800059a <__aeabi_fmul+0xb6>
 8000732:	2380      	movs	r3, #128	; 0x80
 8000734:	03db      	lsls	r3, r3, #15
 8000736:	4323      	orrs	r3, r4
 8000738:	025b      	lsls	r3, r3, #9
 800073a:	0a5b      	lsrs	r3, r3, #9
 800073c:	22ff      	movs	r2, #255	; 0xff
 800073e:	e72c      	b.n	800059a <__aeabi_fmul+0xb6>
 8000740:	08005b10 	.word	0x08005b10
 8000744:	f7ffffff 	.word	0xf7ffffff

08000748 <__aeabi_f2iz>:
 8000748:	0241      	lsls	r1, r0, #9
 800074a:	0042      	lsls	r2, r0, #1
 800074c:	0fc3      	lsrs	r3, r0, #31
 800074e:	0a49      	lsrs	r1, r1, #9
 8000750:	0e12      	lsrs	r2, r2, #24
 8000752:	2000      	movs	r0, #0
 8000754:	2a7e      	cmp	r2, #126	; 0x7e
 8000756:	d90d      	bls.n	8000774 <__aeabi_f2iz+0x2c>
 8000758:	2a9d      	cmp	r2, #157	; 0x9d
 800075a:	d80c      	bhi.n	8000776 <__aeabi_f2iz+0x2e>
 800075c:	2080      	movs	r0, #128	; 0x80
 800075e:	0400      	lsls	r0, r0, #16
 8000760:	4301      	orrs	r1, r0
 8000762:	2a95      	cmp	r2, #149	; 0x95
 8000764:	dc0a      	bgt.n	800077c <__aeabi_f2iz+0x34>
 8000766:	2096      	movs	r0, #150	; 0x96
 8000768:	1a82      	subs	r2, r0, r2
 800076a:	40d1      	lsrs	r1, r2
 800076c:	4248      	negs	r0, r1
 800076e:	2b00      	cmp	r3, #0
 8000770:	d100      	bne.n	8000774 <__aeabi_f2iz+0x2c>
 8000772:	0008      	movs	r0, r1
 8000774:	4770      	bx	lr
 8000776:	4a03      	ldr	r2, [pc, #12]	; (8000784 <__aeabi_f2iz+0x3c>)
 8000778:	1898      	adds	r0, r3, r2
 800077a:	e7fb      	b.n	8000774 <__aeabi_f2iz+0x2c>
 800077c:	3a96      	subs	r2, #150	; 0x96
 800077e:	4091      	lsls	r1, r2
 8000780:	e7f4      	b.n	800076c <__aeabi_f2iz+0x24>
 8000782:	46c0      	nop			; (mov r8, r8)
 8000784:	7fffffff 	.word	0x7fffffff

08000788 <__aeabi_ui2f>:
 8000788:	b570      	push	{r4, r5, r6, lr}
 800078a:	1e04      	subs	r4, r0, #0
 800078c:	d034      	beq.n	80007f8 <__aeabi_ui2f+0x70>
 800078e:	f000 ff85 	bl	800169c <__clzsi2>
 8000792:	229e      	movs	r2, #158	; 0x9e
 8000794:	1a12      	subs	r2, r2, r0
 8000796:	2a96      	cmp	r2, #150	; 0x96
 8000798:	dc07      	bgt.n	80007aa <__aeabi_ui2f+0x22>
 800079a:	b2d2      	uxtb	r2, r2
 800079c:	2808      	cmp	r0, #8
 800079e:	dd2e      	ble.n	80007fe <__aeabi_ui2f+0x76>
 80007a0:	3808      	subs	r0, #8
 80007a2:	4084      	lsls	r4, r0
 80007a4:	0260      	lsls	r0, r4, #9
 80007a6:	0a40      	lsrs	r0, r0, #9
 80007a8:	e021      	b.n	80007ee <__aeabi_ui2f+0x66>
 80007aa:	2a99      	cmp	r2, #153	; 0x99
 80007ac:	dd09      	ble.n	80007c2 <__aeabi_ui2f+0x3a>
 80007ae:	0003      	movs	r3, r0
 80007b0:	0021      	movs	r1, r4
 80007b2:	331b      	adds	r3, #27
 80007b4:	4099      	lsls	r1, r3
 80007b6:	1e4b      	subs	r3, r1, #1
 80007b8:	4199      	sbcs	r1, r3
 80007ba:	2305      	movs	r3, #5
 80007bc:	1a1b      	subs	r3, r3, r0
 80007be:	40dc      	lsrs	r4, r3
 80007c0:	430c      	orrs	r4, r1
 80007c2:	2805      	cmp	r0, #5
 80007c4:	dd01      	ble.n	80007ca <__aeabi_ui2f+0x42>
 80007c6:	1f43      	subs	r3, r0, #5
 80007c8:	409c      	lsls	r4, r3
 80007ca:	0023      	movs	r3, r4
 80007cc:	490d      	ldr	r1, [pc, #52]	; (8000804 <__aeabi_ui2f+0x7c>)
 80007ce:	400b      	ands	r3, r1
 80007d0:	0765      	lsls	r5, r4, #29
 80007d2:	d009      	beq.n	80007e8 <__aeabi_ui2f+0x60>
 80007d4:	250f      	movs	r5, #15
 80007d6:	402c      	ands	r4, r5
 80007d8:	2c04      	cmp	r4, #4
 80007da:	d005      	beq.n	80007e8 <__aeabi_ui2f+0x60>
 80007dc:	3304      	adds	r3, #4
 80007de:	015c      	lsls	r4, r3, #5
 80007e0:	d502      	bpl.n	80007e8 <__aeabi_ui2f+0x60>
 80007e2:	229f      	movs	r2, #159	; 0x9f
 80007e4:	400b      	ands	r3, r1
 80007e6:	1a12      	subs	r2, r2, r0
 80007e8:	019b      	lsls	r3, r3, #6
 80007ea:	0a58      	lsrs	r0, r3, #9
 80007ec:	b2d2      	uxtb	r2, r2
 80007ee:	0240      	lsls	r0, r0, #9
 80007f0:	05d2      	lsls	r2, r2, #23
 80007f2:	0a40      	lsrs	r0, r0, #9
 80007f4:	4310      	orrs	r0, r2
 80007f6:	bd70      	pop	{r4, r5, r6, pc}
 80007f8:	2200      	movs	r2, #0
 80007fa:	2000      	movs	r0, #0
 80007fc:	e7f7      	b.n	80007ee <__aeabi_ui2f+0x66>
 80007fe:	0260      	lsls	r0, r4, #9
 8000800:	0a40      	lsrs	r0, r0, #9
 8000802:	e7f4      	b.n	80007ee <__aeabi_ui2f+0x66>
 8000804:	fbffffff 	.word	0xfbffffff

08000808 <__eqdf2>:
 8000808:	b5f0      	push	{r4, r5, r6, r7, lr}
 800080a:	464f      	mov	r7, r9
 800080c:	4646      	mov	r6, r8
 800080e:	46d6      	mov	lr, sl
 8000810:	4684      	mov	ip, r0
 8000812:	b5c0      	push	{r6, r7, lr}
 8000814:	4680      	mov	r8, r0
 8000816:	4e19      	ldr	r6, [pc, #100]	; (800087c <__eqdf2+0x74>)
 8000818:	0318      	lsls	r0, r3, #12
 800081a:	030f      	lsls	r7, r1, #12
 800081c:	004d      	lsls	r5, r1, #1
 800081e:	0b00      	lsrs	r0, r0, #12
 8000820:	005c      	lsls	r4, r3, #1
 8000822:	4682      	mov	sl, r0
 8000824:	0b3f      	lsrs	r7, r7, #12
 8000826:	0d6d      	lsrs	r5, r5, #21
 8000828:	0fc9      	lsrs	r1, r1, #31
 800082a:	4691      	mov	r9, r2
 800082c:	0d64      	lsrs	r4, r4, #21
 800082e:	0fdb      	lsrs	r3, r3, #31
 8000830:	2001      	movs	r0, #1
 8000832:	42b5      	cmp	r5, r6
 8000834:	d00a      	beq.n	800084c <__eqdf2+0x44>
 8000836:	42b4      	cmp	r4, r6
 8000838:	d003      	beq.n	8000842 <__eqdf2+0x3a>
 800083a:	42a5      	cmp	r5, r4
 800083c:	d101      	bne.n	8000842 <__eqdf2+0x3a>
 800083e:	4557      	cmp	r7, sl
 8000840:	d00c      	beq.n	800085c <__eqdf2+0x54>
 8000842:	bc1c      	pop	{r2, r3, r4}
 8000844:	4690      	mov	r8, r2
 8000846:	4699      	mov	r9, r3
 8000848:	46a2      	mov	sl, r4
 800084a:	bdf0      	pop	{r4, r5, r6, r7, pc}
 800084c:	4666      	mov	r6, ip
 800084e:	433e      	orrs	r6, r7
 8000850:	d1f7      	bne.n	8000842 <__eqdf2+0x3a>
 8000852:	42ac      	cmp	r4, r5
 8000854:	d1f5      	bne.n	8000842 <__eqdf2+0x3a>
 8000856:	4654      	mov	r4, sl
 8000858:	4314      	orrs	r4, r2
 800085a:	d1f2      	bne.n	8000842 <__eqdf2+0x3a>
 800085c:	2001      	movs	r0, #1
 800085e:	45c8      	cmp	r8, r9
 8000860:	d1ef      	bne.n	8000842 <__eqdf2+0x3a>
 8000862:	4299      	cmp	r1, r3
 8000864:	d007      	beq.n	8000876 <__eqdf2+0x6e>
 8000866:	2d00      	cmp	r5, #0
 8000868:	d1eb      	bne.n	8000842 <__eqdf2+0x3a>
 800086a:	4663      	mov	r3, ip
 800086c:	431f      	orrs	r7, r3
 800086e:	0038      	movs	r0, r7
 8000870:	1e47      	subs	r7, r0, #1
 8000872:	41b8      	sbcs	r0, r7
 8000874:	e7e5      	b.n	8000842 <__eqdf2+0x3a>
 8000876:	2000      	movs	r0, #0
 8000878:	e7e3      	b.n	8000842 <__eqdf2+0x3a>
 800087a:	46c0      	nop			; (mov r8, r8)
 800087c:	000007ff 	.word	0x000007ff

08000880 <__gedf2>:
 8000880:	b5f0      	push	{r4, r5, r6, r7, lr}
 8000882:	464f      	mov	r7, r9
 8000884:	4646      	mov	r6, r8
 8000886:	46d6      	mov	lr, sl
 8000888:	004d      	lsls	r5, r1, #1
 800088a:	b5c0      	push	{r6, r7, lr}
 800088c:	030e      	lsls	r6, r1, #12
 800088e:	0fc9      	lsrs	r1, r1, #31
 8000890:	468a      	mov	sl, r1
 8000892:	492c      	ldr	r1, [pc, #176]	; (8000944 <__gedf2+0xc4>)
 8000894:	031f      	lsls	r7, r3, #12
 8000896:	005c      	lsls	r4, r3, #1
 8000898:	4680      	mov	r8, r0
 800089a:	0b36      	lsrs	r6, r6, #12
 800089c:	0d6d      	lsrs	r5, r5, #21
 800089e:	4691      	mov	r9, r2
 80008a0:	0b3f      	lsrs	r7, r7, #12
 80008a2:	0d64      	lsrs	r4, r4, #21
 80008a4:	0fdb      	lsrs	r3, r3, #31
 80008a6:	428d      	cmp	r5, r1
 80008a8:	d01e      	beq.n	80008e8 <__gedf2+0x68>
 80008aa:	428c      	cmp	r4, r1
 80008ac:	d016      	beq.n	80008dc <__gedf2+0x5c>
 80008ae:	2d00      	cmp	r5, #0
 80008b0:	d11e      	bne.n	80008f0 <__gedf2+0x70>
 80008b2:	4330      	orrs	r0, r6
 80008b4:	4684      	mov	ip, r0
 80008b6:	2c00      	cmp	r4, #0
 80008b8:	d101      	bne.n	80008be <__gedf2+0x3e>
 80008ba:	433a      	orrs	r2, r7
 80008bc:	d023      	beq.n	8000906 <__gedf2+0x86>
 80008be:	4662      	mov	r2, ip
 80008c0:	2a00      	cmp	r2, #0
 80008c2:	d01a      	beq.n	80008fa <__gedf2+0x7a>
 80008c4:	459a      	cmp	sl, r3
 80008c6:	d029      	beq.n	800091c <__gedf2+0x9c>
 80008c8:	4651      	mov	r1, sl
 80008ca:	2002      	movs	r0, #2
 80008cc:	3901      	subs	r1, #1
 80008ce:	4008      	ands	r0, r1
 80008d0:	3801      	subs	r0, #1
 80008d2:	bc1c      	pop	{r2, r3, r4}
 80008d4:	4690      	mov	r8, r2
 80008d6:	4699      	mov	r9, r3
 80008d8:	46a2      	mov	sl, r4
 80008da:	bdf0      	pop	{r4, r5, r6, r7, pc}
 80008dc:	0039      	movs	r1, r7
 80008de:	4311      	orrs	r1, r2
 80008e0:	d0e5      	beq.n	80008ae <__gedf2+0x2e>
 80008e2:	2002      	movs	r0, #2
 80008e4:	4240      	negs	r0, r0
 80008e6:	e7f4      	b.n	80008d2 <__gedf2+0x52>
 80008e8:	4330      	orrs	r0, r6
 80008ea:	d1fa      	bne.n	80008e2 <__gedf2+0x62>
 80008ec:	42ac      	cmp	r4, r5
 80008ee:	d00f      	beq.n	8000910 <__gedf2+0x90>
 80008f0:	2c00      	cmp	r4, #0
 80008f2:	d10f      	bne.n	8000914 <__gedf2+0x94>
 80008f4:	433a      	orrs	r2, r7
 80008f6:	d0e7      	beq.n	80008c8 <__gedf2+0x48>
 80008f8:	e00c      	b.n	8000914 <__gedf2+0x94>
 80008fa:	2201      	movs	r2, #1
 80008fc:	3b01      	subs	r3, #1
 80008fe:	4393      	bics	r3, r2
 8000900:	0018      	movs	r0, r3
 8000902:	3001      	adds	r0, #1
 8000904:	e7e5      	b.n	80008d2 <__gedf2+0x52>
 8000906:	4663      	mov	r3, ip
 8000908:	2000      	movs	r0, #0
 800090a:	2b00      	cmp	r3, #0
 800090c:	d0e1      	beq.n	80008d2 <__gedf2+0x52>
 800090e:	e7db      	b.n	80008c8 <__gedf2+0x48>
 8000910:	433a      	orrs	r2, r7
 8000912:	d1e6      	bne.n	80008e2 <__gedf2+0x62>
 8000914:	459a      	cmp	sl, r3
 8000916:	d1d7      	bne.n	80008c8 <__gedf2+0x48>
 8000918:	42a5      	cmp	r5, r4
 800091a:	dcd5      	bgt.n	80008c8 <__gedf2+0x48>
 800091c:	42a5      	cmp	r5, r4
 800091e:	db05      	blt.n	800092c <__gedf2+0xac>
 8000920:	42be      	cmp	r6, r7
 8000922:	d8d1      	bhi.n	80008c8 <__gedf2+0x48>
 8000924:	d008      	beq.n	8000938 <__gedf2+0xb8>
 8000926:	2000      	movs	r0, #0
 8000928:	42be      	cmp	r6, r7
 800092a:	d2d2      	bcs.n	80008d2 <__gedf2+0x52>
 800092c:	4650      	mov	r0, sl
 800092e:	2301      	movs	r3, #1
 8000930:	3801      	subs	r0, #1
 8000932:	4398      	bics	r0, r3
 8000934:	3001      	adds	r0, #1
 8000936:	e7cc      	b.n	80008d2 <__gedf2+0x52>
 8000938:	45c8      	cmp	r8, r9
 800093a:	d8c5      	bhi.n	80008c8 <__gedf2+0x48>
 800093c:	2000      	movs	r0, #0
 800093e:	45c8      	cmp	r8, r9
 8000940:	d3f4      	bcc.n	800092c <__gedf2+0xac>
 8000942:	e7c6      	b.n	80008d2 <__gedf2+0x52>
 8000944:	000007ff 	.word	0x000007ff

08000948 <__ledf2>:
 8000948:	b5f0      	push	{r4, r5, r6, r7, lr}
 800094a:	464f      	mov	r7, r9
 800094c:	4646      	mov	r6, r8
 800094e:	46d6      	mov	lr, sl
 8000950:	004d      	lsls	r5, r1, #1
 8000952:	b5c0      	push	{r6, r7, lr}
 8000954:	030e      	lsls	r6, r1, #12
 8000956:	0fc9      	lsrs	r1, r1, #31
 8000958:	468a      	mov	sl, r1
 800095a:	492e      	ldr	r1, [pc, #184]	; (8000a14 <__ledf2+0xcc>)
 800095c:	031f      	lsls	r7, r3, #12
 800095e:	005c      	lsls	r4, r3, #1
 8000960:	4680      	mov	r8, r0
 8000962:	0b36      	lsrs	r6, r6, #12
 8000964:	0d6d      	lsrs	r5, r5, #21
 8000966:	4691      	mov	r9, r2
 8000968:	0b3f      	lsrs	r7, r7, #12
 800096a:	0d64      	lsrs	r4, r4, #21
 800096c:	0fdb      	lsrs	r3, r3, #31
 800096e:	428d      	cmp	r5, r1
 8000970:	d018      	beq.n	80009a4 <__ledf2+0x5c>
 8000972:	428c      	cmp	r4, r1
 8000974:	d011      	beq.n	800099a <__ledf2+0x52>
 8000976:	2d00      	cmp	r5, #0
 8000978:	d118      	bne.n	80009ac <__ledf2+0x64>
 800097a:	4330      	orrs	r0, r6
 800097c:	4684      	mov	ip, r0
 800097e:	2c00      	cmp	r4, #0
 8000980:	d11e      	bne.n	80009c0 <__ledf2+0x78>
 8000982:	433a      	orrs	r2, r7
 8000984:	d11c      	bne.n	80009c0 <__ledf2+0x78>
 8000986:	4663      	mov	r3, ip
 8000988:	2000      	movs	r0, #0
 800098a:	2b00      	cmp	r3, #0
 800098c:	d030      	beq.n	80009f0 <__ledf2+0xa8>
 800098e:	4651      	mov	r1, sl
 8000990:	2002      	movs	r0, #2
 8000992:	3901      	subs	r1, #1
 8000994:	4008      	ands	r0, r1
 8000996:	3801      	subs	r0, #1
 8000998:	e02a      	b.n	80009f0 <__ledf2+0xa8>
 800099a:	0039      	movs	r1, r7
 800099c:	4311      	orrs	r1, r2
 800099e:	d0ea      	beq.n	8000976 <__ledf2+0x2e>
 80009a0:	2002      	movs	r0, #2
 80009a2:	e025      	b.n	80009f0 <__ledf2+0xa8>
 80009a4:	4330      	orrs	r0, r6
 80009a6:	d1fb      	bne.n	80009a0 <__ledf2+0x58>
 80009a8:	42ac      	cmp	r4, r5
 80009aa:	d026      	beq.n	80009fa <__ledf2+0xb2>
 80009ac:	2c00      	cmp	r4, #0
 80009ae:	d126      	bne.n	80009fe <__ledf2+0xb6>
 80009b0:	433a      	orrs	r2, r7
 80009b2:	d124      	bne.n	80009fe <__ledf2+0xb6>
 80009b4:	4651      	mov	r1, sl
 80009b6:	2002      	movs	r0, #2
 80009b8:	3901      	subs	r1, #1
 80009ba:	4008      	ands	r0, r1
 80009bc:	3801      	subs	r0, #1
 80009be:	e017      	b.n	80009f0 <__ledf2+0xa8>
 80009c0:	4662      	mov	r2, ip
 80009c2:	2a00      	cmp	r2, #0
 80009c4:	d00f      	beq.n	80009e6 <__ledf2+0x9e>
 80009c6:	459a      	cmp	sl, r3
 80009c8:	d1e1      	bne.n	800098e <__ledf2+0x46>
 80009ca:	42a5      	cmp	r5, r4
 80009cc:	db05      	blt.n	80009da <__ledf2+0x92>
 80009ce:	42be      	cmp	r6, r7
 80009d0:	d8dd      	bhi.n	800098e <__ledf2+0x46>
 80009d2:	d019      	beq.n	8000a08 <__ledf2+0xc0>
 80009d4:	2000      	movs	r0, #0
 80009d6:	42be      	cmp	r6, r7
 80009d8:	d20a      	bcs.n	80009f0 <__ledf2+0xa8>
 80009da:	4650      	mov	r0, sl
 80009dc:	2301      	movs	r3, #1
 80009de:	3801      	subs	r0, #1
 80009e0:	4398      	bics	r0, r3
 80009e2:	3001      	adds	r0, #1
 80009e4:	e004      	b.n	80009f0 <__ledf2+0xa8>
 80009e6:	2201      	movs	r2, #1
 80009e8:	3b01      	subs	r3, #1
 80009ea:	4393      	bics	r3, r2
 80009ec:	0018      	movs	r0, r3
 80009ee:	3001      	adds	r0, #1
 80009f0:	bc1c      	pop	{r2, r3, r4}
 80009f2:	4690      	mov	r8, r2
 80009f4:	4699      	mov	r9, r3
 80009f6:	46a2      	mov	sl, r4
 80009f8:	bdf0      	pop	{r4, r5, r6, r7, pc}
 80009fa:	433a      	orrs	r2, r7
 80009fc:	d1d0      	bne.n	80009a0 <__ledf2+0x58>
 80009fe:	459a      	cmp	sl, r3
 8000a00:	d1c5      	bne.n	800098e <__ledf2+0x46>
 8000a02:	42a5      	cmp	r5, r4
 8000a04:	dcc3      	bgt.n	800098e <__ledf2+0x46>
 8000a06:	e7e0      	b.n	80009ca <__ledf2+0x82>
 8000a08:	45c8      	cmp	r8, r9
 8000a0a:	d8c0      	bhi.n	800098e <__ledf2+0x46>
 8000a0c:	2000      	movs	r0, #0
 8000a0e:	45c8      	cmp	r8, r9
 8000a10:	d3e3      	bcc.n	80009da <__ledf2+0x92>
 8000a12:	e7ed      	b.n	80009f0 <__ledf2+0xa8>
 8000a14:	000007ff 	.word	0x000007ff

08000a18 <__aeabi_dmul>:
 8000a18:	b5f0      	push	{r4, r5, r6, r7, lr}
 8000a1a:	4657      	mov	r7, sl
 8000a1c:	46de      	mov	lr, fp
 8000a1e:	464e      	mov	r6, r9
 8000a20:	4645      	mov	r5, r8
 8000a22:	b5e0      	push	{r5, r6, r7, lr}
 8000a24:	4683      	mov	fp, r0
 8000a26:	0006      	movs	r6, r0
 8000a28:	030f      	lsls	r7, r1, #12
 8000a2a:	0048      	lsls	r0, r1, #1
 8000a2c:	b087      	sub	sp, #28
 8000a2e:	4692      	mov	sl, r2
 8000a30:	001d      	movs	r5, r3
 8000a32:	0b3f      	lsrs	r7, r7, #12
 8000a34:	0d40      	lsrs	r0, r0, #21
 8000a36:	0fcc      	lsrs	r4, r1, #31
 8000a38:	2800      	cmp	r0, #0
 8000a3a:	d100      	bne.n	8000a3e <__aeabi_dmul+0x26>
 8000a3c:	e06f      	b.n	8000b1e <__aeabi_dmul+0x106>
 8000a3e:	4bde      	ldr	r3, [pc, #888]	; (8000db8 <__aeabi_dmul+0x3a0>)
 8000a40:	4298      	cmp	r0, r3
 8000a42:	d038      	beq.n	8000ab6 <__aeabi_dmul+0x9e>
 8000a44:	2380      	movs	r3, #128	; 0x80
 8000a46:	00ff      	lsls	r7, r7, #3
 8000a48:	041b      	lsls	r3, r3, #16
 8000a4a:	431f      	orrs	r7, r3
 8000a4c:	0f73      	lsrs	r3, r6, #29
 8000a4e:	433b      	orrs	r3, r7
 8000a50:	9301      	str	r3, [sp, #4]
 8000a52:	4bda      	ldr	r3, [pc, #872]	; (8000dbc <__aeabi_dmul+0x3a4>)
 8000a54:	2700      	movs	r7, #0
 8000a56:	4699      	mov	r9, r3
 8000a58:	2300      	movs	r3, #0
 8000a5a:	469b      	mov	fp, r3
 8000a5c:	00f6      	lsls	r6, r6, #3
 8000a5e:	4481      	add	r9, r0
 8000a60:	032b      	lsls	r3, r5, #12
 8000a62:	0069      	lsls	r1, r5, #1
 8000a64:	0b1b      	lsrs	r3, r3, #12
 8000a66:	4652      	mov	r2, sl
 8000a68:	4698      	mov	r8, r3
 8000a6a:	0d49      	lsrs	r1, r1, #21
 8000a6c:	0fed      	lsrs	r5, r5, #31
 8000a6e:	2900      	cmp	r1, #0
 8000a70:	d100      	bne.n	8000a74 <__aeabi_dmul+0x5c>
 8000a72:	e085      	b.n	8000b80 <__aeabi_dmul+0x168>
 8000a74:	4bd0      	ldr	r3, [pc, #832]	; (8000db8 <__aeabi_dmul+0x3a0>)
 8000a76:	4299      	cmp	r1, r3
 8000a78:	d100      	bne.n	8000a7c <__aeabi_dmul+0x64>
 8000a7a:	e073      	b.n	8000b64 <__aeabi_dmul+0x14c>
 8000a7c:	4643      	mov	r3, r8
 8000a7e:	00da      	lsls	r2, r3, #3
 8000a80:	2380      	movs	r3, #128	; 0x80
 8000a82:	041b      	lsls	r3, r3, #16
 8000a84:	4313      	orrs	r3, r2
 8000a86:	4652      	mov	r2, sl
 8000a88:	48cc      	ldr	r0, [pc, #816]	; (8000dbc <__aeabi_dmul+0x3a4>)
 8000a8a:	0f52      	lsrs	r2, r2, #29
 8000a8c:	4684      	mov	ip, r0
 8000a8e:	4313      	orrs	r3, r2
 8000a90:	4652      	mov	r2, sl
 8000a92:	2000      	movs	r0, #0
 8000a94:	4461      	add	r1, ip
 8000a96:	00d2      	lsls	r2, r2, #3
 8000a98:	4489      	add	r9, r1
 8000a9a:	0021      	movs	r1, r4
 8000a9c:	4069      	eors	r1, r5
 8000a9e:	9100      	str	r1, [sp, #0]
 8000aa0:	468c      	mov	ip, r1
 8000aa2:	2101      	movs	r1, #1
 8000aa4:	4449      	add	r1, r9
 8000aa6:	468a      	mov	sl, r1
 8000aa8:	2f0f      	cmp	r7, #15
 8000aaa:	d900      	bls.n	8000aae <__aeabi_dmul+0x96>
 8000aac:	e090      	b.n	8000bd0 <__aeabi_dmul+0x1b8>
 8000aae:	49c4      	ldr	r1, [pc, #784]	; (8000dc0 <__aeabi_dmul+0x3a8>)
 8000ab0:	00bf      	lsls	r7, r7, #2
 8000ab2:	59cf      	ldr	r7, [r1, r7]
 8000ab4:	46bf      	mov	pc, r7
 8000ab6:	465b      	mov	r3, fp
 8000ab8:	433b      	orrs	r3, r7
 8000aba:	9301      	str	r3, [sp, #4]
 8000abc:	d000      	beq.n	8000ac0 <__aeabi_dmul+0xa8>
 8000abe:	e16a      	b.n	8000d96 <__aeabi_dmul+0x37e>
 8000ac0:	2302      	movs	r3, #2
 8000ac2:	2708      	movs	r7, #8
 8000ac4:	2600      	movs	r6, #0
 8000ac6:	4681      	mov	r9, r0
 8000ac8:	469b      	mov	fp, r3
 8000aca:	e7c9      	b.n	8000a60 <__aeabi_dmul+0x48>
 8000acc:	0032      	movs	r2, r6
 8000ace:	4658      	mov	r0, fp
 8000ad0:	9b01      	ldr	r3, [sp, #4]
 8000ad2:	4661      	mov	r1, ip
 8000ad4:	9100      	str	r1, [sp, #0]
 8000ad6:	2802      	cmp	r0, #2
 8000ad8:	d100      	bne.n	8000adc <__aeabi_dmul+0xc4>
 8000ada:	e075      	b.n	8000bc8 <__aeabi_dmul+0x1b0>
 8000adc:	2803      	cmp	r0, #3
 8000ade:	d100      	bne.n	8000ae2 <__aeabi_dmul+0xca>
 8000ae0:	e1fe      	b.n	8000ee0 <__aeabi_dmul+0x4c8>
 8000ae2:	2801      	cmp	r0, #1
 8000ae4:	d000      	beq.n	8000ae8 <__aeabi_dmul+0xd0>
 8000ae6:	e12c      	b.n	8000d42 <__aeabi_dmul+0x32a>
 8000ae8:	2300      	movs	r3, #0
 8000aea:	2700      	movs	r7, #0
 8000aec:	2600      	movs	r6, #0
 8000aee:	2500      	movs	r5, #0
 8000af0:	033f      	lsls	r7, r7, #12
 8000af2:	0d2a      	lsrs	r2, r5, #20
 8000af4:	0b3f      	lsrs	r7, r7, #12
 8000af6:	48b3      	ldr	r0, [pc, #716]	; (8000dc4 <__aeabi_dmul+0x3ac>)
 8000af8:	0512      	lsls	r2, r2, #20
 8000afa:	433a      	orrs	r2, r7
 8000afc:	4002      	ands	r2, r0
 8000afe:	051b      	lsls	r3, r3, #20
 8000b00:	4313      	orrs	r3, r2
 8000b02:	9a00      	ldr	r2, [sp, #0]
 8000b04:	005b      	lsls	r3, r3, #1
 8000b06:	07d1      	lsls	r1, r2, #31
 8000b08:	085b      	lsrs	r3, r3, #1
 8000b0a:	430b      	orrs	r3, r1
 8000b0c:	0030      	movs	r0, r6
 8000b0e:	0019      	movs	r1, r3
 8000b10:	b007      	add	sp, #28
 8000b12:	bc3c      	pop	{r2, r3, r4, r5}
 8000b14:	4690      	mov	r8, r2
 8000b16:	4699      	mov	r9, r3
 8000b18:	46a2      	mov	sl, r4
 8000b1a:	46ab      	mov	fp, r5
 8000b1c:	bdf0      	pop	{r4, r5, r6, r7, pc}
 8000b1e:	465b      	mov	r3, fp
 8000b20:	433b      	orrs	r3, r7
 8000b22:	9301      	str	r3, [sp, #4]
 8000b24:	d100      	bne.n	8000b28 <__aeabi_dmul+0x110>
 8000b26:	e12f      	b.n	8000d88 <__aeabi_dmul+0x370>
 8000b28:	2f00      	cmp	r7, #0
 8000b2a:	d100      	bne.n	8000b2e <__aeabi_dmul+0x116>
 8000b2c:	e1a5      	b.n	8000e7a <__aeabi_dmul+0x462>
 8000b2e:	0038      	movs	r0, r7
 8000b30:	f000 fdb4 	bl	800169c <__clzsi2>
 8000b34:	0003      	movs	r3, r0
 8000b36:	3b0b      	subs	r3, #11
 8000b38:	2b1c      	cmp	r3, #28
 8000b3a:	dd00      	ble.n	8000b3e <__aeabi_dmul+0x126>
 8000b3c:	e196      	b.n	8000e6c <__aeabi_dmul+0x454>
 8000b3e:	221d      	movs	r2, #29
 8000b40:	1ad3      	subs	r3, r2, r3
 8000b42:	465a      	mov	r2, fp
 8000b44:	0001      	movs	r1, r0
 8000b46:	40da      	lsrs	r2, r3
 8000b48:	465e      	mov	r6, fp
 8000b4a:	3908      	subs	r1, #8
 8000b4c:	408f      	lsls	r7, r1
 8000b4e:	0013      	movs	r3, r2
 8000b50:	408e      	lsls	r6, r1
 8000b52:	433b      	orrs	r3, r7
 8000b54:	9301      	str	r3, [sp, #4]
 8000b56:	4b9c      	ldr	r3, [pc, #624]	; (8000dc8 <__aeabi_dmul+0x3b0>)
 8000b58:	2700      	movs	r7, #0
 8000b5a:	1a1b      	subs	r3, r3, r0
 8000b5c:	4699      	mov	r9, r3
 8000b5e:	2300      	movs	r3, #0
 8000b60:	469b      	mov	fp, r3
 8000b62:	e77d      	b.n	8000a60 <__aeabi_dmul+0x48>
 8000b64:	4641      	mov	r1, r8
 8000b66:	4653      	mov	r3, sl
 8000b68:	430b      	orrs	r3, r1
 8000b6a:	4993      	ldr	r1, [pc, #588]	; (8000db8 <__aeabi_dmul+0x3a0>)
 8000b6c:	468c      	mov	ip, r1
 8000b6e:	44e1      	add	r9, ip
 8000b70:	2b00      	cmp	r3, #0
 8000b72:	d000      	beq.n	8000b76 <__aeabi_dmul+0x15e>
 8000b74:	e11a      	b.n	8000dac <__aeabi_dmul+0x394>
 8000b76:	2202      	movs	r2, #2
 8000b78:	2002      	movs	r0, #2
 8000b7a:	4317      	orrs	r7, r2
 8000b7c:	2200      	movs	r2, #0
 8000b7e:	e78c      	b.n	8000a9a <__aeabi_dmul+0x82>
 8000b80:	4313      	orrs	r3, r2
 8000b82:	d100      	bne.n	8000b86 <__aeabi_dmul+0x16e>
 8000b84:	e10d      	b.n	8000da2 <__aeabi_dmul+0x38a>
 8000b86:	4643      	mov	r3, r8
 8000b88:	2b00      	cmp	r3, #0
 8000b8a:	d100      	bne.n	8000b8e <__aeabi_dmul+0x176>
 8000b8c:	e181      	b.n	8000e92 <__aeabi_dmul+0x47a>
 8000b8e:	4640      	mov	r0, r8
 8000b90:	f000 fd84 	bl	800169c <__clzsi2>
 8000b94:	0002      	movs	r2, r0
 8000b96:	3a0b      	subs	r2, #11
 8000b98:	2a1c      	cmp	r2, #28
 8000b9a:	dd00      	ble.n	8000b9e <__aeabi_dmul+0x186>
 8000b9c:	e172      	b.n	8000e84 <__aeabi_dmul+0x46c>
 8000b9e:	0001      	movs	r1, r0
 8000ba0:	4643      	mov	r3, r8
 8000ba2:	3908      	subs	r1, #8
 8000ba4:	408b      	lsls	r3, r1
 8000ba6:	4698      	mov	r8, r3
 8000ba8:	231d      	movs	r3, #29
 8000baa:	1a9a      	subs	r2, r3, r2
 8000bac:	4653      	mov	r3, sl
 8000bae:	40d3      	lsrs	r3, r2
 8000bb0:	001a      	movs	r2, r3
 8000bb2:	4643      	mov	r3, r8
 8000bb4:	4313      	orrs	r3, r2
 8000bb6:	4652      	mov	r2, sl
 8000bb8:	408a      	lsls	r2, r1
 8000bba:	4649      	mov	r1, r9
 8000bbc:	1a08      	subs	r0, r1, r0
 8000bbe:	4982      	ldr	r1, [pc, #520]	; (8000dc8 <__aeabi_dmul+0x3b0>)
 8000bc0:	4689      	mov	r9, r1
 8000bc2:	4481      	add	r9, r0
 8000bc4:	2000      	movs	r0, #0
 8000bc6:	e768      	b.n	8000a9a <__aeabi_dmul+0x82>
 8000bc8:	4b7b      	ldr	r3, [pc, #492]	; (8000db8 <__aeabi_dmul+0x3a0>)
 8000bca:	2700      	movs	r7, #0
 8000bcc:	2600      	movs	r6, #0
 8000bce:	e78e      	b.n	8000aee <__aeabi_dmul+0xd6>
 8000bd0:	0c14      	lsrs	r4, r2, #16
 8000bd2:	0412      	lsls	r2, r2, #16
 8000bd4:	0c12      	lsrs	r2, r2, #16
 8000bd6:	0011      	movs	r1, r2
 8000bd8:	0c37      	lsrs	r7, r6, #16
 8000bda:	0436      	lsls	r6, r6, #16
 8000bdc:	0c35      	lsrs	r5, r6, #16
 8000bde:	4379      	muls	r1, r7
 8000be0:	0028      	movs	r0, r5
 8000be2:	468c      	mov	ip, r1
 8000be4:	002e      	movs	r6, r5
 8000be6:	4360      	muls	r0, r4
 8000be8:	4460      	add	r0, ip
 8000bea:	4683      	mov	fp, r0
 8000bec:	4356      	muls	r6, r2
 8000bee:	0021      	movs	r1, r4
 8000bf0:	0c30      	lsrs	r0, r6, #16
 8000bf2:	4680      	mov	r8, r0
 8000bf4:	4658      	mov	r0, fp
 8000bf6:	4379      	muls	r1, r7
 8000bf8:	4440      	add	r0, r8
 8000bfa:	9102      	str	r1, [sp, #8]
 8000bfc:	4584      	cmp	ip, r0
 8000bfe:	d906      	bls.n	8000c0e <__aeabi_dmul+0x1f6>
 8000c00:	4688      	mov	r8, r1
 8000c02:	2180      	movs	r1, #128	; 0x80
 8000c04:	0249      	lsls	r1, r1, #9
 8000c06:	468c      	mov	ip, r1
 8000c08:	44e0      	add	r8, ip
 8000c0a:	4641      	mov	r1, r8
 8000c0c:	9102      	str	r1, [sp, #8]
 8000c0e:	0436      	lsls	r6, r6, #16
 8000c10:	0c01      	lsrs	r1, r0, #16
 8000c12:	0c36      	lsrs	r6, r6, #16
 8000c14:	0400      	lsls	r0, r0, #16
 8000c16:	468b      	mov	fp, r1
 8000c18:	1981      	adds	r1, r0, r6
 8000c1a:	0c1e      	lsrs	r6, r3, #16
 8000c1c:	041b      	lsls	r3, r3, #16
 8000c1e:	0c1b      	lsrs	r3, r3, #16
 8000c20:	9103      	str	r1, [sp, #12]
 8000c22:	0019      	movs	r1, r3
 8000c24:	4379      	muls	r1, r7
 8000c26:	468c      	mov	ip, r1
 8000c28:	0028      	movs	r0, r5
 8000c2a:	4375      	muls	r5, r6
 8000c2c:	4465      	add	r5, ip
 8000c2e:	46a8      	mov	r8, r5
 8000c30:	4358      	muls	r0, r3
 8000c32:	0c05      	lsrs	r5, r0, #16
 8000c34:	4445      	add	r5, r8
 8000c36:	4377      	muls	r7, r6
 8000c38:	42a9      	cmp	r1, r5
 8000c3a:	d903      	bls.n	8000c44 <__aeabi_dmul+0x22c>
 8000c3c:	2180      	movs	r1, #128	; 0x80
 8000c3e:	0249      	lsls	r1, r1, #9
 8000c40:	468c      	mov	ip, r1
 8000c42:	4467      	add	r7, ip
 8000c44:	0c29      	lsrs	r1, r5, #16
 8000c46:	468c      	mov	ip, r1
 8000c48:	0039      	movs	r1, r7
 8000c4a:	0400      	lsls	r0, r0, #16
 8000c4c:	0c00      	lsrs	r0, r0, #16
 8000c4e:	042d      	lsls	r5, r5, #16
 8000c50:	182d      	adds	r5, r5, r0
 8000c52:	4461      	add	r1, ip
 8000c54:	44ab      	add	fp, r5
 8000c56:	9105      	str	r1, [sp, #20]
 8000c58:	4659      	mov	r1, fp
 8000c5a:	9104      	str	r1, [sp, #16]
 8000c5c:	9901      	ldr	r1, [sp, #4]
 8000c5e:	040f      	lsls	r7, r1, #16
 8000c60:	0c3f      	lsrs	r7, r7, #16
 8000c62:	0c08      	lsrs	r0, r1, #16
 8000c64:	0039      	movs	r1, r7
 8000c66:	4351      	muls	r1, r2
 8000c68:	4342      	muls	r2, r0
 8000c6a:	4690      	mov	r8, r2
 8000c6c:	0002      	movs	r2, r0
 8000c6e:	468c      	mov	ip, r1
 8000c70:	0c09      	lsrs	r1, r1, #16
 8000c72:	468b      	mov	fp, r1
 8000c74:	4362      	muls	r2, r4
 8000c76:	437c      	muls	r4, r7
 8000c78:	4444      	add	r4, r8
 8000c7a:	445c      	add	r4, fp
 8000c7c:	45a0      	cmp	r8, r4
 8000c7e:	d903      	bls.n	8000c88 <__aeabi_dmul+0x270>
 8000c80:	2180      	movs	r1, #128	; 0x80
 8000c82:	0249      	lsls	r1, r1, #9
 8000c84:	4688      	mov	r8, r1
 8000c86:	4442      	add	r2, r8
 8000c88:	0c21      	lsrs	r1, r4, #16
 8000c8a:	4688      	mov	r8, r1
 8000c8c:	4661      	mov	r1, ip
 8000c8e:	0409      	lsls	r1, r1, #16
 8000c90:	0c09      	lsrs	r1, r1, #16
 8000c92:	468c      	mov	ip, r1
 8000c94:	0039      	movs	r1, r7
 8000c96:	4359      	muls	r1, r3
 8000c98:	4343      	muls	r3, r0
 8000c9a:	4370      	muls	r0, r6
 8000c9c:	437e      	muls	r6, r7
 8000c9e:	0c0f      	lsrs	r7, r1, #16
 8000ca0:	18f6      	adds	r6, r6, r3
 8000ca2:	0424      	lsls	r4, r4, #16
 8000ca4:	19be      	adds	r6, r7, r6
 8000ca6:	4464      	add	r4, ip
 8000ca8:	4442      	add	r2, r8
 8000caa:	468c      	mov	ip, r1
 8000cac:	42b3      	cmp	r3, r6
 8000cae:	d903      	bls.n	8000cb8 <__aeabi_dmul+0x2a0>
 8000cb0:	2380      	movs	r3, #128	; 0x80
 8000cb2:	025b      	lsls	r3, r3, #9
 8000cb4:	4698      	mov	r8, r3
 8000cb6:	4440      	add	r0, r8
 8000cb8:	9b02      	ldr	r3, [sp, #8]
 8000cba:	4661      	mov	r1, ip
 8000cbc:	4698      	mov	r8, r3
 8000cbe:	9b04      	ldr	r3, [sp, #16]
 8000cc0:	0437      	lsls	r7, r6, #16
 8000cc2:	4443      	add	r3, r8
 8000cc4:	469b      	mov	fp, r3
 8000cc6:	45ab      	cmp	fp, r5
 8000cc8:	41ad      	sbcs	r5, r5
 8000cca:	426b      	negs	r3, r5
 8000ccc:	040d      	lsls	r5, r1, #16
 8000cce:	9905      	ldr	r1, [sp, #20]
 8000cd0:	0c2d      	lsrs	r5, r5, #16
 8000cd2:	468c      	mov	ip, r1
 8000cd4:	197f      	adds	r7, r7, r5
 8000cd6:	4467      	add	r7, ip
 8000cd8:	18fd      	adds	r5, r7, r3
 8000cda:	46a8      	mov	r8, r5
 8000cdc:	465d      	mov	r5, fp
 8000cde:	192d      	adds	r5, r5, r4
 8000ce0:	42a5      	cmp	r5, r4
 8000ce2:	41a4      	sbcs	r4, r4
 8000ce4:	4693      	mov	fp, r2
 8000ce6:	4264      	negs	r4, r4
 8000ce8:	46a4      	mov	ip, r4
 8000cea:	44c3      	add	fp, r8
 8000cec:	44dc      	add	ip, fp
 8000cee:	428f      	cmp	r7, r1
 8000cf0:	41bf      	sbcs	r7, r7
 8000cf2:	4598      	cmp	r8, r3
 8000cf4:	419b      	sbcs	r3, r3
 8000cf6:	4593      	cmp	fp, r2
 8000cf8:	4192      	sbcs	r2, r2
 8000cfa:	45a4      	cmp	ip, r4
 8000cfc:	41a4      	sbcs	r4, r4
 8000cfe:	425b      	negs	r3, r3
 8000d00:	427f      	negs	r7, r7
 8000d02:	431f      	orrs	r7, r3
 8000d04:	0c36      	lsrs	r6, r6, #16
 8000d06:	4252      	negs	r2, r2
 8000d08:	4264      	negs	r4, r4
 8000d0a:	19bf      	adds	r7, r7, r6
 8000d0c:	4322      	orrs	r2, r4
 8000d0e:	18bf      	adds	r7, r7, r2
 8000d10:	4662      	mov	r2, ip
 8000d12:	1838      	adds	r0, r7, r0
 8000d14:	0243      	lsls	r3, r0, #9
 8000d16:	0dd2      	lsrs	r2, r2, #23
 8000d18:	9903      	ldr	r1, [sp, #12]
 8000d1a:	4313      	orrs	r3, r2
 8000d1c:	026a      	lsls	r2, r5, #9
 8000d1e:	430a      	orrs	r2, r1
 8000d20:	1e50      	subs	r0, r2, #1
 8000d22:	4182      	sbcs	r2, r0
 8000d24:	4661      	mov	r1, ip
 8000d26:	0ded      	lsrs	r5, r5, #23
 8000d28:	432a      	orrs	r2, r5
 8000d2a:	024e      	lsls	r6, r1, #9
 8000d2c:	4332      	orrs	r2, r6
 8000d2e:	01d9      	lsls	r1, r3, #7
 8000d30:	d400      	bmi.n	8000d34 <__aeabi_dmul+0x31c>
 8000d32:	e0b3      	b.n	8000e9c <__aeabi_dmul+0x484>
 8000d34:	2601      	movs	r6, #1
 8000d36:	0850      	lsrs	r0, r2, #1
 8000d38:	4032      	ands	r2, r6
 8000d3a:	4302      	orrs	r2, r0
 8000d3c:	07de      	lsls	r6, r3, #31
 8000d3e:	4332      	orrs	r2, r6
 8000d40:	085b      	lsrs	r3, r3, #1
 8000d42:	4c22      	ldr	r4, [pc, #136]	; (8000dcc <__aeabi_dmul+0x3b4>)
 8000d44:	4454      	add	r4, sl
 8000d46:	2c00      	cmp	r4, #0
 8000d48:	dd62      	ble.n	8000e10 <__aeabi_dmul+0x3f8>
 8000d4a:	0751      	lsls	r1, r2, #29
 8000d4c:	d009      	beq.n	8000d62 <__aeabi_dmul+0x34a>
 8000d4e:	200f      	movs	r0, #15
 8000d50:	4010      	ands	r0, r2
 8000d52:	2804      	cmp	r0, #4
 8000d54:	d005      	beq.n	8000d62 <__aeabi_dmul+0x34a>
 8000d56:	1d10      	adds	r0, r2, #4
 8000d58:	4290      	cmp	r0, r2
 8000d5a:	4192      	sbcs	r2, r2
 8000d5c:	4252      	negs	r2, r2
 8000d5e:	189b      	adds	r3, r3, r2
 8000d60:	0002      	movs	r2, r0
 8000d62:	01d9      	lsls	r1, r3, #7
 8000d64:	d504      	bpl.n	8000d70 <__aeabi_dmul+0x358>
 8000d66:	2480      	movs	r4, #128	; 0x80
 8000d68:	4819      	ldr	r0, [pc, #100]	; (8000dd0 <__aeabi_dmul+0x3b8>)
 8000d6a:	00e4      	lsls	r4, r4, #3
 8000d6c:	4003      	ands	r3, r0
 8000d6e:	4454      	add	r4, sl
 8000d70:	4818      	ldr	r0, [pc, #96]	; (8000dd4 <__aeabi_dmul+0x3bc>)
 8000d72:	4284      	cmp	r4, r0
 8000d74:	dd00      	ble.n	8000d78 <__aeabi_dmul+0x360>
 8000d76:	e727      	b.n	8000bc8 <__aeabi_dmul+0x1b0>
 8000d78:	075e      	lsls	r6, r3, #29
 8000d7a:	025b      	lsls	r3, r3, #9
 8000d7c:	08d2      	lsrs	r2, r2, #3
 8000d7e:	0b1f      	lsrs	r7, r3, #12
 8000d80:	0563      	lsls	r3, r4, #21
 8000d82:	4316      	orrs	r6, r2
 8000d84:	0d5b      	lsrs	r3, r3, #21
 8000d86:	e6b2      	b.n	8000aee <__aeabi_dmul+0xd6>
 8000d88:	2300      	movs	r3, #0
 8000d8a:	4699      	mov	r9, r3
 8000d8c:	3301      	adds	r3, #1
 8000d8e:	2704      	movs	r7, #4
 8000d90:	2600      	movs	r6, #0
 8000d92:	469b      	mov	fp, r3
 8000d94:	e664      	b.n	8000a60 <__aeabi_dmul+0x48>
 8000d96:	2303      	movs	r3, #3
 8000d98:	9701      	str	r7, [sp, #4]
 8000d9a:	4681      	mov	r9, r0
 8000d9c:	270c      	movs	r7, #12
 8000d9e:	469b      	mov	fp, r3
 8000da0:	e65e      	b.n	8000a60 <__aeabi_dmul+0x48>
 8000da2:	2201      	movs	r2, #1
 8000da4:	2001      	movs	r0, #1
 8000da6:	4317      	orrs	r7, r2
 8000da8:	2200      	movs	r2, #0
 8000daa:	e676      	b.n	8000a9a <__aeabi_dmul+0x82>
 8000dac:	2303      	movs	r3, #3
 8000dae:	2003      	movs	r0, #3
 8000db0:	431f      	orrs	r7, r3
 8000db2:	4643      	mov	r3, r8
 8000db4:	e671      	b.n	8000a9a <__aeabi_dmul+0x82>
 8000db6:	46c0      	nop			; (mov r8, r8)
 8000db8:	000007ff 	.word	0x000007ff
 8000dbc:	fffffc01 	.word	0xfffffc01
 8000dc0:	08005b50 	.word	0x08005b50
 8000dc4:	800fffff 	.word	0x800fffff
 8000dc8:	fffffc0d 	.word	0xfffffc0d
 8000dcc:	000003ff 	.word	0x000003ff
 8000dd0:	feffffff 	.word	0xfeffffff
 8000dd4:	000007fe 	.word	0x000007fe
 8000dd8:	2300      	movs	r3, #0
 8000dda:	2780      	movs	r7, #128	; 0x80
 8000ddc:	9300      	str	r3, [sp, #0]
 8000dde:	033f      	lsls	r7, r7, #12
 8000de0:	2600      	movs	r6, #0
 8000de2:	4b43      	ldr	r3, [pc, #268]	; (8000ef0 <__aeabi_dmul+0x4d8>)
 8000de4:	e683      	b.n	8000aee <__aeabi_dmul+0xd6>
 8000de6:	9b01      	ldr	r3, [sp, #4]
 8000de8:	0032      	movs	r2, r6
 8000dea:	46a4      	mov	ip, r4
 8000dec:	4658      	mov	r0, fp
 8000dee:	e670      	b.n	8000ad2 <__aeabi_dmul+0xba>
 8000df0:	46ac      	mov	ip, r5
 8000df2:	e66e      	b.n	8000ad2 <__aeabi_dmul+0xba>
 8000df4:	2780      	movs	r7, #128	; 0x80
 8000df6:	9901      	ldr	r1, [sp, #4]
 8000df8:	033f      	lsls	r7, r7, #12
 8000dfa:	4239      	tst	r1, r7
 8000dfc:	d02d      	beq.n	8000e5a <__aeabi_dmul+0x442>
 8000dfe:	423b      	tst	r3, r7
 8000e00:	d12b      	bne.n	8000e5a <__aeabi_dmul+0x442>
 8000e02:	431f      	orrs	r7, r3
 8000e04:	033f      	lsls	r7, r7, #12
 8000e06:	0b3f      	lsrs	r7, r7, #12
 8000e08:	9500      	str	r5, [sp, #0]
 8000e0a:	0016      	movs	r6, r2
 8000e0c:	4b38      	ldr	r3, [pc, #224]	; (8000ef0 <__aeabi_dmul+0x4d8>)
 8000e0e:	e66e      	b.n	8000aee <__aeabi_dmul+0xd6>
 8000e10:	2501      	movs	r5, #1
 8000e12:	1b2d      	subs	r5, r5, r4
 8000e14:	2d38      	cmp	r5, #56	; 0x38
 8000e16:	dd00      	ble.n	8000e1a <__aeabi_dmul+0x402>
 8000e18:	e666      	b.n	8000ae8 <__aeabi_dmul+0xd0>
 8000e1a:	2d1f      	cmp	r5, #31
 8000e1c:	dc40      	bgt.n	8000ea0 <__aeabi_dmul+0x488>
 8000e1e:	4835      	ldr	r0, [pc, #212]	; (8000ef4 <__aeabi_dmul+0x4dc>)
 8000e20:	001c      	movs	r4, r3
 8000e22:	4450      	add	r0, sl
 8000e24:	0016      	movs	r6, r2
 8000e26:	4082      	lsls	r2, r0
 8000e28:	4084      	lsls	r4, r0
 8000e2a:	40ee      	lsrs	r6, r5
 8000e2c:	1e50      	subs	r0, r2, #1
 8000e2e:	4182      	sbcs	r2, r0
 8000e30:	4334      	orrs	r4, r6
 8000e32:	4314      	orrs	r4, r2
 8000e34:	40eb      	lsrs	r3, r5
 8000e36:	0762      	lsls	r2, r4, #29
 8000e38:	d009      	beq.n	8000e4e <__aeabi_dmul+0x436>
 8000e3a:	220f      	movs	r2, #15
 8000e3c:	4022      	ands	r2, r4
 8000e3e:	2a04      	cmp	r2, #4
 8000e40:	d005      	beq.n	8000e4e <__aeabi_dmul+0x436>
 8000e42:	0022      	movs	r2, r4
 8000e44:	1d14      	adds	r4, r2, #4
 8000e46:	4294      	cmp	r4, r2
 8000e48:	4180      	sbcs	r0, r0
 8000e4a:	4240      	negs	r0, r0
 8000e4c:	181b      	adds	r3, r3, r0
 8000e4e:	021a      	lsls	r2, r3, #8
 8000e50:	d53e      	bpl.n	8000ed0 <__aeabi_dmul+0x4b8>
 8000e52:	2301      	movs	r3, #1
 8000e54:	2700      	movs	r7, #0
 8000e56:	2600      	movs	r6, #0
 8000e58:	e649      	b.n	8000aee <__aeabi_dmul+0xd6>
 8000e5a:	2780      	movs	r7, #128	; 0x80
 8000e5c:	9b01      	ldr	r3, [sp, #4]
 8000e5e:	033f      	lsls	r7, r7, #12
 8000e60:	431f      	orrs	r7, r3
 8000e62:	033f      	lsls	r7, r7, #12
 8000e64:	0b3f      	lsrs	r7, r7, #12
 8000e66:	9400      	str	r4, [sp, #0]
 8000e68:	4b21      	ldr	r3, [pc, #132]	; (8000ef0 <__aeabi_dmul+0x4d8>)
 8000e6a:	e640      	b.n	8000aee <__aeabi_dmul+0xd6>
 8000e6c:	0003      	movs	r3, r0
 8000e6e:	465a      	mov	r2, fp
 8000e70:	3b28      	subs	r3, #40	; 0x28
 8000e72:	409a      	lsls	r2, r3
 8000e74:	2600      	movs	r6, #0
 8000e76:	9201      	str	r2, [sp, #4]
 8000e78:	e66d      	b.n	8000b56 <__aeabi_dmul+0x13e>
 8000e7a:	4658      	mov	r0, fp
 8000e7c:	f000 fc0e 	bl	800169c <__clzsi2>
 8000e80:	3020      	adds	r0, #32
 8000e82:	e657      	b.n	8000b34 <__aeabi_dmul+0x11c>
 8000e84:	0003      	movs	r3, r0
 8000e86:	4652      	mov	r2, sl
 8000e88:	3b28      	subs	r3, #40	; 0x28
 8000e8a:	409a      	lsls	r2, r3
 8000e8c:	0013      	movs	r3, r2
 8000e8e:	2200      	movs	r2, #0
 8000e90:	e693      	b.n	8000bba <__aeabi_dmul+0x1a2>
 8000e92:	4650      	mov	r0, sl
 8000e94:	f000 fc02 	bl	800169c <__clzsi2>
 8000e98:	3020      	adds	r0, #32
 8000e9a:	e67b      	b.n	8000b94 <__aeabi_dmul+0x17c>
 8000e9c:	46ca      	mov	sl, r9
 8000e9e:	e750      	b.n	8000d42 <__aeabi_dmul+0x32a>
 8000ea0:	201f      	movs	r0, #31
 8000ea2:	001e      	movs	r6, r3
 8000ea4:	4240      	negs	r0, r0
 8000ea6:	1b04      	subs	r4, r0, r4
 8000ea8:	40e6      	lsrs	r6, r4
 8000eaa:	2d20      	cmp	r5, #32
 8000eac:	d003      	beq.n	8000eb6 <__aeabi_dmul+0x49e>
 8000eae:	4c12      	ldr	r4, [pc, #72]	; (8000ef8 <__aeabi_dmul+0x4e0>)
 8000eb0:	4454      	add	r4, sl
 8000eb2:	40a3      	lsls	r3, r4
 8000eb4:	431a      	orrs	r2, r3
 8000eb6:	1e50      	subs	r0, r2, #1
 8000eb8:	4182      	sbcs	r2, r0
 8000eba:	4332      	orrs	r2, r6
 8000ebc:	2607      	movs	r6, #7
 8000ebe:	2700      	movs	r7, #0
 8000ec0:	4016      	ands	r6, r2
 8000ec2:	d009      	beq.n	8000ed8 <__aeabi_dmul+0x4c0>
 8000ec4:	200f      	movs	r0, #15
 8000ec6:	2300      	movs	r3, #0
 8000ec8:	4010      	ands	r0, r2
 8000eca:	0014      	movs	r4, r2
 8000ecc:	2804      	cmp	r0, #4
 8000ece:	d1b9      	bne.n	8000e44 <__aeabi_dmul+0x42c>
 8000ed0:	0022      	movs	r2, r4
 8000ed2:	075e      	lsls	r6, r3, #29
 8000ed4:	025b      	lsls	r3, r3, #9
 8000ed6:	0b1f      	lsrs	r7, r3, #12
 8000ed8:	08d2      	lsrs	r2, r2, #3
 8000eda:	4316      	orrs	r6, r2
 8000edc:	2300      	movs	r3, #0
 8000ede:	e606      	b.n	8000aee <__aeabi_dmul+0xd6>
 8000ee0:	2780      	movs	r7, #128	; 0x80
 8000ee2:	033f      	lsls	r7, r7, #12
 8000ee4:	431f      	orrs	r7, r3
 8000ee6:	033f      	lsls	r7, r7, #12
 8000ee8:	0b3f      	lsrs	r7, r7, #12
 8000eea:	0016      	movs	r6, r2
 8000eec:	4b00      	ldr	r3, [pc, #0]	; (8000ef0 <__aeabi_dmul+0x4d8>)
 8000eee:	e5fe      	b.n	8000aee <__aeabi_dmul+0xd6>
 8000ef0:	000007ff 	.word	0x000007ff
 8000ef4:	0000041e 	.word	0x0000041e
 8000ef8:	0000043e 	.word	0x0000043e

08000efc <__aeabi_dsub>:
 8000efc:	b5f8      	push	{r3, r4, r5, r6, r7, lr}
 8000efe:	4657      	mov	r7, sl
 8000f00:	464e      	mov	r6, r9
 8000f02:	4645      	mov	r5, r8
 8000f04:	46de      	mov	lr, fp
 8000f06:	000c      	movs	r4, r1
 8000f08:	0309      	lsls	r1, r1, #12
 8000f0a:	b5e0      	push	{r5, r6, r7, lr}
 8000f0c:	0a49      	lsrs	r1, r1, #9
 8000f0e:	0f46      	lsrs	r6, r0, #29
 8000f10:	005f      	lsls	r7, r3, #1
 8000f12:	4331      	orrs	r1, r6
 8000f14:	031e      	lsls	r6, r3, #12
 8000f16:	0fdb      	lsrs	r3, r3, #31
 8000f18:	0a76      	lsrs	r6, r6, #9
 8000f1a:	469b      	mov	fp, r3
 8000f1c:	0f53      	lsrs	r3, r2, #29
 8000f1e:	4333      	orrs	r3, r6
 8000f20:	4ec8      	ldr	r6, [pc, #800]	; (8001244 <__aeabi_dsub+0x348>)
 8000f22:	0065      	lsls	r5, r4, #1
 8000f24:	00c0      	lsls	r0, r0, #3
 8000f26:	0fe4      	lsrs	r4, r4, #31
 8000f28:	00d2      	lsls	r2, r2, #3
 8000f2a:	0d6d      	lsrs	r5, r5, #21
 8000f2c:	46a2      	mov	sl, r4
 8000f2e:	4681      	mov	r9, r0
 8000f30:	0d7f      	lsrs	r7, r7, #21
 8000f32:	469c      	mov	ip, r3
 8000f34:	4690      	mov	r8, r2
 8000f36:	42b7      	cmp	r7, r6
 8000f38:	d100      	bne.n	8000f3c <__aeabi_dsub+0x40>
 8000f3a:	e0b9      	b.n	80010b0 <__aeabi_dsub+0x1b4>
 8000f3c:	465b      	mov	r3, fp
 8000f3e:	2601      	movs	r6, #1
 8000f40:	4073      	eors	r3, r6
 8000f42:	469b      	mov	fp, r3
 8000f44:	1bee      	subs	r6, r5, r7
 8000f46:	45a3      	cmp	fp, r4
 8000f48:	d100      	bne.n	8000f4c <__aeabi_dsub+0x50>
 8000f4a:	e083      	b.n	8001054 <__aeabi_dsub+0x158>
 8000f4c:	2e00      	cmp	r6, #0
 8000f4e:	dd63      	ble.n	8001018 <__aeabi_dsub+0x11c>
 8000f50:	2f00      	cmp	r7, #0
 8000f52:	d000      	beq.n	8000f56 <__aeabi_dsub+0x5a>
 8000f54:	e0b1      	b.n	80010ba <__aeabi_dsub+0x1be>
 8000f56:	4663      	mov	r3, ip
 8000f58:	4313      	orrs	r3, r2
 8000f5a:	d100      	bne.n	8000f5e <__aeabi_dsub+0x62>
 8000f5c:	e123      	b.n	80011a6 <__aeabi_dsub+0x2aa>
 8000f5e:	1e73      	subs	r3, r6, #1
 8000f60:	2b00      	cmp	r3, #0
 8000f62:	d000      	beq.n	8000f66 <__aeabi_dsub+0x6a>
 8000f64:	e1ba      	b.n	80012dc <__aeabi_dsub+0x3e0>
 8000f66:	1a86      	subs	r6, r0, r2
 8000f68:	4663      	mov	r3, ip
 8000f6a:	42b0      	cmp	r0, r6
 8000f6c:	4180      	sbcs	r0, r0
 8000f6e:	2501      	movs	r5, #1
 8000f70:	1ac9      	subs	r1, r1, r3
 8000f72:	4240      	negs	r0, r0
 8000f74:	1a09      	subs	r1, r1, r0
 8000f76:	020b      	lsls	r3, r1, #8
 8000f78:	d400      	bmi.n	8000f7c <__aeabi_dsub+0x80>
 8000f7a:	e147      	b.n	800120c <__aeabi_dsub+0x310>
 8000f7c:	0249      	lsls	r1, r1, #9
 8000f7e:	0a4b      	lsrs	r3, r1, #9
 8000f80:	4698      	mov	r8, r3
 8000f82:	4643      	mov	r3, r8
 8000f84:	2b00      	cmp	r3, #0
 8000f86:	d100      	bne.n	8000f8a <__aeabi_dsub+0x8e>
 8000f88:	e189      	b.n	800129e <__aeabi_dsub+0x3a2>
 8000f8a:	4640      	mov	r0, r8
 8000f8c:	f000 fb86 	bl	800169c <__clzsi2>
 8000f90:	0003      	movs	r3, r0
 8000f92:	3b08      	subs	r3, #8
 8000f94:	2b1f      	cmp	r3, #31
 8000f96:	dd00      	ble.n	8000f9a <__aeabi_dsub+0x9e>
 8000f98:	e17c      	b.n	8001294 <__aeabi_dsub+0x398>
 8000f9a:	2220      	movs	r2, #32
 8000f9c:	0030      	movs	r0, r6
 8000f9e:	1ad2      	subs	r2, r2, r3
 8000fa0:	4641      	mov	r1, r8
 8000fa2:	40d0      	lsrs	r0, r2
 8000fa4:	4099      	lsls	r1, r3
 8000fa6:	0002      	movs	r2, r0
 8000fa8:	409e      	lsls	r6, r3
 8000faa:	430a      	orrs	r2, r1
 8000fac:	429d      	cmp	r5, r3
 8000fae:	dd00      	ble.n	8000fb2 <__aeabi_dsub+0xb6>
 8000fb0:	e16a      	b.n	8001288 <__aeabi_dsub+0x38c>
 8000fb2:	1b5d      	subs	r5, r3, r5
 8000fb4:	1c6b      	adds	r3, r5, #1
 8000fb6:	2b1f      	cmp	r3, #31
 8000fb8:	dd00      	ble.n	8000fbc <__aeabi_dsub+0xc0>
 8000fba:	e194      	b.n	80012e6 <__aeabi_dsub+0x3ea>
 8000fbc:	2120      	movs	r1, #32
 8000fbe:	0010      	movs	r0, r2
 8000fc0:	0035      	movs	r5, r6
 8000fc2:	1ac9      	subs	r1, r1, r3
 8000fc4:	408e      	lsls	r6, r1
 8000fc6:	40da      	lsrs	r2, r3
 8000fc8:	4088      	lsls	r0, r1
 8000fca:	40dd      	lsrs	r5, r3
 8000fcc:	1e71      	subs	r1, r6, #1
 8000fce:	418e      	sbcs	r6, r1
 8000fd0:	0011      	movs	r1, r2
 8000fd2:	2207      	movs	r2, #7
 8000fd4:	4328      	orrs	r0, r5
 8000fd6:	2500      	movs	r5, #0
 8000fd8:	4306      	orrs	r6, r0
 8000fda:	4032      	ands	r2, r6
 8000fdc:	2a00      	cmp	r2, #0
 8000fde:	d009      	beq.n	8000ff4 <__aeabi_dsub+0xf8>
 8000fe0:	230f      	movs	r3, #15
 8000fe2:	4033      	ands	r3, r6
 8000fe4:	2b04      	cmp	r3, #4
 8000fe6:	d005      	beq.n	8000ff4 <__aeabi_dsub+0xf8>
 8000fe8:	1d33      	adds	r3, r6, #4
 8000fea:	42b3      	cmp	r3, r6
 8000fec:	41b6      	sbcs	r6, r6
 8000fee:	4276      	negs	r6, r6
 8000ff0:	1989      	adds	r1, r1, r6
 8000ff2:	001e      	movs	r6, r3
 8000ff4:	020b      	lsls	r3, r1, #8
 8000ff6:	d400      	bmi.n	8000ffa <__aeabi_dsub+0xfe>
 8000ff8:	e23d      	b.n	8001476 <__aeabi_dsub+0x57a>
 8000ffa:	1c6a      	adds	r2, r5, #1
 8000ffc:	4b91      	ldr	r3, [pc, #580]	; (8001244 <__aeabi_dsub+0x348>)
 8000ffe:	0555      	lsls	r5, r2, #21
 8001000:	0d6d      	lsrs	r5, r5, #21
 8001002:	429a      	cmp	r2, r3
 8001004:	d100      	bne.n	8001008 <__aeabi_dsub+0x10c>
 8001006:	e119      	b.n	800123c <__aeabi_dsub+0x340>
 8001008:	4a8f      	ldr	r2, [pc, #572]	; (8001248 <__aeabi_dsub+0x34c>)
 800100a:	08f6      	lsrs	r6, r6, #3
 800100c:	400a      	ands	r2, r1
 800100e:	0757      	lsls	r7, r2, #29
 8001010:	0252      	lsls	r2, r2, #9
 8001012:	4337      	orrs	r7, r6
 8001014:	0b12      	lsrs	r2, r2, #12
 8001016:	e09b      	b.n	8001150 <__aeabi_dsub+0x254>
 8001018:	2e00      	cmp	r6, #0
 800101a:	d000      	beq.n	800101e <__aeabi_dsub+0x122>
 800101c:	e0c5      	b.n	80011aa <__aeabi_dsub+0x2ae>
 800101e:	1c6e      	adds	r6, r5, #1
 8001020:	0576      	lsls	r6, r6, #21
 8001022:	0d76      	lsrs	r6, r6, #21
 8001024:	2e01      	cmp	r6, #1
 8001026:	dc00      	bgt.n	800102a <__aeabi_dsub+0x12e>
 8001028:	e148      	b.n	80012bc <__aeabi_dsub+0x3c0>
 800102a:	4667      	mov	r7, ip
 800102c:	1a86      	subs	r6, r0, r2
 800102e:	1bcb      	subs	r3, r1, r7
 8001030:	42b0      	cmp	r0, r6
 8001032:	41bf      	sbcs	r7, r7
 8001034:	427f      	negs	r7, r7
 8001036:	46b8      	mov	r8, r7
 8001038:	001f      	movs	r7, r3
 800103a:	4643      	mov	r3, r8
 800103c:	1aff      	subs	r7, r7, r3
 800103e:	003b      	movs	r3, r7
 8001040:	46b8      	mov	r8, r7
 8001042:	021b      	lsls	r3, r3, #8
 8001044:	d500      	bpl.n	8001048 <__aeabi_dsub+0x14c>
 8001046:	e15f      	b.n	8001308 <__aeabi_dsub+0x40c>
 8001048:	4337      	orrs	r7, r6
 800104a:	d19a      	bne.n	8000f82 <__aeabi_dsub+0x86>
 800104c:	2200      	movs	r2, #0
 800104e:	2400      	movs	r4, #0
 8001050:	2500      	movs	r5, #0
 8001052:	e079      	b.n	8001148 <__aeabi_dsub+0x24c>
 8001054:	2e00      	cmp	r6, #0
 8001056:	dc00      	bgt.n	800105a <__aeabi_dsub+0x15e>
 8001058:	e0fa      	b.n	8001250 <__aeabi_dsub+0x354>
 800105a:	2f00      	cmp	r7, #0
 800105c:	d100      	bne.n	8001060 <__aeabi_dsub+0x164>
 800105e:	e08d      	b.n	800117c <__aeabi_dsub+0x280>
 8001060:	4b78      	ldr	r3, [pc, #480]	; (8001244 <__aeabi_dsub+0x348>)
 8001062:	429d      	cmp	r5, r3
 8001064:	d067      	beq.n	8001136 <__aeabi_dsub+0x23a>
 8001066:	2380      	movs	r3, #128	; 0x80
 8001068:	4667      	mov	r7, ip
 800106a:	041b      	lsls	r3, r3, #16
 800106c:	431f      	orrs	r7, r3
 800106e:	46bc      	mov	ip, r7
 8001070:	2e38      	cmp	r6, #56	; 0x38
 8001072:	dc00      	bgt.n	8001076 <__aeabi_dsub+0x17a>
 8001074:	e152      	b.n	800131c <__aeabi_dsub+0x420>
 8001076:	4663      	mov	r3, ip
 8001078:	4313      	orrs	r3, r2
 800107a:	1e5a      	subs	r2, r3, #1
 800107c:	4193      	sbcs	r3, r2
 800107e:	181e      	adds	r6, r3, r0
 8001080:	4286      	cmp	r6, r0
 8001082:	4180      	sbcs	r0, r0
 8001084:	4240      	negs	r0, r0
 8001086:	1809      	adds	r1, r1, r0
 8001088:	020b      	lsls	r3, r1, #8
 800108a:	d400      	bmi.n	800108e <__aeabi_dsub+0x192>
 800108c:	e0be      	b.n	800120c <__aeabi_dsub+0x310>
 800108e:	4b6d      	ldr	r3, [pc, #436]	; (8001244 <__aeabi_dsub+0x348>)
 8001090:	3501      	adds	r5, #1
 8001092:	429d      	cmp	r5, r3
 8001094:	d100      	bne.n	8001098 <__aeabi_dsub+0x19c>
 8001096:	e0d2      	b.n	800123e <__aeabi_dsub+0x342>
 8001098:	4a6b      	ldr	r2, [pc, #428]	; (8001248 <__aeabi_dsub+0x34c>)
 800109a:	0873      	lsrs	r3, r6, #1
 800109c:	400a      	ands	r2, r1
 800109e:	2101      	movs	r1, #1
 80010a0:	400e      	ands	r6, r1
 80010a2:	431e      	orrs	r6, r3
 80010a4:	0851      	lsrs	r1, r2, #1
 80010a6:	07d3      	lsls	r3, r2, #31
 80010a8:	2207      	movs	r2, #7
 80010aa:	431e      	orrs	r6, r3
 80010ac:	4032      	ands	r2, r6
 80010ae:	e795      	b.n	8000fdc <__aeabi_dsub+0xe0>
 80010b0:	001e      	movs	r6, r3
 80010b2:	4316      	orrs	r6, r2
 80010b4:	d000      	beq.n	80010b8 <__aeabi_dsub+0x1bc>
 80010b6:	e745      	b.n	8000f44 <__aeabi_dsub+0x48>
 80010b8:	e740      	b.n	8000f3c <__aeabi_dsub+0x40>
 80010ba:	4b62      	ldr	r3, [pc, #392]	; (8001244 <__aeabi_dsub+0x348>)
 80010bc:	429d      	cmp	r5, r3
 80010be:	d03a      	beq.n	8001136 <__aeabi_dsub+0x23a>
 80010c0:	2380      	movs	r3, #128	; 0x80
 80010c2:	4667      	mov	r7, ip
 80010c4:	041b      	lsls	r3, r3, #16
 80010c6:	431f      	orrs	r7, r3
 80010c8:	46bc      	mov	ip, r7
 80010ca:	2e38      	cmp	r6, #56	; 0x38
 80010cc:	dd00      	ble.n	80010d0 <__aeabi_dsub+0x1d4>
 80010ce:	e0eb      	b.n	80012a8 <__aeabi_dsub+0x3ac>
 80010d0:	2e1f      	cmp	r6, #31
 80010d2:	dc00      	bgt.n	80010d6 <__aeabi_dsub+0x1da>
 80010d4:	e13a      	b.n	800134c <__aeabi_dsub+0x450>
 80010d6:	0033      	movs	r3, r6
 80010d8:	4667      	mov	r7, ip
 80010da:	3b20      	subs	r3, #32
 80010dc:	40df      	lsrs	r7, r3
 80010de:	003b      	movs	r3, r7
 80010e0:	2e20      	cmp	r6, #32
 80010e2:	d005      	beq.n	80010f0 <__aeabi_dsub+0x1f4>
 80010e4:	2740      	movs	r7, #64	; 0x40
 80010e6:	1bbf      	subs	r7, r7, r6
 80010e8:	4666      	mov	r6, ip
 80010ea:	40be      	lsls	r6, r7
 80010ec:	4332      	orrs	r2, r6
 80010ee:	4690      	mov	r8, r2
 80010f0:	4646      	mov	r6, r8
 80010f2:	1e72      	subs	r2, r6, #1
 80010f4:	4196      	sbcs	r6, r2
 80010f6:	4333      	orrs	r3, r6
 80010f8:	e0da      	b.n	80012b0 <__aeabi_dsub+0x3b4>
 80010fa:	2b00      	cmp	r3, #0
 80010fc:	d100      	bne.n	8001100 <__aeabi_dsub+0x204>
 80010fe:	e214      	b.n	800152a <__aeabi_dsub+0x62e>
 8001100:	4663      	mov	r3, ip
 8001102:	4313      	orrs	r3, r2
 8001104:	d100      	bne.n	8001108 <__aeabi_dsub+0x20c>
 8001106:	e168      	b.n	80013da <__aeabi_dsub+0x4de>
 8001108:	2380      	movs	r3, #128	; 0x80
 800110a:	074e      	lsls	r6, r1, #29
 800110c:	08c0      	lsrs	r0, r0, #3
 800110e:	08c9      	lsrs	r1, r1, #3
 8001110:	031b      	lsls	r3, r3, #12
 8001112:	4306      	orrs	r6, r0
 8001114:	4219      	tst	r1, r3
 8001116:	d008      	beq.n	800112a <__aeabi_dsub+0x22e>
 8001118:	4660      	mov	r0, ip
 800111a:	08c0      	lsrs	r0, r0, #3
 800111c:	4218      	tst	r0, r3
 800111e:	d104      	bne.n	800112a <__aeabi_dsub+0x22e>
 8001120:	4663      	mov	r3, ip
 8001122:	0001      	movs	r1, r0
 8001124:	08d2      	lsrs	r2, r2, #3
 8001126:	075e      	lsls	r6, r3, #29
 8001128:	4316      	orrs	r6, r2
 800112a:	00f3      	lsls	r3, r6, #3
 800112c:	4699      	mov	r9, r3
 800112e:	00c9      	lsls	r1, r1, #3
 8001130:	0f72      	lsrs	r2, r6, #29
 8001132:	4d44      	ldr	r5, [pc, #272]	; (8001244 <__aeabi_dsub+0x348>)
 8001134:	4311      	orrs	r1, r2
 8001136:	464b      	mov	r3, r9
 8001138:	08de      	lsrs	r6, r3, #3
 800113a:	4b42      	ldr	r3, [pc, #264]	; (8001244 <__aeabi_dsub+0x348>)
 800113c:	074f      	lsls	r7, r1, #29
 800113e:	4337      	orrs	r7, r6
 8001140:	08ca      	lsrs	r2, r1, #3
 8001142:	429d      	cmp	r5, r3
 8001144:	d100      	bne.n	8001148 <__aeabi_dsub+0x24c>
 8001146:	e06e      	b.n	8001226 <__aeabi_dsub+0x32a>
 8001148:	0312      	lsls	r2, r2, #12
 800114a:	056d      	lsls	r5, r5, #21
 800114c:	0b12      	lsrs	r2, r2, #12
 800114e:	0d6d      	lsrs	r5, r5, #21
 8001150:	2100      	movs	r1, #0
 8001152:	0312      	lsls	r2, r2, #12
 8001154:	0b13      	lsrs	r3, r2, #12
 8001156:	0d0a      	lsrs	r2, r1, #20
 8001158:	0512      	lsls	r2, r2, #20
 800115a:	431a      	orrs	r2, r3
 800115c:	4b3b      	ldr	r3, [pc, #236]	; (800124c <__aeabi_dsub+0x350>)
 800115e:	052d      	lsls	r5, r5, #20
 8001160:	4013      	ands	r3, r2
 8001162:	432b      	orrs	r3, r5
 8001164:	005b      	lsls	r3, r3, #1
 8001166:	07e4      	lsls	r4, r4, #31
 8001168:	085b      	lsrs	r3, r3, #1
 800116a:	4323      	orrs	r3, r4
 800116c:	0038      	movs	r0, r7
 800116e:	0019      	movs	r1, r3
 8001170:	bc3c      	pop	{r2, r3, r4, r5}
 8001172:	4690      	mov	r8, r2
 8001174:	4699      	mov	r9, r3
 8001176:	46a2      	mov	sl, r4
 8001178:	46ab      	mov	fp, r5
 800117a:	bdf8      	pop	{r3, r4, r5, r6, r7, pc}
 800117c:	4663      	mov	r3, ip
 800117e:	4313      	orrs	r3, r2
 8001180:	d011      	beq.n	80011a6 <__aeabi_dsub+0x2aa>
 8001182:	1e73      	subs	r3, r6, #1
 8001184:	2b00      	cmp	r3, #0
 8001186:	d000      	beq.n	800118a <__aeabi_dsub+0x28e>
 8001188:	e107      	b.n	800139a <__aeabi_dsub+0x49e>
 800118a:	1886      	adds	r6, r0, r2
 800118c:	4286      	cmp	r6, r0
 800118e:	4180      	sbcs	r0, r0
 8001190:	4461      	add	r1, ip
 8001192:	4240      	negs	r0, r0
 8001194:	1809      	adds	r1, r1, r0
 8001196:	2501      	movs	r5, #1
 8001198:	020b      	lsls	r3, r1, #8
 800119a:	d537      	bpl.n	800120c <__aeabi_dsub+0x310>
 800119c:	2502      	movs	r5, #2
 800119e:	e77b      	b.n	8001098 <__aeabi_dsub+0x19c>
 80011a0:	003e      	movs	r6, r7
 80011a2:	4661      	mov	r1, ip
 80011a4:	4691      	mov	r9, r2
 80011a6:	0035      	movs	r5, r6
 80011a8:	e7c5      	b.n	8001136 <__aeabi_dsub+0x23a>
 80011aa:	465c      	mov	r4, fp
 80011ac:	2d00      	cmp	r5, #0
 80011ae:	d000      	beq.n	80011b2 <__aeabi_dsub+0x2b6>
 80011b0:	e0e1      	b.n	8001376 <__aeabi_dsub+0x47a>
 80011b2:	000b      	movs	r3, r1
 80011b4:	4303      	orrs	r3, r0
 80011b6:	d0f3      	beq.n	80011a0 <__aeabi_dsub+0x2a4>
 80011b8:	1c73      	adds	r3, r6, #1
 80011ba:	d100      	bne.n	80011be <__aeabi_dsub+0x2c2>
 80011bc:	e1ac      	b.n	8001518 <__aeabi_dsub+0x61c>
 80011be:	4b21      	ldr	r3, [pc, #132]	; (8001244 <__aeabi_dsub+0x348>)
 80011c0:	429f      	cmp	r7, r3
 80011c2:	d100      	bne.n	80011c6 <__aeabi_dsub+0x2ca>
 80011c4:	e13a      	b.n	800143c <__aeabi_dsub+0x540>
 80011c6:	43f3      	mvns	r3, r6
 80011c8:	2b38      	cmp	r3, #56	; 0x38
 80011ca:	dd00      	ble.n	80011ce <__aeabi_dsub+0x2d2>
 80011cc:	e16f      	b.n	80014ae <__aeabi_dsub+0x5b2>
 80011ce:	2b1f      	cmp	r3, #31
 80011d0:	dd00      	ble.n	80011d4 <__aeabi_dsub+0x2d8>
 80011d2:	e18c      	b.n	80014ee <__aeabi_dsub+0x5f2>
 80011d4:	2520      	movs	r5, #32
 80011d6:	000e      	movs	r6, r1
 80011d8:	1aed      	subs	r5, r5, r3
 80011da:	40ae      	lsls	r6, r5
 80011dc:	46b0      	mov	r8, r6
 80011de:	0006      	movs	r6, r0
 80011e0:	46aa      	mov	sl, r5
 80011e2:	40de      	lsrs	r6, r3
 80011e4:	4645      	mov	r5, r8
 80011e6:	4335      	orrs	r5, r6
 80011e8:	002e      	movs	r6, r5
 80011ea:	4655      	mov	r5, sl
 80011ec:	40d9      	lsrs	r1, r3
 80011ee:	40a8      	lsls	r0, r5
 80011f0:	4663      	mov	r3, ip
 80011f2:	1e45      	subs	r5, r0, #1
 80011f4:	41a8      	sbcs	r0, r5
 80011f6:	1a5b      	subs	r3, r3, r1
 80011f8:	469c      	mov	ip, r3
 80011fa:	4330      	orrs	r0, r6
 80011fc:	1a16      	subs	r6, r2, r0
 80011fe:	42b2      	cmp	r2, r6
 8001200:	4192      	sbcs	r2, r2
 8001202:	4663      	mov	r3, ip
 8001204:	4252      	negs	r2, r2
 8001206:	1a99      	subs	r1, r3, r2
 8001208:	003d      	movs	r5, r7
 800120a:	e6b4      	b.n	8000f76 <__aeabi_dsub+0x7a>
 800120c:	2207      	movs	r2, #7
 800120e:	4032      	ands	r2, r6
 8001210:	2a00      	cmp	r2, #0
 8001212:	d000      	beq.n	8001216 <__aeabi_dsub+0x31a>
 8001214:	e6e4      	b.n	8000fe0 <__aeabi_dsub+0xe4>
 8001216:	4b0b      	ldr	r3, [pc, #44]	; (8001244 <__aeabi_dsub+0x348>)
 8001218:	08f6      	lsrs	r6, r6, #3
 800121a:	074f      	lsls	r7, r1, #29
 800121c:	4337      	orrs	r7, r6
 800121e:	08ca      	lsrs	r2, r1, #3
 8001220:	429d      	cmp	r5, r3
 8001222:	d000      	beq.n	8001226 <__aeabi_dsub+0x32a>
 8001224:	e790      	b.n	8001148 <__aeabi_dsub+0x24c>
 8001226:	003b      	movs	r3, r7
 8001228:	4313      	orrs	r3, r2
 800122a:	d100      	bne.n	800122e <__aeabi_dsub+0x332>
 800122c:	e1a6      	b.n	800157c <__aeabi_dsub+0x680>
 800122e:	2380      	movs	r3, #128	; 0x80
 8001230:	031b      	lsls	r3, r3, #12
 8001232:	431a      	orrs	r2, r3
 8001234:	0312      	lsls	r2, r2, #12
 8001236:	0b12      	lsrs	r2, r2, #12
 8001238:	4d02      	ldr	r5, [pc, #8]	; (8001244 <__aeabi_dsub+0x348>)
 800123a:	e789      	b.n	8001150 <__aeabi_dsub+0x254>
 800123c:	0015      	movs	r5, r2
 800123e:	2200      	movs	r2, #0
 8001240:	2700      	movs	r7, #0
 8001242:	e785      	b.n	8001150 <__aeabi_dsub+0x254>
 8001244:	000007ff 	.word	0x000007ff
 8001248:	ff7fffff 	.word	0xff7fffff
 800124c:	800fffff 	.word	0x800fffff
 8001250:	2e00      	cmp	r6, #0
 8001252:	d000      	beq.n	8001256 <__aeabi_dsub+0x35a>
 8001254:	e0c7      	b.n	80013e6 <__aeabi_dsub+0x4ea>
 8001256:	1c6b      	adds	r3, r5, #1
 8001258:	055e      	lsls	r6, r3, #21
 800125a:	0d76      	lsrs	r6, r6, #21
 800125c:	2e01      	cmp	r6, #1
 800125e:	dc00      	bgt.n	8001262 <__aeabi_dsub+0x366>
 8001260:	e0f0      	b.n	8001444 <__aeabi_dsub+0x548>
 8001262:	4dc8      	ldr	r5, [pc, #800]	; (8001584 <__aeabi_dsub+0x688>)
 8001264:	42ab      	cmp	r3, r5
 8001266:	d100      	bne.n	800126a <__aeabi_dsub+0x36e>
 8001268:	e0b9      	b.n	80013de <__aeabi_dsub+0x4e2>
 800126a:	1885      	adds	r5, r0, r2
 800126c:	000a      	movs	r2, r1
 800126e:	4285      	cmp	r5, r0
 8001270:	4189      	sbcs	r1, r1
 8001272:	4462      	add	r2, ip
 8001274:	4249      	negs	r1, r1
 8001276:	1851      	adds	r1, r2, r1
 8001278:	2207      	movs	r2, #7
 800127a:	07ce      	lsls	r6, r1, #31
 800127c:	086d      	lsrs	r5, r5, #1
 800127e:	432e      	orrs	r6, r5
 8001280:	0849      	lsrs	r1, r1, #1
 8001282:	4032      	ands	r2, r6
 8001284:	001d      	movs	r5, r3
 8001286:	e6a9      	b.n	8000fdc <__aeabi_dsub+0xe0>
 8001288:	49bf      	ldr	r1, [pc, #764]	; (8001588 <__aeabi_dsub+0x68c>)
 800128a:	1aed      	subs	r5, r5, r3
 800128c:	4011      	ands	r1, r2
 800128e:	2207      	movs	r2, #7
 8001290:	4032      	ands	r2, r6
 8001292:	e6a3      	b.n	8000fdc <__aeabi_dsub+0xe0>
 8001294:	0032      	movs	r2, r6
 8001296:	3828      	subs	r0, #40	; 0x28
 8001298:	4082      	lsls	r2, r0
 800129a:	2600      	movs	r6, #0
 800129c:	e686      	b.n	8000fac <__aeabi_dsub+0xb0>
 800129e:	0030      	movs	r0, r6
 80012a0:	f000 f9fc 	bl	800169c <__clzsi2>
 80012a4:	3020      	adds	r0, #32
 80012a6:	e673      	b.n	8000f90 <__aeabi_dsub+0x94>
 80012a8:	4663      	mov	r3, ip
 80012aa:	4313      	orrs	r3, r2
 80012ac:	1e5a      	subs	r2, r3, #1
 80012ae:	4193      	sbcs	r3, r2
 80012b0:	1ac6      	subs	r6, r0, r3
 80012b2:	42b0      	cmp	r0, r6
 80012b4:	4180      	sbcs	r0, r0
 80012b6:	4240      	negs	r0, r0
 80012b8:	1a09      	subs	r1, r1, r0
 80012ba:	e65c      	b.n	8000f76 <__aeabi_dsub+0x7a>
 80012bc:	000e      	movs	r6, r1
 80012be:	4667      	mov	r7, ip
 80012c0:	4306      	orrs	r6, r0
 80012c2:	4317      	orrs	r7, r2
 80012c4:	2d00      	cmp	r5, #0
 80012c6:	d15e      	bne.n	8001386 <__aeabi_dsub+0x48a>
 80012c8:	2e00      	cmp	r6, #0
 80012ca:	d000      	beq.n	80012ce <__aeabi_dsub+0x3d2>
 80012cc:	e0f3      	b.n	80014b6 <__aeabi_dsub+0x5ba>
 80012ce:	2f00      	cmp	r7, #0
 80012d0:	d100      	bne.n	80012d4 <__aeabi_dsub+0x3d8>
 80012d2:	e11e      	b.n	8001512 <__aeabi_dsub+0x616>
 80012d4:	465c      	mov	r4, fp
 80012d6:	4661      	mov	r1, ip
 80012d8:	4691      	mov	r9, r2
 80012da:	e72c      	b.n	8001136 <__aeabi_dsub+0x23a>
 80012dc:	4fa9      	ldr	r7, [pc, #676]	; (8001584 <__aeabi_dsub+0x688>)
 80012de:	42be      	cmp	r6, r7
 80012e0:	d07b      	beq.n	80013da <__aeabi_dsub+0x4de>
 80012e2:	001e      	movs	r6, r3
 80012e4:	e6f1      	b.n	80010ca <__aeabi_dsub+0x1ce>
 80012e6:	0010      	movs	r0, r2
 80012e8:	3d1f      	subs	r5, #31
 80012ea:	40e8      	lsrs	r0, r5
 80012ec:	2b20      	cmp	r3, #32
 80012ee:	d003      	beq.n	80012f8 <__aeabi_dsub+0x3fc>
 80012f0:	2140      	movs	r1, #64	; 0x40
 80012f2:	1acb      	subs	r3, r1, r3
 80012f4:	409a      	lsls	r2, r3
 80012f6:	4316      	orrs	r6, r2
 80012f8:	1e73      	subs	r3, r6, #1
 80012fa:	419e      	sbcs	r6, r3
 80012fc:	2207      	movs	r2, #7
 80012fe:	4306      	orrs	r6, r0
 8001300:	4032      	ands	r2, r6
 8001302:	2100      	movs	r1, #0
 8001304:	2500      	movs	r5, #0
 8001306:	e783      	b.n	8001210 <__aeabi_dsub+0x314>
 8001308:	1a16      	subs	r6, r2, r0
 800130a:	4663      	mov	r3, ip
 800130c:	42b2      	cmp	r2, r6
 800130e:	4180      	sbcs	r0, r0
 8001310:	1a59      	subs	r1, r3, r1
 8001312:	4240      	negs	r0, r0
 8001314:	1a0b      	subs	r3, r1, r0
 8001316:	4698      	mov	r8, r3
 8001318:	465c      	mov	r4, fp
 800131a:	e632      	b.n	8000f82 <__aeabi_dsub+0x86>
 800131c:	2e1f      	cmp	r6, #31
 800131e:	dd00      	ble.n	8001322 <__aeabi_dsub+0x426>
 8001320:	e0ab      	b.n	800147a <__aeabi_dsub+0x57e>
 8001322:	2720      	movs	r7, #32
 8001324:	1bbb      	subs	r3, r7, r6
 8001326:	469a      	mov	sl, r3
 8001328:	4663      	mov	r3, ip
 800132a:	4657      	mov	r7, sl
 800132c:	40bb      	lsls	r3, r7
 800132e:	4699      	mov	r9, r3
 8001330:	0013      	movs	r3, r2
 8001332:	464f      	mov	r7, r9
 8001334:	40f3      	lsrs	r3, r6
 8001336:	431f      	orrs	r7, r3
 8001338:	003b      	movs	r3, r7
 800133a:	4657      	mov	r7, sl
 800133c:	40ba      	lsls	r2, r7
 800133e:	1e57      	subs	r7, r2, #1
 8001340:	41ba      	sbcs	r2, r7
 8001342:	4313      	orrs	r3, r2
 8001344:	4662      	mov	r2, ip
 8001346:	40f2      	lsrs	r2, r6
 8001348:	1889      	adds	r1, r1, r2
 800134a:	e698      	b.n	800107e <__aeabi_dsub+0x182>
 800134c:	2720      	movs	r7, #32
 800134e:	1bbb      	subs	r3, r7, r6
 8001350:	469a      	mov	sl, r3
 8001352:	4663      	mov	r3, ip
 8001354:	4657      	mov	r7, sl
 8001356:	40bb      	lsls	r3, r7
 8001358:	4699      	mov	r9, r3
 800135a:	0013      	movs	r3, r2
 800135c:	464f      	mov	r7, r9
 800135e:	40f3      	lsrs	r3, r6
 8001360:	431f      	orrs	r7, r3
 8001362:	003b      	movs	r3, r7
 8001364:	4657      	mov	r7, sl
 8001366:	40ba      	lsls	r2, r7
 8001368:	1e57      	subs	r7, r2, #1
 800136a:	41ba      	sbcs	r2, r7
 800136c:	4313      	orrs	r3, r2
 800136e:	4662      	mov	r2, ip
 8001370:	40f2      	lsrs	r2, r6
 8001372:	1a89      	subs	r1, r1, r2
 8001374:	e79c      	b.n	80012b0 <__aeabi_dsub+0x3b4>
 8001376:	4b83      	ldr	r3, [pc, #524]	; (8001584 <__aeabi_dsub+0x688>)
 8001378:	429f      	cmp	r7, r3
 800137a:	d05f      	beq.n	800143c <__aeabi_dsub+0x540>
 800137c:	2580      	movs	r5, #128	; 0x80
 800137e:	042d      	lsls	r5, r5, #16
 8001380:	4273      	negs	r3, r6
 8001382:	4329      	orrs	r1, r5
 8001384:	e720      	b.n	80011c8 <__aeabi_dsub+0x2cc>
 8001386:	2e00      	cmp	r6, #0
 8001388:	d10c      	bne.n	80013a4 <__aeabi_dsub+0x4a8>
 800138a:	2f00      	cmp	r7, #0
 800138c:	d100      	bne.n	8001390 <__aeabi_dsub+0x494>
 800138e:	e0d0      	b.n	8001532 <__aeabi_dsub+0x636>
 8001390:	465c      	mov	r4, fp
 8001392:	4661      	mov	r1, ip
 8001394:	4691      	mov	r9, r2
 8001396:	4d7b      	ldr	r5, [pc, #492]	; (8001584 <__aeabi_dsub+0x688>)
 8001398:	e6cd      	b.n	8001136 <__aeabi_dsub+0x23a>
 800139a:	4f7a      	ldr	r7, [pc, #488]	; (8001584 <__aeabi_dsub+0x688>)
 800139c:	42be      	cmp	r6, r7
 800139e:	d01c      	beq.n	80013da <__aeabi_dsub+0x4de>
 80013a0:	001e      	movs	r6, r3
 80013a2:	e665      	b.n	8001070 <__aeabi_dsub+0x174>
 80013a4:	2f00      	cmp	r7, #0
 80013a6:	d018      	beq.n	80013da <__aeabi_dsub+0x4de>
 80013a8:	08c0      	lsrs	r0, r0, #3
 80013aa:	074e      	lsls	r6, r1, #29
 80013ac:	4306      	orrs	r6, r0
 80013ae:	2080      	movs	r0, #128	; 0x80
 80013b0:	08c9      	lsrs	r1, r1, #3
 80013b2:	0300      	lsls	r0, r0, #12
 80013b4:	4201      	tst	r1, r0
 80013b6:	d008      	beq.n	80013ca <__aeabi_dsub+0x4ce>
 80013b8:	4663      	mov	r3, ip
 80013ba:	08dc      	lsrs	r4, r3, #3
 80013bc:	4204      	tst	r4, r0
 80013be:	d104      	bne.n	80013ca <__aeabi_dsub+0x4ce>
 80013c0:	0021      	movs	r1, r4
 80013c2:	46da      	mov	sl, fp
 80013c4:	08d2      	lsrs	r2, r2, #3
 80013c6:	075e      	lsls	r6, r3, #29
 80013c8:	4316      	orrs	r6, r2
 80013ca:	00f3      	lsls	r3, r6, #3
 80013cc:	4699      	mov	r9, r3
 80013ce:	2401      	movs	r4, #1
 80013d0:	4653      	mov	r3, sl
 80013d2:	00c9      	lsls	r1, r1, #3
 80013d4:	0f72      	lsrs	r2, r6, #29
 80013d6:	4311      	orrs	r1, r2
 80013d8:	401c      	ands	r4, r3
 80013da:	4d6a      	ldr	r5, [pc, #424]	; (8001584 <__aeabi_dsub+0x688>)
 80013dc:	e6ab      	b.n	8001136 <__aeabi_dsub+0x23a>
 80013de:	001d      	movs	r5, r3
 80013e0:	2200      	movs	r2, #0
 80013e2:	2700      	movs	r7, #0
 80013e4:	e6b4      	b.n	8001150 <__aeabi_dsub+0x254>
 80013e6:	2d00      	cmp	r5, #0
 80013e8:	d159      	bne.n	800149e <__aeabi_dsub+0x5a2>
 80013ea:	000b      	movs	r3, r1
 80013ec:	4303      	orrs	r3, r0
 80013ee:	d100      	bne.n	80013f2 <__aeabi_dsub+0x4f6>
 80013f0:	e6d6      	b.n	80011a0 <__aeabi_dsub+0x2a4>
 80013f2:	1c73      	adds	r3, r6, #1
 80013f4:	d100      	bne.n	80013f8 <__aeabi_dsub+0x4fc>
 80013f6:	e0b2      	b.n	800155e <__aeabi_dsub+0x662>
 80013f8:	4b62      	ldr	r3, [pc, #392]	; (8001584 <__aeabi_dsub+0x688>)
 80013fa:	429f      	cmp	r7, r3
 80013fc:	d01e      	beq.n	800143c <__aeabi_dsub+0x540>
 80013fe:	43f3      	mvns	r3, r6
 8001400:	2b38      	cmp	r3, #56	; 0x38
 8001402:	dc6f      	bgt.n	80014e4 <__aeabi_dsub+0x5e8>
 8001404:	2b1f      	cmp	r3, #31
 8001406:	dd00      	ble.n	800140a <__aeabi_dsub+0x50e>
 8001408:	e097      	b.n	800153a <__aeabi_dsub+0x63e>
 800140a:	2520      	movs	r5, #32
 800140c:	000e      	movs	r6, r1
 800140e:	1aed      	subs	r5, r5, r3
 8001410:	40ae      	lsls	r6, r5
 8001412:	46b0      	mov	r8, r6
 8001414:	0006      	movs	r6, r0
 8001416:	46aa      	mov	sl, r5
 8001418:	40de      	lsrs	r6, r3
 800141a:	4645      	mov	r5, r8
 800141c:	4335      	orrs	r5, r6
 800141e:	002e      	movs	r6, r5
 8001420:	4655      	mov	r5, sl
 8001422:	40a8      	lsls	r0, r5
 8001424:	40d9      	lsrs	r1, r3
 8001426:	1e45      	subs	r5, r0, #1
 8001428:	41a8      	sbcs	r0, r5
 800142a:	448c      	add	ip, r1
 800142c:	4306      	orrs	r6, r0
 800142e:	18b6      	adds	r6, r6, r2
 8001430:	4296      	cmp	r6, r2
 8001432:	4192      	sbcs	r2, r2
 8001434:	4251      	negs	r1, r2
 8001436:	4461      	add	r1, ip
 8001438:	003d      	movs	r5, r7
 800143a:	e625      	b.n	8001088 <__aeabi_dsub+0x18c>
 800143c:	003d      	movs	r5, r7
 800143e:	4661      	mov	r1, ip
 8001440:	4691      	mov	r9, r2
 8001442:	e678      	b.n	8001136 <__aeabi_dsub+0x23a>
 8001444:	000b      	movs	r3, r1
 8001446:	4303      	orrs	r3, r0
 8001448:	2d00      	cmp	r5, #0
 800144a:	d000      	beq.n	800144e <__aeabi_dsub+0x552>
 800144c:	e655      	b.n	80010fa <__aeabi_dsub+0x1fe>
 800144e:	2b00      	cmp	r3, #0
 8001450:	d0f5      	beq.n	800143e <__aeabi_dsub+0x542>
 8001452:	4663      	mov	r3, ip
 8001454:	4313      	orrs	r3, r2
 8001456:	d100      	bne.n	800145a <__aeabi_dsub+0x55e>
 8001458:	e66d      	b.n	8001136 <__aeabi_dsub+0x23a>
 800145a:	1886      	adds	r6, r0, r2
 800145c:	4286      	cmp	r6, r0
 800145e:	4180      	sbcs	r0, r0
 8001460:	4461      	add	r1, ip
 8001462:	4240      	negs	r0, r0
 8001464:	1809      	adds	r1, r1, r0
 8001466:	2200      	movs	r2, #0
 8001468:	020b      	lsls	r3, r1, #8
 800146a:	d400      	bmi.n	800146e <__aeabi_dsub+0x572>
 800146c:	e6d0      	b.n	8001210 <__aeabi_dsub+0x314>
 800146e:	4b46      	ldr	r3, [pc, #280]	; (8001588 <__aeabi_dsub+0x68c>)
 8001470:	3501      	adds	r5, #1
 8001472:	4019      	ands	r1, r3
 8001474:	e5b2      	b.n	8000fdc <__aeabi_dsub+0xe0>
 8001476:	46b1      	mov	r9, r6
 8001478:	e65d      	b.n	8001136 <__aeabi_dsub+0x23a>
 800147a:	0033      	movs	r3, r6
 800147c:	4667      	mov	r7, ip
 800147e:	3b20      	subs	r3, #32
 8001480:	40df      	lsrs	r7, r3
 8001482:	003b      	movs	r3, r7
 8001484:	2e20      	cmp	r6, #32
 8001486:	d005      	beq.n	8001494 <__aeabi_dsub+0x598>
 8001488:	2740      	movs	r7, #64	; 0x40
 800148a:	1bbf      	subs	r7, r7, r6
 800148c:	4666      	mov	r6, ip
 800148e:	40be      	lsls	r6, r7
 8001490:	4332      	orrs	r2, r6
 8001492:	4690      	mov	r8, r2
 8001494:	4646      	mov	r6, r8
 8001496:	1e72      	subs	r2, r6, #1
 8001498:	4196      	sbcs	r6, r2
 800149a:	4333      	orrs	r3, r6
 800149c:	e5ef      	b.n	800107e <__aeabi_dsub+0x182>
 800149e:	4b39      	ldr	r3, [pc, #228]	; (8001584 <__aeabi_dsub+0x688>)
 80014a0:	429f      	cmp	r7, r3
 80014a2:	d0cb      	beq.n	800143c <__aeabi_dsub+0x540>
 80014a4:	2580      	movs	r5, #128	; 0x80
 80014a6:	042d      	lsls	r5, r5, #16
 80014a8:	4273      	negs	r3, r6
 80014aa:	4329      	orrs	r1, r5
 80014ac:	e7a8      	b.n	8001400 <__aeabi_dsub+0x504>
 80014ae:	4308      	orrs	r0, r1
 80014b0:	1e41      	subs	r1, r0, #1
 80014b2:	4188      	sbcs	r0, r1
 80014b4:	e6a2      	b.n	80011fc <__aeabi_dsub+0x300>
 80014b6:	2f00      	cmp	r7, #0
 80014b8:	d100      	bne.n	80014bc <__aeabi_dsub+0x5c0>
 80014ba:	e63c      	b.n	8001136 <__aeabi_dsub+0x23a>
 80014bc:	4663      	mov	r3, ip
 80014be:	1a86      	subs	r6, r0, r2
 80014c0:	1acf      	subs	r7, r1, r3
 80014c2:	42b0      	cmp	r0, r6
 80014c4:	419b      	sbcs	r3, r3
 80014c6:	425b      	negs	r3, r3
 80014c8:	1afb      	subs	r3, r7, r3
 80014ca:	4698      	mov	r8, r3
 80014cc:	021b      	lsls	r3, r3, #8
 80014ce:	d54e      	bpl.n	800156e <__aeabi_dsub+0x672>
 80014d0:	1a16      	subs	r6, r2, r0
 80014d2:	4663      	mov	r3, ip
 80014d4:	42b2      	cmp	r2, r6
 80014d6:	4192      	sbcs	r2, r2
 80014d8:	1a59      	subs	r1, r3, r1
 80014da:	4252      	negs	r2, r2
 80014dc:	1a89      	subs	r1, r1, r2
 80014de:	465c      	mov	r4, fp
 80014e0:	2200      	movs	r2, #0
 80014e2:	e57b      	b.n	8000fdc <__aeabi_dsub+0xe0>
 80014e4:	4301      	orrs	r1, r0
 80014e6:	000e      	movs	r6, r1
 80014e8:	1e71      	subs	r1, r6, #1
 80014ea:	418e      	sbcs	r6, r1
 80014ec:	e79f      	b.n	800142e <__aeabi_dsub+0x532>
 80014ee:	001d      	movs	r5, r3
 80014f0:	000e      	movs	r6, r1
 80014f2:	3d20      	subs	r5, #32
 80014f4:	40ee      	lsrs	r6, r5
 80014f6:	46b0      	mov	r8, r6
 80014f8:	2b20      	cmp	r3, #32
 80014fa:	d004      	beq.n	8001506 <__aeabi_dsub+0x60a>
 80014fc:	2540      	movs	r5, #64	; 0x40
 80014fe:	1aeb      	subs	r3, r5, r3
 8001500:	4099      	lsls	r1, r3
 8001502:	4308      	orrs	r0, r1
 8001504:	4681      	mov	r9, r0
 8001506:	4648      	mov	r0, r9
 8001508:	4643      	mov	r3, r8
 800150a:	1e41      	subs	r1, r0, #1
 800150c:	4188      	sbcs	r0, r1
 800150e:	4318      	orrs	r0, r3
 8001510:	e674      	b.n	80011fc <__aeabi_dsub+0x300>
 8001512:	2200      	movs	r2, #0
 8001514:	2400      	movs	r4, #0
 8001516:	e617      	b.n	8001148 <__aeabi_dsub+0x24c>
 8001518:	1a16      	subs	r6, r2, r0
 800151a:	4663      	mov	r3, ip
 800151c:	42b2      	cmp	r2, r6
 800151e:	4192      	sbcs	r2, r2
 8001520:	1a59      	subs	r1, r3, r1
 8001522:	4252      	negs	r2, r2
 8001524:	1a89      	subs	r1, r1, r2
 8001526:	003d      	movs	r5, r7
 8001528:	e525      	b.n	8000f76 <__aeabi_dsub+0x7a>
 800152a:	4661      	mov	r1, ip
 800152c:	4691      	mov	r9, r2
 800152e:	4d15      	ldr	r5, [pc, #84]	; (8001584 <__aeabi_dsub+0x688>)
 8001530:	e601      	b.n	8001136 <__aeabi_dsub+0x23a>
 8001532:	2280      	movs	r2, #128	; 0x80
 8001534:	2400      	movs	r4, #0
 8001536:	0312      	lsls	r2, r2, #12
 8001538:	e679      	b.n	800122e <__aeabi_dsub+0x332>
 800153a:	001d      	movs	r5, r3
 800153c:	000e      	movs	r6, r1
 800153e:	3d20      	subs	r5, #32
 8001540:	40ee      	lsrs	r6, r5
 8001542:	46b0      	mov	r8, r6
 8001544:	2b20      	cmp	r3, #32
 8001546:	d004      	beq.n	8001552 <__aeabi_dsub+0x656>
 8001548:	2540      	movs	r5, #64	; 0x40
 800154a:	1aeb      	subs	r3, r5, r3
 800154c:	4099      	lsls	r1, r3
 800154e:	4308      	orrs	r0, r1
 8001550:	4681      	mov	r9, r0
 8001552:	464e      	mov	r6, r9
 8001554:	4643      	mov	r3, r8
 8001556:	1e71      	subs	r1, r6, #1
 8001558:	418e      	sbcs	r6, r1
 800155a:	431e      	orrs	r6, r3
 800155c:	e767      	b.n	800142e <__aeabi_dsub+0x532>
 800155e:	1886      	adds	r6, r0, r2
 8001560:	4296      	cmp	r6, r2
 8001562:	419b      	sbcs	r3, r3
 8001564:	4461      	add	r1, ip
 8001566:	425b      	negs	r3, r3
 8001568:	18c9      	adds	r1, r1, r3
 800156a:	003d      	movs	r5, r7
 800156c:	e58c      	b.n	8001088 <__aeabi_dsub+0x18c>
 800156e:	4647      	mov	r7, r8
 8001570:	4337      	orrs	r7, r6
 8001572:	d0ce      	beq.n	8001512 <__aeabi_dsub+0x616>
 8001574:	2207      	movs	r2, #7
 8001576:	4641      	mov	r1, r8
 8001578:	4032      	ands	r2, r6
 800157a:	e649      	b.n	8001210 <__aeabi_dsub+0x314>
 800157c:	2700      	movs	r7, #0
 800157e:	003a      	movs	r2, r7
 8001580:	e5e6      	b.n	8001150 <__aeabi_dsub+0x254>
 8001582:	46c0      	nop			; (mov r8, r8)
 8001584:	000007ff 	.word	0x000007ff
 8001588:	ff7fffff 	.word	0xff7fffff

0800158c <__aeabi_d2iz>:
 800158c:	b530      	push	{r4, r5, lr}
 800158e:	4d14      	ldr	r5, [pc, #80]	; (80015e0 <__aeabi_d2iz+0x54>)
 8001590:	030a      	lsls	r2, r1, #12
 8001592:	004b      	lsls	r3, r1, #1
 8001594:	0b12      	lsrs	r2, r2, #12
 8001596:	0d5b      	lsrs	r3, r3, #21
 8001598:	0fc9      	lsrs	r1, r1, #31
 800159a:	2400      	movs	r4, #0
 800159c:	42ab      	cmp	r3, r5
 800159e:	dd11      	ble.n	80015c4 <__aeabi_d2iz+0x38>
 80015a0:	4c10      	ldr	r4, [pc, #64]	; (80015e4 <__aeabi_d2iz+0x58>)
 80015a2:	42a3      	cmp	r3, r4
 80015a4:	dc10      	bgt.n	80015c8 <__aeabi_d2iz+0x3c>
 80015a6:	2480      	movs	r4, #128	; 0x80
 80015a8:	0364      	lsls	r4, r4, #13
 80015aa:	4322      	orrs	r2, r4
 80015ac:	4c0e      	ldr	r4, [pc, #56]	; (80015e8 <__aeabi_d2iz+0x5c>)
 80015ae:	1ae4      	subs	r4, r4, r3
 80015b0:	2c1f      	cmp	r4, #31
 80015b2:	dd0c      	ble.n	80015ce <__aeabi_d2iz+0x42>
 80015b4:	480d      	ldr	r0, [pc, #52]	; (80015ec <__aeabi_d2iz+0x60>)
 80015b6:	1ac3      	subs	r3, r0, r3
 80015b8:	40da      	lsrs	r2, r3
 80015ba:	0013      	movs	r3, r2
 80015bc:	425c      	negs	r4, r3
 80015be:	2900      	cmp	r1, #0
 80015c0:	d100      	bne.n	80015c4 <__aeabi_d2iz+0x38>
 80015c2:	001c      	movs	r4, r3
 80015c4:	0020      	movs	r0, r4
 80015c6:	bd30      	pop	{r4, r5, pc}
 80015c8:	4b09      	ldr	r3, [pc, #36]	; (80015f0 <__aeabi_d2iz+0x64>)
 80015ca:	18cc      	adds	r4, r1, r3
 80015cc:	e7fa      	b.n	80015c4 <__aeabi_d2iz+0x38>
 80015ce:	4d09      	ldr	r5, [pc, #36]	; (80015f4 <__aeabi_d2iz+0x68>)
 80015d0:	40e0      	lsrs	r0, r4
 80015d2:	46ac      	mov	ip, r5
 80015d4:	4463      	add	r3, ip
 80015d6:	409a      	lsls	r2, r3
 80015d8:	0013      	movs	r3, r2
 80015da:	4303      	orrs	r3, r0
 80015dc:	e7ee      	b.n	80015bc <__aeabi_d2iz+0x30>
 80015de:	46c0      	nop			; (mov r8, r8)
 80015e0:	000003fe 	.word	0x000003fe
 80015e4:	0000041d 	.word	0x0000041d
 80015e8:	00000433 	.word	0x00000433
 80015ec:	00000413 	.word	0x00000413
 80015f0:	7fffffff 	.word	0x7fffffff
 80015f4:	fffffbed 	.word	0xfffffbed

080015f8 <__aeabi_f2d>:
 80015f8:	0041      	lsls	r1, r0, #1
 80015fa:	0e09      	lsrs	r1, r1, #24
 80015fc:	1c4b      	adds	r3, r1, #1
 80015fe:	b570      	push	{r4, r5, r6, lr}
 8001600:	b2db      	uxtb	r3, r3
 8001602:	0246      	lsls	r6, r0, #9
 8001604:	0a75      	lsrs	r5, r6, #9
 8001606:	0fc4      	lsrs	r4, r0, #31
 8001608:	2b01      	cmp	r3, #1
 800160a:	dd14      	ble.n	8001636 <__aeabi_f2d+0x3e>
 800160c:	23e0      	movs	r3, #224	; 0xe0
 800160e:	009b      	lsls	r3, r3, #2
 8001610:	076d      	lsls	r5, r5, #29
 8001612:	0b36      	lsrs	r6, r6, #12
 8001614:	18cb      	adds	r3, r1, r3
 8001616:	2100      	movs	r1, #0
 8001618:	0d0a      	lsrs	r2, r1, #20
 800161a:	0028      	movs	r0, r5
 800161c:	0512      	lsls	r2, r2, #20
 800161e:	4d1c      	ldr	r5, [pc, #112]	; (8001690 <__aeabi_f2d+0x98>)
 8001620:	4332      	orrs	r2, r6
 8001622:	055b      	lsls	r3, r3, #21
 8001624:	402a      	ands	r2, r5
 8001626:	085b      	lsrs	r3, r3, #1
 8001628:	4313      	orrs	r3, r2
 800162a:	005b      	lsls	r3, r3, #1
 800162c:	07e4      	lsls	r4, r4, #31
 800162e:	085b      	lsrs	r3, r3, #1
 8001630:	4323      	orrs	r3, r4
 8001632:	0019      	movs	r1, r3
 8001634:	bd70      	pop	{r4, r5, r6, pc}
 8001636:	2900      	cmp	r1, #0
 8001638:	d114      	bne.n	8001664 <__aeabi_f2d+0x6c>
 800163a:	2d00      	cmp	r5, #0
 800163c:	d01e      	beq.n	800167c <__aeabi_f2d+0x84>
 800163e:	0028      	movs	r0, r5
 8001640:	f000 f82c 	bl	800169c <__clzsi2>
 8001644:	280a      	cmp	r0, #10
 8001646:	dc1c      	bgt.n	8001682 <__aeabi_f2d+0x8a>
 8001648:	230b      	movs	r3, #11
 800164a:	002a      	movs	r2, r5
 800164c:	1a1b      	subs	r3, r3, r0
 800164e:	40da      	lsrs	r2, r3
 8001650:	0003      	movs	r3, r0
 8001652:	3315      	adds	r3, #21
 8001654:	409d      	lsls	r5, r3
 8001656:	4b0f      	ldr	r3, [pc, #60]	; (8001694 <__aeabi_f2d+0x9c>)
 8001658:	0312      	lsls	r2, r2, #12
 800165a:	1a1b      	subs	r3, r3, r0
 800165c:	055b      	lsls	r3, r3, #21
 800165e:	0b16      	lsrs	r6, r2, #12
 8001660:	0d5b      	lsrs	r3, r3, #21
 8001662:	e7d8      	b.n	8001616 <__aeabi_f2d+0x1e>
 8001664:	2d00      	cmp	r5, #0
 8001666:	d006      	beq.n	8001676 <__aeabi_f2d+0x7e>
 8001668:	0b32      	lsrs	r2, r6, #12
 800166a:	2680      	movs	r6, #128	; 0x80
 800166c:	0336      	lsls	r6, r6, #12
 800166e:	076d      	lsls	r5, r5, #29
 8001670:	4316      	orrs	r6, r2
 8001672:	4b09      	ldr	r3, [pc, #36]	; (8001698 <__aeabi_f2d+0xa0>)
 8001674:	e7cf      	b.n	8001616 <__aeabi_f2d+0x1e>
 8001676:	4b08      	ldr	r3, [pc, #32]	; (8001698 <__aeabi_f2d+0xa0>)
 8001678:	2600      	movs	r6, #0
 800167a:	e7cc      	b.n	8001616 <__aeabi_f2d+0x1e>
 800167c:	2300      	movs	r3, #0
 800167e:	2600      	movs	r6, #0
 8001680:	e7c9      	b.n	8001616 <__aeabi_f2d+0x1e>
 8001682:	0003      	movs	r3, r0
 8001684:	002a      	movs	r2, r5
 8001686:	3b0b      	subs	r3, #11
 8001688:	409a      	lsls	r2, r3
 800168a:	2500      	movs	r5, #0
 800168c:	e7e3      	b.n	8001656 <__aeabi_f2d+0x5e>
 800168e:	46c0      	nop			; (mov r8, r8)
 8001690:	800fffff 	.word	0x800fffff
 8001694:	00000389 	.word	0x00000389
 8001698:	000007ff 	.word	0x000007ff

0800169c <__clzsi2>:
 800169c:	211c      	movs	r1, #28
 800169e:	2301      	movs	r3, #1
 80016a0:	041b      	lsls	r3, r3, #16
 80016a2:	4298      	cmp	r0, r3
 80016a4:	d301      	bcc.n	80016aa <__clzsi2+0xe>
 80016a6:	0c00      	lsrs	r0, r0, #16
 80016a8:	3910      	subs	r1, #16
 80016aa:	0a1b      	lsrs	r3, r3, #8
 80016ac:	4298      	cmp	r0, r3
 80016ae:	d301      	bcc.n	80016b4 <__clzsi2+0x18>
 80016b0:	0a00      	lsrs	r0, r0, #8
 80016b2:	3908      	subs	r1, #8
 80016b4:	091b      	lsrs	r3, r3, #4
 80016b6:	4298      	cmp	r0, r3
 80016b8:	d301      	bcc.n	80016be <__clzsi2+0x22>
 80016ba:	0900      	lsrs	r0, r0, #4
 80016bc:	3904      	subs	r1, #4
 80016be:	a202      	add	r2, pc, #8	; (adr r2, 80016c8 <__clzsi2+0x2c>)
 80016c0:	5c10      	ldrb	r0, [r2, r0]
 80016c2:	1840      	adds	r0, r0, r1
 80016c4:	4770      	bx	lr
 80016c6:	46c0      	nop			; (mov r8, r8)
 80016c8:	02020304 	.word	0x02020304
 80016cc:	01010101 	.word	0x01010101
	...

080016d8 <LL_AHB1_GRP1_EnableClock>:
  * @retval None
*/
__STATIC_INLINE void LL_AHB1_GRP1_EnableClock(uint32_t Periphs)
{
  __IO uint32_t tmpreg;
  SET_BIT(RCC->AHBENR, Periphs);
 80016d8:	4b05      	ldr	r3, [pc, #20]	; (80016f0 <LL_AHB1_GRP1_EnableClock+0x18>)
{
 80016da:	b082      	sub	sp, #8
  SET_BIT(RCC->AHBENR, Periphs);
 80016dc:	695a      	ldr	r2, [r3, #20]
 80016de:	4302      	orrs	r2, r0
 80016e0:	615a      	str	r2, [r3, #20]
  /* Delay after an RCC peripheral clock enabling */
  tmpreg = READ_BIT(RCC->AHBENR, Periphs);
 80016e2:	695b      	ldr	r3, [r3, #20]
 80016e4:	4018      	ands	r0, r3
 80016e6:	9001      	str	r0, [sp, #4]
  (void)tmpreg;
 80016e8:	9b01      	ldr	r3, [sp, #4]
}
 80016ea:	b002      	add	sp, #8
 80016ec:	4770      	bx	lr
 80016ee:	46c0      	nop			; (mov r8, r8)
 80016f0:	40021000 	.word	0x40021000

080016f4 <HAL_TIM_PeriodElapsedCallback>:
/* USER CODE BEGIN PFP */

void HAL_TIM_PeriodElapsedCallback(TIM_HandleTypeDef *htim)
{
	static uint16_t now = 13;
	if (htim->Instance == TIM1)
 80016f4:	4b16      	ldr	r3, [pc, #88]	; (8001750 <HAL_TIM_PeriodElapsedCallback+0x5c>)
 80016f6:	6802      	ldr	r2, [r0, #0]
{
 80016f8:	b510      	push	{r4, lr}
	if (htim->Instance == TIM1)
 80016fa:	429a      	cmp	r2, r3
 80016fc:	d124      	bne.n	8001748 <HAL_TIM_PeriodElapsedCallback+0x54>
	{
		HAL_GPIO_WritePin(GPIOC, (1 << now), SET);
 80016fe:	2201      	movs	r2, #1
 8001700:	0011      	movs	r1, r2
 8001702:	4c14      	ldr	r4, [pc, #80]	; (8001754 <HAL_TIM_PeriodElapsedCallback+0x60>)
 8001704:	4814      	ldr	r0, [pc, #80]	; (8001758 <HAL_TIM_PeriodElapsedCallback+0x64>)
 8001706:	8823      	ldrh	r3, [r4, #0]
 8001708:	4099      	lsls	r1, r3
 800170a:	b289      	uxth	r1, r1
 800170c:	f000 fe7e 	bl	800240c <HAL_GPIO_WritePin>
		now++;
 8001710:	8823      	ldrh	r3, [r4, #0]
 8001712:	3301      	adds	r3, #1
 8001714:	b29b      	uxth	r3, r3
		if (now >= 16)
 8001716:	2b0f      	cmp	r3, #15
 8001718:	d817      	bhi.n	800174a <HAL_TIM_PeriodElapsedCallback+0x56>
		{
			now = 13;
		}
		HAL_GPIO_WritePin(GPIOB, 0x00FF, RESET);
 800171a:	2200      	movs	r2, #0
 800171c:	21ff      	movs	r1, #255	; 0xff
 800171e:	480f      	ldr	r0, [pc, #60]	; (800175c <HAL_TIM_PeriodElapsedCallback+0x68>)
			now = 13;
 8001720:	8023      	strh	r3, [r4, #0]
		HAL_GPIO_WritePin(GPIOB, 0x00FF, RESET);
 8001722:	f000 fe73 	bl	800240c <HAL_GPIO_WritePin>
		HAL_GPIO_WritePin(GPIOB, SegVar[now - 13], SET);
 8001726:	8822      	ldrh	r2, [r4, #0]
 8001728:	4b0d      	ldr	r3, [pc, #52]	; (8001760 <HAL_TIM_PeriodElapsedCallback+0x6c>)
 800172a:	480c      	ldr	r0, [pc, #48]	; (800175c <HAL_TIM_PeriodElapsedCallback+0x68>)
 800172c:	189b      	adds	r3, r3, r2
 800172e:	3b0d      	subs	r3, #13
 8001730:	7819      	ldrb	r1, [r3, #0]
 8001732:	2201      	movs	r2, #1
 8001734:	f000 fe6a 	bl	800240c <HAL_GPIO_WritePin>
		HAL_GPIO_WritePin(GPIOC, (1 << now), RESET);
 8001738:	2101      	movs	r1, #1
 800173a:	8823      	ldrh	r3, [r4, #0]
 800173c:	2200      	movs	r2, #0
 800173e:	4099      	lsls	r1, r3
 8001740:	4805      	ldr	r0, [pc, #20]	; (8001758 <HAL_TIM_PeriodElapsedCallback+0x64>)
 8001742:	b289      	uxth	r1, r1
 8001744:	f000 fe62 	bl	800240c <HAL_GPIO_WritePin>
	}
}
 8001748:	bd10      	pop	{r4, pc}
			now = 13;
 800174a:	230d      	movs	r3, #13
 800174c:	e7e5      	b.n	800171a <HAL_TIM_PeriodElapsedCallback+0x26>
 800174e:	46c0      	nop			; (mov r8, r8)
 8001750:	40012c00 	.word	0x40012c00
 8001754:	20000000 	.word	0x20000000
 8001758:	48000800 	.word	0x48000800
 800175c:	48000400 	.word	0x48000400
 8001760:	2000067c 	.word	0x2000067c

08001764 <setSegVal>:

void setSegVal(uint16_t val, uint8_t ptDigit)
{
 8001764:	b5f8      	push	{r3, r4, r5, r6, r7, lr}
 8001766:	000d      	movs	r5, r1
	SegVar[0] = SegmentArrInfo[val / 100]; // 100
 8001768:	2164      	movs	r1, #100	; 0x64
{
 800176a:	0007      	movs	r7, r0
	SegVar[0] = SegmentArrInfo[val / 100]; // 100
 800176c:	f7fe fce8 	bl	8000140 <__udivsi3>
 8001770:	4e13      	ldr	r6, [pc, #76]	; (80017c0 <setSegVal+0x5c>)
 8001772:	b280      	uxth	r0, r0
 8001774:	5c33      	ldrb	r3, [r6, r0]
 8001776:	4c13      	ldr	r4, [pc, #76]	; (80017c4 <setSegVal+0x60>)
	SegVar[1] = SegmentArrInfo[((val % 100)) / 10]; // 10
 8001778:	2164      	movs	r1, #100	; 0x64
	SegVar[0] = SegmentArrInfo[val / 100]; // 100
 800177a:	7023      	strb	r3, [r4, #0]
	SegVar[1] = SegmentArrInfo[((val % 100)) / 10]; // 10
 800177c:	0038      	movs	r0, r7
 800177e:	f7fe fd65 	bl	800024c <__aeabi_uidivmod>
 8001782:	b288      	uxth	r0, r1
 8001784:	210a      	movs	r1, #10
 8001786:	f7fe fcdb 	bl	8000140 <__udivsi3>
 800178a:	b280      	uxth	r0, r0
 800178c:	5c33      	ldrb	r3, [r6, r0]
	SegVar[2] = SegmentArrInfo[val % 10]; // 1
 800178e:	210a      	movs	r1, #10
	SegVar[1] = SegmentArrInfo[((val % 100)) / 10]; // 10
 8001790:	7063      	strb	r3, [r4, #1]
	SegVar[2] = SegmentArrInfo[val % 10]; // 1
 8001792:	0038      	movs	r0, r7
 8001794:	f7fe fd5a 	bl	800024c <__aeabi_uidivmod>
 8001798:	b289      	uxth	r1, r1
 800179a:	5c73      	ldrb	r3, [r6, r1]

	for (uint8_t i = 0; i < 3; i++)
	{
		if (ptDigit & (1 << i))
		{
			SegVar[i] |= 0x80;
 800179c:	2680      	movs	r6, #128	; 0x80
	SegVar[2] = SegmentArrInfo[val % 10]; // 1
 800179e:	70a3      	strb	r3, [r4, #2]
		if (ptDigit & (1 << i))
 80017a0:	2001      	movs	r0, #1
	SegVar[2] = SegmentArrInfo[val % 10]; // 1
 80017a2:	2300      	movs	r3, #0
			SegVar[i] |= 0x80;
 80017a4:	4276      	negs	r6, r6
		if (ptDigit & (1 << i))
 80017a6:	002a      	movs	r2, r5
 80017a8:	411a      	asrs	r2, r3
 80017aa:	4202      	tst	r2, r0
 80017ac:	d003      	beq.n	80017b6 <setSegVal+0x52>
			SegVar[i] |= 0x80;
 80017ae:	18e1      	adds	r1, r4, r3
 80017b0:	780a      	ldrb	r2, [r1, #0]
 80017b2:	4332      	orrs	r2, r6
 80017b4:	700a      	strb	r2, [r1, #0]
 80017b6:	3301      	adds	r3, #1
	for (uint8_t i = 0; i < 3; i++)
 80017b8:	2b03      	cmp	r3, #3
 80017ba:	d1f4      	bne.n	80017a6 <setSegVal+0x42>
		}
	}
}
 80017bc:	bdf8      	pop	{r3, r4, r5, r6, r7, pc}
 80017be:	46c0      	nop			; (mov r8, r8)
 80017c0:	08005b90 	.word	0x08005b90
 80017c4:	2000067c 	.word	0x2000067c

080017c8 <ADC_PRINT>:
__STATIC_INLINE void LL_ADC_REG_StartConversion(ADC_TypeDef *ADCx)
{
  /* Note: Write register with some additional bits forced to state reset     */
  /*       instead of modifying only the selected bit for this function,      */
  /*       to not interfere with bits with HW property "rs".                  */
  MODIFY_REG(ADCx->CR,
 80017c8:	4b19      	ldr	r3, [pc, #100]	; (8001830 <ADC_PRINT+0x68>)
 80017ca:	491a      	ldr	r1, [pc, #104]	; (8001834 <ADC_PRINT+0x6c>)
 80017cc:	689a      	ldr	r2, [r3, #8]

void ADC_PRINT(uint16_t i)
{
 80017ce:	b510      	push	{r4, lr}
 80017d0:	4011      	ands	r1, r2
 80017d2:	2204      	movs	r2, #4
 80017d4:	430a      	orrs	r2, r1
 80017d6:	609a      	str	r2, [r3, #8]
  * @param  ADCx ADC instance
  * @retval State of bit (1 or 0).
  */
__STATIC_INLINE uint32_t LL_ADC_IsActiveFlag_EOS(ADC_TypeDef *ADCx)
{
  return (READ_BIT(ADCx->ISR, LL_ADC_FLAG_EOS) == (LL_ADC_FLAG_EOS));
 80017d8:	2208      	movs	r2, #8
 80017da:	6819      	ldr	r1, [r3, #0]

	LL_ADC_REG_StartConversion(ADC1);
	while (!LL_ADC_IsActiveFlag_EOS(ADC1))
 80017dc:	4211      	tst	r1, r2
 80017de:	d0fc      	beq.n	80017da <ADC_PRINT+0x12>
  return (uint16_t)(READ_BIT(ADCx->DR, ADC_DR_DATA));
 80017e0:	6c18      	ldr	r0, [r3, #64]	; 0x40
		;
	i = LL_ADC_REG_ReadConversionData12(ADC1);

	_result = ((MAX_VOLTAGE) / (MAX_ADC_VAL)) * ((float) i);
 80017e2:	b280      	uxth	r0, r0
 80017e4:	f7fe ffd0 	bl	8000788 <__aeabi_ui2f>
 80017e8:	4913      	ldr	r1, [pc, #76]	; (8001838 <ADC_PRINT+0x70>)
 80017ea:	f7fe fe7b 	bl	80004e4 <__aeabi_fmul>
 80017ee:	4c13      	ldr	r4, [pc, #76]	; (800183c <ADC_PRINT+0x74>)
 80017f0:	6020      	str	r0, [r4, #0]
	if (_result >= 5.3)
 80017f2:	f7ff ff01 	bl	80015f8 <__aeabi_f2d>
 80017f6:	4a12      	ldr	r2, [pc, #72]	; (8001840 <ADC_PRINT+0x78>)
 80017f8:	4b12      	ldr	r3, [pc, #72]	; (8001844 <ADC_PRINT+0x7c>)
 80017fa:	f7fe fe4b 	bl	8000494 <__aeabi_dcmpge>
 80017fe:	1e02      	subs	r2, r0, #0
 8001800:	d000      	beq.n	8001804 <ADC_PRINT+0x3c>
	{
		HAL_GPIO_WritePin(S_CAP_CTRL_GPIO_Port, S_CAP_CTRL_Pin, SET);
 8001802:	2201      	movs	r2, #1
	}
	else
	{
		HAL_GPIO_WritePin(S_CAP_CTRL_GPIO_Port, S_CAP_CTRL_Pin, RESET);
 8001804:	2090      	movs	r0, #144	; 0x90
 8001806:	2104      	movs	r1, #4
 8001808:	05c0      	lsls	r0, r0, #23
 800180a:	f000 fdff 	bl	800240c <HAL_GPIO_WritePin>
	}
	setSegVal((uint16_t) (_result * 100.0), 1 << 0);
 800180e:	6820      	ldr	r0, [r4, #0]
 8001810:	f7ff fef2 	bl	80015f8 <__aeabi_f2d>
 8001814:	2200      	movs	r2, #0
 8001816:	4b0c      	ldr	r3, [pc, #48]	; (8001848 <ADC_PRINT+0x80>)
 8001818:	f7ff f8fe 	bl	8000a18 <__aeabi_dmul>
 800181c:	f7fe fe44 	bl	80004a8 <__aeabi_d2uiz>
 8001820:	2101      	movs	r1, #1
 8001822:	b280      	uxth	r0, r0
 8001824:	f7ff ff9e 	bl	8001764 <setSegVal>
	HAL_Delay(1);
 8001828:	2001      	movs	r0, #1
 800182a:	f000 fc2f 	bl	800208c <HAL_Delay>
	i++;
}
 800182e:	bd10      	pop	{r4, pc}
 8001830:	40012400 	.word	0x40012400
 8001834:	7fffffe8 	.word	0x7fffffe8
 8001838:	3b1e6666 	.word	0x3b1e6666
 800183c:	200005f4 	.word	0x200005f4
 8001840:	33333333 	.word	0x33333333
 8001844:	40153333 	.word	0x40153333
 8001848:	40590000 	.word	0x40590000

0800184c <SystemClock_Config>:
  *         @arg @ref LL_FLASH_LATENCY_1
  * @retval None
  */
__STATIC_INLINE void LL_FLASH_SetLatency(uint32_t Latency)
{
  MODIFY_REG(FLASH->ACR, FLASH_ACR_LATENCY, Latency);
 800184c:	2301      	movs	r3, #1
 800184e:	4a2a      	ldr	r2, [pc, #168]	; (80018f8 <SystemClock_Config+0xac>)
/**
  * @brief System Clock Configuration
  * @retval None
  */
void SystemClock_Config(void)
{
 8001850:	b510      	push	{r4, lr}
 8001852:	6811      	ldr	r1, [r2, #0]
 8001854:	4399      	bics	r1, r3
 8001856:	4319      	orrs	r1, r3
 8001858:	6011      	str	r1, [r2, #0]
  *         @arg @ref LL_FLASH_LATENCY_0
  *         @arg @ref LL_FLASH_LATENCY_1
  */
__STATIC_INLINE uint32_t LL_FLASH_GetLatency(void)
{
  return (uint32_t)(READ_BIT(FLASH->ACR, FLASH_ACR_LATENCY));
 800185a:	6811      	ldr	r1, [r2, #0]
  LL_FLASH_SetLatency(LL_FLASH_LATENCY_1);
  while(LL_FLASH_GetLatency() != LL_FLASH_LATENCY_1)
 800185c:	4219      	tst	r1, r3
 800185e:	d0fc      	beq.n	800185a <SystemClock_Config+0xe>
  * @rmtoll CR           HSION         LL_RCC_HSI_Enable
  * @retval None
  */
__STATIC_INLINE void LL_RCC_HSI_Enable(void)
{
  SET_BIT(RCC->CR, RCC_CR_HSION);
 8001860:	4c26      	ldr	r4, [pc, #152]	; (80018fc <SystemClock_Config+0xb0>)
 8001862:	6822      	ldr	r2, [r4, #0]
 8001864:	4313      	orrs	r3, r2
 8001866:	6023      	str	r3, [r4, #0]
  * @rmtoll CR           HSIRDY        LL_RCC_HSI_IsReady
  * @retval State of bit (1 or 0).
  */
__STATIC_INLINE uint32_t LL_RCC_HSI_IsReady(void)
{
  return (READ_BIT(RCC->CR, RCC_CR_HSIRDY) == (RCC_CR_HSIRDY));
 8001868:	2302      	movs	r3, #2
 800186a:	6822      	ldr	r2, [r4, #0]
  {
  }
  LL_RCC_HSI_Enable();

   /* Wait till HSI is ready */
  while(LL_RCC_HSI_IsReady() != 1)
 800186c:	421a      	tst	r2, r3
 800186e:	d0fc      	beq.n	800186a <SystemClock_Config+0x1e>
  * @param  Value between Min_Data = 0x00 and Max_Data = 0x1F
  * @retval None
  */
__STATIC_INLINE void LL_RCC_HSI_SetCalibTrimming(uint32_t Value)
{
  MODIFY_REG(RCC->CR, RCC_CR_HSITRIM, Value << RCC_CR_HSITRIM_Pos);
 8001870:	22f8      	movs	r2, #248	; 0xf8
 8001872:	6823      	ldr	r3, [r4, #0]
 8001874:	4393      	bics	r3, r2
 8001876:	001a      	movs	r2, r3
 8001878:	2380      	movs	r3, #128	; 0x80
 800187a:	4313      	orrs	r3, r2
 800187c:	6023      	str	r3, [r4, #0]
  * @rmtoll CR2          HSI14ON       LL_RCC_HSI14_Enable
  * @retval None
  */
__STATIC_INLINE void LL_RCC_HSI14_Enable(void)
{
  SET_BIT(RCC->CR2, RCC_CR2_HSI14ON);
 800187e:	2301      	movs	r3, #1
 8001880:	6b62      	ldr	r2, [r4, #52]	; 0x34
 8001882:	4313      	orrs	r3, r2
 8001884:	6363      	str	r3, [r4, #52]	; 0x34
  * @rmtoll CR2          HSI14RDY      LL_RCC_HSI14_IsReady
  * @retval State of bit (1 or 0).
  */
__STATIC_INLINE uint32_t LL_RCC_HSI14_IsReady(void)
{
  return (READ_BIT(RCC->CR2, RCC_CR2_HSI14RDY) == (RCC_CR2_HSI14RDY));
 8001886:	2302      	movs	r3, #2
 8001888:	6b62      	ldr	r2, [r4, #52]	; 0x34
  }
  LL_RCC_HSI_SetCalibTrimming(16);
  LL_RCC_HSI14_Enable();

   /* Wait till HSI14 is ready */
  while(LL_RCC_HSI14_IsReady() != 1)
 800188a:	421a      	tst	r2, r3
 800188c:	d0fc      	beq.n	8001888 <SystemClock_Config+0x3c>
  * @param  Value between Min_Data = 0x00 and Max_Data = 0xFF
  * @retval None
  */
__STATIC_INLINE void LL_RCC_HSI14_SetCalibTrimming(uint32_t Value)
{
  MODIFY_REG(RCC->CR2, RCC_CR2_HSI14TRIM, Value << RCC_POSITION_HSI14TRIM);
 800188e:	22f8      	movs	r2, #248	; 0xf8
 8001890:	6b63      	ldr	r3, [r4, #52]	; 0x34
 8001892:	4393      	bics	r3, r2
 8001894:	001a      	movs	r2, r3
 8001896:	2380      	movs	r3, #128	; 0x80
 8001898:	4313      	orrs	r3, r2
 800189a:	6363      	str	r3, [r4, #52]	; 0x34
  SET_BIT(RCC->CR2, RCC_CR2_HSI48ON);
 800189c:	2380      	movs	r3, #128	; 0x80
 800189e:	6b62      	ldr	r2, [r4, #52]	; 0x34
 80018a0:	025b      	lsls	r3, r3, #9
 80018a2:	4313      	orrs	r3, r2
 80018a4:	6363      	str	r3, [r4, #52]	; 0x34
  return (READ_BIT(RCC->CR2, RCC_CR2_HSI48RDY) == (RCC_CR2_HSI48RDY));
 80018a6:	2380      	movs	r3, #128	; 0x80
 80018a8:	029b      	lsls	r3, r3, #10
 80018aa:	6b62      	ldr	r2, [r4, #52]	; 0x34
  }
  LL_RCC_HSI14_SetCalibTrimming(16);
  LL_RCC_HSI48_Enable();

   /* Wait till HSI48 is ready */
  while(LL_RCC_HSI48_IsReady() != 1)
 80018ac:	421a      	tst	r2, r3
 80018ae:	d0fc      	beq.n	80018aa <SystemClock_Config+0x5e>
  *         @arg @ref LL_RCC_SYSCLK_DIV_512
  * @retval None
  */
__STATIC_INLINE void LL_RCC_SetAHBPrescaler(uint32_t Prescaler)
{
  MODIFY_REG(RCC->CFGR, RCC_CFGR_HPRE, Prescaler);
 80018b0:	22f0      	movs	r2, #240	; 0xf0
 80018b2:	6863      	ldr	r3, [r4, #4]
 80018b4:	4393      	bics	r3, r2
 80018b6:	6063      	str	r3, [r4, #4]
  *         @arg @ref LL_RCC_APB1_DIV_16
  * @retval None
  */
__STATIC_INLINE void LL_RCC_SetAPB1Prescaler(uint32_t Prescaler)
{
  MODIFY_REG(RCC->CFGR, RCC_CFGR_PPRE, Prescaler);
 80018b8:	6863      	ldr	r3, [r4, #4]
 80018ba:	4a11      	ldr	r2, [pc, #68]	; (8001900 <SystemClock_Config+0xb4>)
 80018bc:	4013      	ands	r3, r2
  MODIFY_REG(RCC->CFGR, RCC_CFGR_SW, Source);
 80018be:	2203      	movs	r2, #3
  MODIFY_REG(RCC->CFGR, RCC_CFGR_PPRE, Prescaler);
 80018c0:	6063      	str	r3, [r4, #4]
  MODIFY_REG(RCC->CFGR, RCC_CFGR_SW, Source);
 80018c2:	6863      	ldr	r3, [r4, #4]
 80018c4:	4313      	orrs	r3, r2
 80018c6:	6063      	str	r3, [r4, #4]
  return (uint32_t)(READ_BIT(RCC->CFGR, RCC_CFGR_SWS));
 80018c8:	3209      	adds	r2, #9
 80018ca:	6863      	ldr	r3, [r4, #4]
 80018cc:	4013      	ands	r3, r2
  LL_RCC_SetAHBPrescaler(LL_RCC_SYSCLK_DIV_1);
  LL_RCC_SetAPB1Prescaler(LL_RCC_APB1_DIV_1);
  LL_RCC_SetSysClkSource(LL_RCC_SYS_CLKSOURCE_HSI48);

   /* Wait till System clock is ready */
  while(LL_RCC_GetSysClkSource() != LL_RCC_SYS_CLKSOURCE_STATUS_HSI48)
 80018ce:	2b0c      	cmp	r3, #12
 80018d0:	d1fb      	bne.n	80018ca <SystemClock_Config+0x7e>
  {

  }
  LL_SetSystemCoreClock(48000000);
 80018d2:	480c      	ldr	r0, [pc, #48]	; (8001904 <SystemClock_Config+0xb8>)
 80018d4:	f002 fb84 	bl	8003fe0 <LL_SetSystemCoreClock>

   /* Update the time base */
  if (HAL_InitTick (TICK_INT_PRIORITY) != HAL_OK)
 80018d8:	2000      	movs	r0, #0
 80018da:	f000 fb91 	bl	8002000 <HAL_InitTick>
  CLEAR_BIT(RCC->CR2, RCC_CR2_HSI14DIS);
 80018de:	2204      	movs	r2, #4
 80018e0:	6b63      	ldr	r3, [r4, #52]	; 0x34
 80018e2:	4393      	bics	r3, r2
 80018e4:	6363      	str	r3, [r4, #52]	; 0x34
  *         @arg @ref LL_RCC_I2C1_CLKSOURCE_SYSCLK
  * @retval None
  */
__STATIC_INLINE void LL_RCC_SetI2CClockSource(uint32_t I2CxSource)
{
  MODIFY_REG(RCC->CFGR3, RCC_CFGR3_I2C1SW, I2CxSource);
 80018e6:	6b23      	ldr	r3, [r4, #48]	; 0x30
 80018e8:	320c      	adds	r2, #12
 80018ea:	4393      	bics	r3, r2
 80018ec:	6323      	str	r3, [r4, #48]	; 0x30
  *         (*) value not defined in all devices.
  * @retval None
  */
__STATIC_INLINE void LL_RCC_SetUSBClockSource(uint32_t USBxSource)
{
  MODIFY_REG(RCC->CFGR3, RCC_CFGR3_USBSW, USBxSource);
 80018ee:	6b23      	ldr	r3, [r4, #48]	; 0x30
 80018f0:	3270      	adds	r2, #112	; 0x70
 80018f2:	4393      	bics	r3, r2
 80018f4:	6323      	str	r3, [r4, #48]	; 0x30
    Error_Handler();
  }
  LL_RCC_HSI14_EnableADCControl();
  LL_RCC_SetI2CClockSource(LL_RCC_I2C1_CLKSOURCE_HSI);
  LL_RCC_SetUSBClockSource(LL_RCC_USB_CLKSOURCE_HSI48);
}
 80018f6:	bd10      	pop	{r4, pc}
 80018f8:	40022000 	.word	0x40022000
 80018fc:	40021000 	.word	0x40021000
 8001900:	fffff8ff 	.word	0xfffff8ff
 8001904:	02dc6c00 	.word	0x02dc6c00

08001908 <main>:
{
 8001908:	b5f0      	push	{r4, r5, r6, r7, lr}
 800190a:	b093      	sub	sp, #76	; 0x4c
  * @param None
  * @retval None
  */
static void MX_GPIO_Init(void)
{
  LL_EXTI_InitTypeDef EXTI_InitStruct = {0};
 800190c:	ae07      	add	r6, sp, #28
  HAL_Init();
 800190e:	f000 fb9b 	bl	8002048 <HAL_Init>
  SystemClock_Config();
 8001912:	f7ff ff9b 	bl	800184c <SystemClock_Config>
  LL_EXTI_InitTypeDef EXTI_InitStruct = {0};
 8001916:	2208      	movs	r2, #8
 8001918:	2100      	movs	r1, #0
 800191a:	0030      	movs	r0, r6
 800191c:	f003 fce5 	bl	80052ea <memset>
  LL_GPIO_InitTypeDef GPIO_InitStruct = {0};
 8001920:	2218      	movs	r2, #24
 8001922:	2100      	movs	r1, #0
 8001924:	a80c      	add	r0, sp, #48	; 0x30
 8001926:	f003 fce0 	bl	80052ea <memset>

  /* GPIO Ports Clock Enable */
  LL_AHB1_GRP1_EnableClock(LL_AHB1_GRP1_PERIPH_GPIOC);
 800192a:	2080      	movs	r0, #128	; 0x80
 800192c:	0300      	lsls	r0, r0, #12
 800192e:	f7ff fed3 	bl	80016d8 <LL_AHB1_GRP1_EnableClock>
  LL_AHB1_GRP1_EnableClock(LL_AHB1_GRP1_PERIPH_GPIOF);
 8001932:	2080      	movs	r0, #128	; 0x80
 8001934:	03c0      	lsls	r0, r0, #15
 8001936:	f7ff fecf 	bl	80016d8 <LL_AHB1_GRP1_EnableClock>
  LL_AHB1_GRP1_EnableClock(LL_AHB1_GRP1_PERIPH_GPIOA);
 800193a:	2080      	movs	r0, #128	; 0x80
 800193c:	0280      	lsls	r0, r0, #10
 800193e:	f7ff fecb 	bl	80016d8 <LL_AHB1_GRP1_EnableClock>
  LL_AHB1_GRP1_EnableClock(LL_AHB1_GRP1_PERIPH_GPIOB);
 8001942:	2080      	movs	r0, #128	; 0x80
 8001944:	02c0      	lsls	r0, r0, #11
 8001946:	f7ff fec7 	bl	80016d8 <LL_AHB1_GRP1_EnableClock>
  *         @arg @ref LL_GPIO_PIN_ALL
  * @retval None
  */
__STATIC_INLINE void LL_GPIO_ResetOutputPin(GPIO_TypeDef *GPIOx, uint32_t PinMask)
{
  WRITE_REG(GPIOx->BRR, PinMask);
 800194a:	2480      	movs	r4, #128	; 0x80
 800194c:	2080      	movs	r0, #128	; 0x80
 800194e:	2280      	movs	r2, #128	; 0x80
 8001950:	4bed      	ldr	r3, [pc, #948]	; (8001d08 <main+0x400>)
 8001952:	0180      	lsls	r0, r0, #6
 8001954:	0212      	lsls	r2, r2, #8
 8001956:	01e4      	lsls	r4, r4, #7
 8001958:	6298      	str	r0, [r3, #40]	; 0x28
 800195a:	629c      	str	r4, [r3, #40]	; 0x28
 800195c:	629a      	str	r2, [r3, #40]	; 0x28
 800195e:	2390      	movs	r3, #144	; 0x90
 8001960:	2104      	movs	r1, #4
 8001962:	05db      	lsls	r3, r3, #23
 8001964:	2701      	movs	r7, #1
 8001966:	6299      	str	r1, [r3, #40]	; 0x28
 8001968:	2302      	movs	r3, #2
 800196a:	4de8      	ldr	r5, [pc, #928]	; (8001d0c <main+0x404>)
 800196c:	62af      	str	r7, [r5, #40]	; 0x28
 800196e:	62ab      	str	r3, [r5, #40]	; 0x28
 8001970:	62a9      	str	r1, [r5, #40]	; 0x28
 8001972:	1849      	adds	r1, r1, r1
 8001974:	62a9      	str	r1, [r5, #40]	; 0x28
 8001976:	3108      	adds	r1, #8
 8001978:	62a9      	str	r1, [r5, #40]	; 0x28
 800197a:	331e      	adds	r3, #30
 800197c:	3130      	adds	r1, #48	; 0x30
 800197e:	62ab      	str	r3, [r5, #40]	; 0x28
 8001980:	62a9      	str	r1, [r5, #40]	; 0x28
 8001982:	3140      	adds	r1, #64	; 0x40
 8001984:	62a9      	str	r1, [r5, #40]	; 0x28
  WRITE_REG(GPIOx->BSRR, PinMask);
 8001986:	2380      	movs	r3, #128	; 0x80
 8001988:	2180      	movs	r1, #128	; 0x80
 800198a:	00db      	lsls	r3, r3, #3
 800198c:	0109      	lsls	r1, r1, #4
 800198e:	61ab      	str	r3, [r5, #24]
 8001990:	61a9      	str	r1, [r5, #24]
 8001992:	2180      	movs	r1, #128	; 0x80
 8001994:	0149      	lsls	r1, r1, #5
 8001996:	61a9      	str	r1, [r5, #24]
 8001998:	61a8      	str	r0, [r5, #24]
 800199a:	61ac      	str	r4, [r5, #24]
  LL_GPIO_SetOutputPin(PWR1_GPIO_Port, PWR1_Pin);

  /**/
  GPIO_InitStruct.Pin = FND_Select0_Pin;
  GPIO_InitStruct.Mode = LL_GPIO_MODE_OUTPUT;
  GPIO_InitStruct.Speed = LL_GPIO_SPEED_FREQ_LOW;
 800199c:	2400      	movs	r4, #0
 800199e:	61aa      	str	r2, [r5, #24]
  GPIO_InitStruct.Pin = FND_Select0_Pin;
 80019a0:	900c      	str	r0, [sp, #48]	; 0x30
  GPIO_InitStruct.OutputType = LL_GPIO_OUTPUT_PUSHPULL;
  GPIO_InitStruct.Pull = LL_GPIO_PULL_NO;
  LL_GPIO_Init(FND_Select0_GPIO_Port, &GPIO_InitStruct);
 80019a2:	a80c      	add	r0, sp, #48	; 0x30
 80019a4:	0001      	movs	r1, r0
 80019a6:	48d8      	ldr	r0, [pc, #864]	; (8001d08 <main+0x400>)
  GPIO_InitStruct.Mode = LL_GPIO_MODE_OUTPUT;
 80019a8:	970d      	str	r7, [sp, #52]	; 0x34
  GPIO_InitStruct.Speed = LL_GPIO_SPEED_FREQ_LOW;
 80019aa:	940e      	str	r4, [sp, #56]	; 0x38
  GPIO_InitStruct.OutputType = LL_GPIO_OUTPUT_PUSHPULL;
 80019ac:	940f      	str	r4, [sp, #60]	; 0x3c
  GPIO_InitStruct.Pull = LL_GPIO_PULL_NO;
 80019ae:	9410      	str	r4, [sp, #64]	; 0x40
  LL_GPIO_Init(FND_Select0_GPIO_Port, &GPIO_InitStruct);
 80019b0:	f001 ff1a 	bl	80037e8 <LL_GPIO_Init>

  /**/
  GPIO_InitStruct.Pin = FND_Select1_Pin;
 80019b4:	2280      	movs	r2, #128	; 0x80
  GPIO_InitStruct.Mode = LL_GPIO_MODE_OUTPUT;
  GPIO_InitStruct.Speed = LL_GPIO_SPEED_FREQ_LOW;
  GPIO_InitStruct.OutputType = LL_GPIO_OUTPUT_PUSHPULL;
  GPIO_InitStruct.Pull = LL_GPIO_PULL_NO;
  LL_GPIO_Init(FND_Select1_GPIO_Port, &GPIO_InitStruct);
 80019b6:	a80c      	add	r0, sp, #48	; 0x30
  GPIO_InitStruct.Pin = FND_Select1_Pin;
 80019b8:	01d2      	lsls	r2, r2, #7
  LL_GPIO_Init(FND_Select1_GPIO_Port, &GPIO_InitStruct);
 80019ba:	0001      	movs	r1, r0
 80019bc:	48d2      	ldr	r0, [pc, #840]	; (8001d08 <main+0x400>)
  GPIO_InitStruct.Pin = FND_Select1_Pin;
 80019be:	920c      	str	r2, [sp, #48]	; 0x30
  GPIO_InitStruct.Mode = LL_GPIO_MODE_OUTPUT;
 80019c0:	970d      	str	r7, [sp, #52]	; 0x34
  GPIO_InitStruct.Speed = LL_GPIO_SPEED_FREQ_LOW;
 80019c2:	940e      	str	r4, [sp, #56]	; 0x38
  GPIO_InitStruct.OutputType = LL_GPIO_OUTPUT_PUSHPULL;
 80019c4:	940f      	str	r4, [sp, #60]	; 0x3c
  GPIO_InitStruct.Pull = LL_GPIO_PULL_NO;
 80019c6:	9410      	str	r4, [sp, #64]	; 0x40
  LL_GPIO_Init(FND_Select1_GPIO_Port, &GPIO_InitStruct);
 80019c8:	f001 ff0e 	bl	80037e8 <LL_GPIO_Init>

  /**/
  GPIO_InitStruct.Pin = FND_Select2_Pin;
 80019cc:	2280      	movs	r2, #128	; 0x80
  GPIO_InitStruct.Mode = LL_GPIO_MODE_OUTPUT;
  GPIO_InitStruct.Speed = LL_GPIO_SPEED_FREQ_LOW;
  GPIO_InitStruct.OutputType = LL_GPIO_OUTPUT_PUSHPULL;
  GPIO_InitStruct.Pull = LL_GPIO_PULL_NO;
  LL_GPIO_Init(FND_Select2_GPIO_Port, &GPIO_InitStruct);
 80019ce:	a80c      	add	r0, sp, #48	; 0x30
  GPIO_InitStruct.Pin = FND_Select2_Pin;
 80019d0:	0212      	lsls	r2, r2, #8
  LL_GPIO_Init(FND_Select2_GPIO_Port, &GPIO_InitStruct);
 80019d2:	0001      	movs	r1, r0
 80019d4:	48cc      	ldr	r0, [pc, #816]	; (8001d08 <main+0x400>)
  GPIO_InitStruct.Pin = FND_Select2_Pin;
 80019d6:	920c      	str	r2, [sp, #48]	; 0x30
  GPIO_InitStruct.Mode = LL_GPIO_MODE_OUTPUT;
 80019d8:	970d      	str	r7, [sp, #52]	; 0x34
  GPIO_InitStruct.Speed = LL_GPIO_SPEED_FREQ_LOW;
 80019da:	940e      	str	r4, [sp, #56]	; 0x38
  GPIO_InitStruct.OutputType = LL_GPIO_OUTPUT_PUSHPULL;
 80019dc:	940f      	str	r4, [sp, #60]	; 0x3c
  GPIO_InitStruct.Pull = LL_GPIO_PULL_NO;
 80019de:	9410      	str	r4, [sp, #64]	; 0x40
  LL_GPIO_Init(FND_Select2_GPIO_Port, &GPIO_InitStruct);
 80019e0:	f001 ff02 	bl	80037e8 <LL_GPIO_Init>

  /**/
  GPIO_InitStruct.Pin = BATT_LEVEL_Pin;
  GPIO_InitStruct.Mode = LL_GPIO_MODE_ANALOG;
 80019e4:	2003      	movs	r0, #3
 80019e6:	900d      	str	r0, [sp, #52]	; 0x34
  GPIO_InitStruct.Pull = LL_GPIO_PULL_NO;
  LL_GPIO_Init(BATT_LEVEL_GPIO_Port, &GPIO_InitStruct);
 80019e8:	a80c      	add	r0, sp, #48	; 0x30
 80019ea:	0001      	movs	r1, r0
 80019ec:	2090      	movs	r0, #144	; 0x90
 80019ee:	05c0      	lsls	r0, r0, #23
  GPIO_InitStruct.Pin = BATT_LEVEL_Pin;
 80019f0:	970c      	str	r7, [sp, #48]	; 0x30
  GPIO_InitStruct.Pull = LL_GPIO_PULL_NO;
 80019f2:	9410      	str	r4, [sp, #64]	; 0x40
  LL_GPIO_Init(BATT_LEVEL_GPIO_Port, &GPIO_InitStruct);
 80019f4:	f001 fef8 	bl	80037e8 <LL_GPIO_Init>

  /**/
  GPIO_InitStruct.Pin = S_CAP_CTRL_Pin;
 80019f8:	2104      	movs	r1, #4
  GPIO_InitStruct.Mode = LL_GPIO_MODE_OUTPUT;
  GPIO_InitStruct.Speed = LL_GPIO_SPEED_FREQ_LOW;
  GPIO_InitStruct.OutputType = LL_GPIO_OUTPUT_PUSHPULL;
  GPIO_InitStruct.Pull = LL_GPIO_PULL_NO;
  LL_GPIO_Init(S_CAP_CTRL_GPIO_Port, &GPIO_InitStruct);
 80019fa:	a80c      	add	r0, sp, #48	; 0x30
  GPIO_InitStruct.Pin = S_CAP_CTRL_Pin;
 80019fc:	910c      	str	r1, [sp, #48]	; 0x30
  LL_GPIO_Init(S_CAP_CTRL_GPIO_Port, &GPIO_InitStruct);
 80019fe:	0001      	movs	r1, r0
 8001a00:	2090      	movs	r0, #144	; 0x90
 8001a02:	05c0      	lsls	r0, r0, #23
  GPIO_InitStruct.Mode = LL_GPIO_MODE_OUTPUT;
 8001a04:	970d      	str	r7, [sp, #52]	; 0x34
  GPIO_InitStruct.Speed = LL_GPIO_SPEED_FREQ_LOW;
 8001a06:	940e      	str	r4, [sp, #56]	; 0x38
  GPIO_InitStruct.OutputType = LL_GPIO_OUTPUT_PUSHPULL;
 8001a08:	940f      	str	r4, [sp, #60]	; 0x3c
  GPIO_InitStruct.Pull = LL_GPIO_PULL_NO;
 8001a0a:	9410      	str	r4, [sp, #64]	; 0x40
  LL_GPIO_Init(S_CAP_CTRL_GPIO_Port, &GPIO_InitStruct);
 8001a0c:	f001 feec 	bl	80037e8 <LL_GPIO_Init>
  GPIO_InitStruct.Pin = FND0_Pin;
  GPIO_InitStruct.Mode = LL_GPIO_MODE_OUTPUT;
  GPIO_InitStruct.Speed = LL_GPIO_SPEED_FREQ_LOW;
  GPIO_InitStruct.OutputType = LL_GPIO_OUTPUT_PUSHPULL;
  GPIO_InitStruct.Pull = LL_GPIO_PULL_NO;
  LL_GPIO_Init(FND0_GPIO_Port, &GPIO_InitStruct);
 8001a10:	a80c      	add	r0, sp, #48	; 0x30
 8001a12:	0001      	movs	r1, r0
 8001a14:	0028      	movs	r0, r5
  GPIO_InitStruct.Pin = FND0_Pin;
 8001a16:	970c      	str	r7, [sp, #48]	; 0x30
  GPIO_InitStruct.Mode = LL_GPIO_MODE_OUTPUT;
 8001a18:	970d      	str	r7, [sp, #52]	; 0x34
  GPIO_InitStruct.Speed = LL_GPIO_SPEED_FREQ_LOW;
 8001a1a:	940e      	str	r4, [sp, #56]	; 0x38
  GPIO_InitStruct.OutputType = LL_GPIO_OUTPUT_PUSHPULL;
 8001a1c:	940f      	str	r4, [sp, #60]	; 0x3c
  GPIO_InitStruct.Pull = LL_GPIO_PULL_NO;
 8001a1e:	9410      	str	r4, [sp, #64]	; 0x40
  LL_GPIO_Init(FND0_GPIO_Port, &GPIO_InitStruct);
 8001a20:	f001 fee2 	bl	80037e8 <LL_GPIO_Init>

  /**/
  GPIO_InitStruct.Pin = FND1_Pin;
 8001a24:	2302      	movs	r3, #2
  GPIO_InitStruct.Mode = LL_GPIO_MODE_OUTPUT;
  GPIO_InitStruct.Speed = LL_GPIO_SPEED_FREQ_LOW;
  GPIO_InitStruct.OutputType = LL_GPIO_OUTPUT_PUSHPULL;
  GPIO_InitStruct.Pull = LL_GPIO_PULL_NO;
  LL_GPIO_Init(FND1_GPIO_Port, &GPIO_InitStruct);
 8001a26:	a80c      	add	r0, sp, #48	; 0x30
 8001a28:	0001      	movs	r1, r0
 8001a2a:	0028      	movs	r0, r5
  GPIO_InitStruct.Pin = FND1_Pin;
 8001a2c:	930c      	str	r3, [sp, #48]	; 0x30
  GPIO_InitStruct.Mode = LL_GPIO_MODE_OUTPUT;
 8001a2e:	970d      	str	r7, [sp, #52]	; 0x34
  GPIO_InitStruct.Speed = LL_GPIO_SPEED_FREQ_LOW;
 8001a30:	940e      	str	r4, [sp, #56]	; 0x38
  GPIO_InitStruct.OutputType = LL_GPIO_OUTPUT_PUSHPULL;
 8001a32:	940f      	str	r4, [sp, #60]	; 0x3c
  GPIO_InitStruct.Pull = LL_GPIO_PULL_NO;
 8001a34:	9410      	str	r4, [sp, #64]	; 0x40
  LL_GPIO_Init(FND1_GPIO_Port, &GPIO_InitStruct);
 8001a36:	f001 fed7 	bl	80037e8 <LL_GPIO_Init>

  /**/
  GPIO_InitStruct.Pin = FND2_Pin;
 8001a3a:	2104      	movs	r1, #4
  GPIO_InitStruct.Mode = LL_GPIO_MODE_OUTPUT;
  GPIO_InitStruct.Speed = LL_GPIO_SPEED_FREQ_LOW;
  GPIO_InitStruct.OutputType = LL_GPIO_OUTPUT_PUSHPULL;
  GPIO_InitStruct.Pull = LL_GPIO_PULL_NO;
  LL_GPIO_Init(FND2_GPIO_Port, &GPIO_InitStruct);
 8001a3c:	a80c      	add	r0, sp, #48	; 0x30
  GPIO_InitStruct.Pin = FND2_Pin;
 8001a3e:	910c      	str	r1, [sp, #48]	; 0x30
  LL_GPIO_Init(FND2_GPIO_Port, &GPIO_InitStruct);
 8001a40:	0001      	movs	r1, r0
 8001a42:	0028      	movs	r0, r5
  GPIO_InitStruct.Mode = LL_GPIO_MODE_OUTPUT;
 8001a44:	970d      	str	r7, [sp, #52]	; 0x34
  GPIO_InitStruct.Speed = LL_GPIO_SPEED_FREQ_LOW;
 8001a46:	940e      	str	r4, [sp, #56]	; 0x38
  GPIO_InitStruct.OutputType = LL_GPIO_OUTPUT_PUSHPULL;
 8001a48:	940f      	str	r4, [sp, #60]	; 0x3c
  GPIO_InitStruct.Pull = LL_GPIO_PULL_NO;
 8001a4a:	9410      	str	r4, [sp, #64]	; 0x40
  LL_GPIO_Init(FND2_GPIO_Port, &GPIO_InitStruct);
 8001a4c:	f001 fecc 	bl	80037e8 <LL_GPIO_Init>

  /**/
  GPIO_InitStruct.Pin = PWR6_Pin;
 8001a50:	2380      	movs	r3, #128	; 0x80
 8001a52:	00db      	lsls	r3, r3, #3
 8001a54:	930c      	str	r3, [sp, #48]	; 0x30
  GPIO_InitStruct.Mode = LL_GPIO_MODE_OUTPUT;
  GPIO_InitStruct.Speed = LL_GPIO_SPEED_FREQ_LOW;
  GPIO_InitStruct.OutputType = LL_GPIO_OUTPUT_OPENDRAIN;
  GPIO_InitStruct.Pull = LL_GPIO_PULL_UP;
  LL_GPIO_Init(PWR6_GPIO_Port, &GPIO_InitStruct);
 8001a56:	ab0c      	add	r3, sp, #48	; 0x30
 8001a58:	0019      	movs	r1, r3
 8001a5a:	0028      	movs	r0, r5
  GPIO_InitStruct.Mode = LL_GPIO_MODE_OUTPUT;
 8001a5c:	970d      	str	r7, [sp, #52]	; 0x34
  GPIO_InitStruct.Speed = LL_GPIO_SPEED_FREQ_LOW;
 8001a5e:	940e      	str	r4, [sp, #56]	; 0x38
  GPIO_InitStruct.OutputType = LL_GPIO_OUTPUT_OPENDRAIN;
 8001a60:	970f      	str	r7, [sp, #60]	; 0x3c
  GPIO_InitStruct.Pull = LL_GPIO_PULL_UP;
 8001a62:	9710      	str	r7, [sp, #64]	; 0x40
  LL_GPIO_Init(PWR6_GPIO_Port, &GPIO_InitStruct);
 8001a64:	f001 fec0 	bl	80037e8 <LL_GPIO_Init>

  /**/
  GPIO_InitStruct.Pin = PWR5_Pin;
 8001a68:	2080      	movs	r0, #128	; 0x80
 8001a6a:	0100      	lsls	r0, r0, #4
 8001a6c:	900c      	str	r0, [sp, #48]	; 0x30
  GPIO_InitStruct.Mode = LL_GPIO_MODE_OUTPUT;
  GPIO_InitStruct.Speed = LL_GPIO_SPEED_FREQ_LOW;
  GPIO_InitStruct.OutputType = LL_GPIO_OUTPUT_OPENDRAIN;
  GPIO_InitStruct.Pull = LL_GPIO_PULL_UP;
  LL_GPIO_Init(PWR5_GPIO_Port, &GPIO_InitStruct);
 8001a6e:	a80c      	add	r0, sp, #48	; 0x30
 8001a70:	0001      	movs	r1, r0
 8001a72:	0028      	movs	r0, r5
  GPIO_InitStruct.Mode = LL_GPIO_MODE_OUTPUT;
 8001a74:	970d      	str	r7, [sp, #52]	; 0x34
  GPIO_InitStruct.Speed = LL_GPIO_SPEED_FREQ_LOW;
 8001a76:	940e      	str	r4, [sp, #56]	; 0x38
  GPIO_InitStruct.OutputType = LL_GPIO_OUTPUT_OPENDRAIN;
 8001a78:	970f      	str	r7, [sp, #60]	; 0x3c
  GPIO_InitStruct.Pull = LL_GPIO_PULL_UP;
 8001a7a:	9710      	str	r7, [sp, #64]	; 0x40
  LL_GPIO_Init(PWR5_GPIO_Port, &GPIO_InitStruct);
 8001a7c:	f001 feb4 	bl	80037e8 <LL_GPIO_Init>

  /**/
  GPIO_InitStruct.Pin = PWR4_Pin;
 8001a80:	2180      	movs	r1, #128	; 0x80
  GPIO_InitStruct.Mode = LL_GPIO_MODE_OUTPUT;
  GPIO_InitStruct.Speed = LL_GPIO_SPEED_FREQ_LOW;
  GPIO_InitStruct.OutputType = LL_GPIO_OUTPUT_OPENDRAIN;
  GPIO_InitStruct.Pull = LL_GPIO_PULL_UP;
  LL_GPIO_Init(PWR4_GPIO_Port, &GPIO_InitStruct);
 8001a82:	a80c      	add	r0, sp, #48	; 0x30
  GPIO_InitStruct.Pin = PWR4_Pin;
 8001a84:	0149      	lsls	r1, r1, #5
 8001a86:	910c      	str	r1, [sp, #48]	; 0x30
  LL_GPIO_Init(PWR4_GPIO_Port, &GPIO_InitStruct);
 8001a88:	0001      	movs	r1, r0
 8001a8a:	0028      	movs	r0, r5
  GPIO_InitStruct.Mode = LL_GPIO_MODE_OUTPUT;
 8001a8c:	970d      	str	r7, [sp, #52]	; 0x34
  GPIO_InitStruct.Speed = LL_GPIO_SPEED_FREQ_LOW;
 8001a8e:	940e      	str	r4, [sp, #56]	; 0x38
  GPIO_InitStruct.OutputType = LL_GPIO_OUTPUT_OPENDRAIN;
 8001a90:	970f      	str	r7, [sp, #60]	; 0x3c
  GPIO_InitStruct.Pull = LL_GPIO_PULL_UP;
 8001a92:	9710      	str	r7, [sp, #64]	; 0x40
  LL_GPIO_Init(PWR4_GPIO_Port, &GPIO_InitStruct);
 8001a94:	f001 fea8 	bl	80037e8 <LL_GPIO_Init>

  /**/
  GPIO_InitStruct.Pin = PWR3_Pin;
 8001a98:	2080      	movs	r0, #128	; 0x80
 8001a9a:	0180      	lsls	r0, r0, #6
 8001a9c:	900c      	str	r0, [sp, #48]	; 0x30
  GPIO_InitStruct.Mode = LL_GPIO_MODE_OUTPUT;
  GPIO_InitStruct.Speed = LL_GPIO_SPEED_FREQ_LOW;
  GPIO_InitStruct.OutputType = LL_GPIO_OUTPUT_OPENDRAIN;
  GPIO_InitStruct.Pull = LL_GPIO_PULL_UP;
  LL_GPIO_Init(PWR3_GPIO_Port, &GPIO_InitStruct);
 8001a9e:	a80c      	add	r0, sp, #48	; 0x30
 8001aa0:	0001      	movs	r1, r0
 8001aa2:	0028      	movs	r0, r5
  GPIO_InitStruct.Mode = LL_GPIO_MODE_OUTPUT;
 8001aa4:	970d      	str	r7, [sp, #52]	; 0x34
  GPIO_InitStruct.Speed = LL_GPIO_SPEED_FREQ_LOW;
 8001aa6:	940e      	str	r4, [sp, #56]	; 0x38
  GPIO_InitStruct.OutputType = LL_GPIO_OUTPUT_OPENDRAIN;
 8001aa8:	970f      	str	r7, [sp, #60]	; 0x3c
  GPIO_InitStruct.Pull = LL_GPIO_PULL_UP;
 8001aaa:	9710      	str	r7, [sp, #64]	; 0x40
  LL_GPIO_Init(PWR3_GPIO_Port, &GPIO_InitStruct);
 8001aac:	f001 fe9c 	bl	80037e8 <LL_GPIO_Init>

  /**/
  GPIO_InitStruct.Pin = PWR2_Pin;
 8001ab0:	2280      	movs	r2, #128	; 0x80
  GPIO_InitStruct.Mode = LL_GPIO_MODE_OUTPUT;
  GPIO_InitStruct.Speed = LL_GPIO_SPEED_FREQ_LOW;
  GPIO_InitStruct.OutputType = LL_GPIO_OUTPUT_OPENDRAIN;
  GPIO_InitStruct.Pull = LL_GPIO_PULL_UP;
  LL_GPIO_Init(PWR2_GPIO_Port, &GPIO_InitStruct);
 8001ab2:	a80c      	add	r0, sp, #48	; 0x30
  GPIO_InitStruct.Pin = PWR2_Pin;
 8001ab4:	01d2      	lsls	r2, r2, #7
  LL_GPIO_Init(PWR2_GPIO_Port, &GPIO_InitStruct);
 8001ab6:	0001      	movs	r1, r0
 8001ab8:	0028      	movs	r0, r5
  GPIO_InitStruct.Pin = PWR2_Pin;
 8001aba:	920c      	str	r2, [sp, #48]	; 0x30
  GPIO_InitStruct.Mode = LL_GPIO_MODE_OUTPUT;
 8001abc:	970d      	str	r7, [sp, #52]	; 0x34
  GPIO_InitStruct.Speed = LL_GPIO_SPEED_FREQ_LOW;
 8001abe:	940e      	str	r4, [sp, #56]	; 0x38
  GPIO_InitStruct.OutputType = LL_GPIO_OUTPUT_OPENDRAIN;
 8001ac0:	970f      	str	r7, [sp, #60]	; 0x3c
  GPIO_InitStruct.Pull = LL_GPIO_PULL_UP;
 8001ac2:	9710      	str	r7, [sp, #64]	; 0x40
  LL_GPIO_Init(PWR2_GPIO_Port, &GPIO_InitStruct);
 8001ac4:	f001 fe90 	bl	80037e8 <LL_GPIO_Init>

  /**/
  GPIO_InitStruct.Pin = PWR1_Pin;
 8001ac8:	2280      	movs	r2, #128	; 0x80
  GPIO_InitStruct.Mode = LL_GPIO_MODE_OUTPUT;
  GPIO_InitStruct.Speed = LL_GPIO_SPEED_FREQ_LOW;
  GPIO_InitStruct.OutputType = LL_GPIO_OUTPUT_OPENDRAIN;
  GPIO_InitStruct.Pull = LL_GPIO_PULL_UP;
  LL_GPIO_Init(PWR1_GPIO_Port, &GPIO_InitStruct);
 8001aca:	a80c      	add	r0, sp, #48	; 0x30
  GPIO_InitStruct.Pin = PWR1_Pin;
 8001acc:	0212      	lsls	r2, r2, #8
  LL_GPIO_Init(PWR1_GPIO_Port, &GPIO_InitStruct);
 8001ace:	0001      	movs	r1, r0
 8001ad0:	0028      	movs	r0, r5
  GPIO_InitStruct.Pin = PWR1_Pin;
 8001ad2:	920c      	str	r2, [sp, #48]	; 0x30
  GPIO_InitStruct.Mode = LL_GPIO_MODE_OUTPUT;
 8001ad4:	970d      	str	r7, [sp, #52]	; 0x34
  GPIO_InitStruct.Speed = LL_GPIO_SPEED_FREQ_LOW;
 8001ad6:	940e      	str	r4, [sp, #56]	; 0x38
  GPIO_InitStruct.OutputType = LL_GPIO_OUTPUT_OPENDRAIN;
 8001ad8:	970f      	str	r7, [sp, #60]	; 0x3c
  GPIO_InitStruct.Pull = LL_GPIO_PULL_UP;
 8001ada:	9710      	str	r7, [sp, #64]	; 0x40
  LL_GPIO_Init(PWR1_GPIO_Port, &GPIO_InitStruct);
 8001adc:	f001 fe84 	bl	80037e8 <LL_GPIO_Init>

  /**/
  GPIO_InitStruct.Pin = FND3_Pin;
 8001ae0:	2208      	movs	r2, #8
  GPIO_InitStruct.Mode = LL_GPIO_MODE_OUTPUT;
  GPIO_InitStruct.Speed = LL_GPIO_SPEED_FREQ_LOW;
  GPIO_InitStruct.OutputType = LL_GPIO_OUTPUT_PUSHPULL;
  GPIO_InitStruct.Pull = LL_GPIO_PULL_NO;
  LL_GPIO_Init(FND3_GPIO_Port, &GPIO_InitStruct);
 8001ae2:	a80c      	add	r0, sp, #48	; 0x30
 8001ae4:	0001      	movs	r1, r0
 8001ae6:	0028      	movs	r0, r5
  GPIO_InitStruct.Pin = FND3_Pin;
 8001ae8:	920c      	str	r2, [sp, #48]	; 0x30
  GPIO_InitStruct.Mode = LL_GPIO_MODE_OUTPUT;
 8001aea:	970d      	str	r7, [sp, #52]	; 0x34
  GPIO_InitStruct.Speed = LL_GPIO_SPEED_FREQ_LOW;
 8001aec:	940e      	str	r4, [sp, #56]	; 0x38
  GPIO_InitStruct.OutputType = LL_GPIO_OUTPUT_PUSHPULL;
 8001aee:	940f      	str	r4, [sp, #60]	; 0x3c
  GPIO_InitStruct.Pull = LL_GPIO_PULL_NO;
 8001af0:	9410      	str	r4, [sp, #64]	; 0x40
  LL_GPIO_Init(FND3_GPIO_Port, &GPIO_InitStruct);
 8001af2:	f001 fe79 	bl	80037e8 <LL_GPIO_Init>

  /**/
  GPIO_InitStruct.Pin = FND4_Pin;
 8001af6:	2210      	movs	r2, #16
  GPIO_InitStruct.Mode = LL_GPIO_MODE_OUTPUT;
  GPIO_InitStruct.Speed = LL_GPIO_SPEED_FREQ_LOW;
  GPIO_InitStruct.OutputType = LL_GPIO_OUTPUT_PUSHPULL;
  GPIO_InitStruct.Pull = LL_GPIO_PULL_NO;
  LL_GPIO_Init(FND4_GPIO_Port, &GPIO_InitStruct);
 8001af8:	a80c      	add	r0, sp, #48	; 0x30
 8001afa:	0001      	movs	r1, r0
 8001afc:	0028      	movs	r0, r5
  GPIO_InitStruct.Pin = FND4_Pin;
 8001afe:	920c      	str	r2, [sp, #48]	; 0x30
  GPIO_InitStruct.Mode = LL_GPIO_MODE_OUTPUT;
 8001b00:	970d      	str	r7, [sp, #52]	; 0x34
  GPIO_InitStruct.Speed = LL_GPIO_SPEED_FREQ_LOW;
 8001b02:	940e      	str	r4, [sp, #56]	; 0x38
  GPIO_InitStruct.OutputType = LL_GPIO_OUTPUT_PUSHPULL;
 8001b04:	940f      	str	r4, [sp, #60]	; 0x3c
  GPIO_InitStruct.Pull = LL_GPIO_PULL_NO;
 8001b06:	9410      	str	r4, [sp, #64]	; 0x40
  LL_GPIO_Init(FND4_GPIO_Port, &GPIO_InitStruct);
 8001b08:	f001 fe6e 	bl	80037e8 <LL_GPIO_Init>

  /**/
  GPIO_InitStruct.Pin = FND5_Pin;
 8001b0c:	2220      	movs	r2, #32
  GPIO_InitStruct.Mode = LL_GPIO_MODE_OUTPUT;
  GPIO_InitStruct.Speed = LL_GPIO_SPEED_FREQ_LOW;
  GPIO_InitStruct.OutputType = LL_GPIO_OUTPUT_PUSHPULL;
  GPIO_InitStruct.Pull = LL_GPIO_PULL_NO;
  LL_GPIO_Init(FND5_GPIO_Port, &GPIO_InitStruct);
 8001b0e:	a80c      	add	r0, sp, #48	; 0x30
 8001b10:	0001      	movs	r1, r0
 8001b12:	0028      	movs	r0, r5
  GPIO_InitStruct.Pin = FND5_Pin;
 8001b14:	920c      	str	r2, [sp, #48]	; 0x30
  GPIO_InitStruct.Mode = LL_GPIO_MODE_OUTPUT;
 8001b16:	970d      	str	r7, [sp, #52]	; 0x34
  GPIO_InitStruct.Speed = LL_GPIO_SPEED_FREQ_LOW;
 8001b18:	940e      	str	r4, [sp, #56]	; 0x38
  GPIO_InitStruct.OutputType = LL_GPIO_OUTPUT_PUSHPULL;
 8001b1a:	940f      	str	r4, [sp, #60]	; 0x3c
  GPIO_InitStruct.Pull = LL_GPIO_PULL_NO;
 8001b1c:	9410      	str	r4, [sp, #64]	; 0x40
  LL_GPIO_Init(FND5_GPIO_Port, &GPIO_InitStruct);
 8001b1e:	f001 fe63 	bl	80037e8 <LL_GPIO_Init>

  /**/
  GPIO_InitStruct.Pin = FND6_Pin;
 8001b22:	2240      	movs	r2, #64	; 0x40
 8001b24:	920c      	str	r2, [sp, #48]	; 0x30
  GPIO_InitStruct.Mode = LL_GPIO_MODE_OUTPUT;
  GPIO_InitStruct.Speed = LL_GPIO_SPEED_FREQ_LOW;
  GPIO_InitStruct.OutputType = LL_GPIO_OUTPUT_PUSHPULL;
  GPIO_InitStruct.Pull = LL_GPIO_PULL_NO;
  LL_GPIO_Init(FND6_GPIO_Port, &GPIO_InitStruct);
 8001b26:	aa0c      	add	r2, sp, #48	; 0x30
 8001b28:	0011      	movs	r1, r2
 8001b2a:	0028      	movs	r0, r5
  GPIO_InitStruct.Mode = LL_GPIO_MODE_OUTPUT;
 8001b2c:	970d      	str	r7, [sp, #52]	; 0x34
  GPIO_InitStruct.Speed = LL_GPIO_SPEED_FREQ_LOW;
 8001b2e:	940e      	str	r4, [sp, #56]	; 0x38
  GPIO_InitStruct.OutputType = LL_GPIO_OUTPUT_PUSHPULL;
 8001b30:	940f      	str	r4, [sp, #60]	; 0x3c
  GPIO_InitStruct.Pull = LL_GPIO_PULL_NO;
 8001b32:	9410      	str	r4, [sp, #64]	; 0x40
  LL_GPIO_Init(FND6_GPIO_Port, &GPIO_InitStruct);
 8001b34:	f001 fe58 	bl	80037e8 <LL_GPIO_Init>

  /**/
  GPIO_InitStruct.Pin = FND7_Pin;
 8001b38:	2080      	movs	r0, #128	; 0x80
  GPIO_InitStruct.Mode = LL_GPIO_MODE_OUTPUT;
  GPIO_InitStruct.Speed = LL_GPIO_SPEED_FREQ_LOW;
  GPIO_InitStruct.OutputType = LL_GPIO_OUTPUT_PUSHPULL;
  GPIO_InitStruct.Pull = LL_GPIO_PULL_NO;
  LL_GPIO_Init(FND7_GPIO_Port, &GPIO_InitStruct);
 8001b3a:	aa0c      	add	r2, sp, #48	; 0x30
 8001b3c:	0011      	movs	r1, r2
  GPIO_InitStruct.Pin = FND7_Pin;
 8001b3e:	900c      	str	r0, [sp, #48]	; 0x30
  LL_GPIO_Init(FND7_GPIO_Port, &GPIO_InitStruct);
 8001b40:	0028      	movs	r0, r5
  GPIO_InitStruct.Mode = LL_GPIO_MODE_OUTPUT;
 8001b42:	970d      	str	r7, [sp, #52]	; 0x34
  GPIO_InitStruct.Speed = LL_GPIO_SPEED_FREQ_LOW;
 8001b44:	940e      	str	r4, [sp, #56]	; 0x38
  GPIO_InitStruct.OutputType = LL_GPIO_OUTPUT_PUSHPULL;
 8001b46:	940f      	str	r4, [sp, #60]	; 0x3c
  GPIO_InitStruct.Pull = LL_GPIO_PULL_NO;
 8001b48:	9410      	str	r4, [sp, #64]	; 0x40
  LL_GPIO_Init(FND7_GPIO_Port, &GPIO_InitStruct);
 8001b4a:	f001 fe4d 	bl	80037e8 <LL_GPIO_Init>
  MODIFY_REG(SYSCFG->EXTICR[Line & 0xFF], SYSCFG_EXTICR1_EXTI0 << (Line >> 16), Port << (Line >> 16));
 8001b4e:	210f      	movs	r1, #15
 8001b50:	4a6f      	ldr	r2, [pc, #444]	; (8001d10 <main+0x408>)
  /**/
  EXTI_InitStruct.Line_0_31 = LL_EXTI_LINE_8;
  EXTI_InitStruct.LineCommand = ENABLE;
  EXTI_InitStruct.Mode = LL_EXTI_MODE_IT;
  EXTI_InitStruct.Trigger = LL_EXTI_TRIGGER_RISING_FALLING;
  LL_EXTI_Init(&EXTI_InitStruct);
 8001b52:	0030      	movs	r0, r6
 8001b54:	6913      	ldr	r3, [r2, #16]
  __HAL_RCC_DMA1_CLK_ENABLE();
 8001b56:	4d6f      	ldr	r5, [pc, #444]	; (8001d14 <main+0x40c>)
 8001b58:	438b      	bics	r3, r1
 8001b5a:	6113      	str	r3, [r2, #16]
  MODIFY_REG(GPIOx->PUPDR, ((Pin * Pin) * GPIO_PUPDR_PUPDR0), ((Pin * Pin) * Pull));
 8001b5c:	2390      	movs	r3, #144	; 0x90
 8001b5e:	05db      	lsls	r3, r3, #23
 8001b60:	68da      	ldr	r2, [r3, #12]
 8001b62:	496d      	ldr	r1, [pc, #436]	; (8001d18 <main+0x410>)
 8001b64:	400a      	ands	r2, r1
 8001b66:	60da      	str	r2, [r3, #12]
  MODIFY_REG(GPIOx->MODER, ((Pin * Pin) * GPIO_MODER_MODER0), ((Pin * Pin) * Mode));
 8001b68:	001a      	movs	r2, r3
 8001b6a:	681b      	ldr	r3, [r3, #0]
 8001b6c:	400b      	ands	r3, r1
 8001b6e:	6013      	str	r3, [r2, #0]
  EXTI_InitStruct.Line_0_31 = LL_EXTI_LINE_8;
 8001b70:	2380      	movs	r3, #128	; 0x80
  EXTI_InitStruct.Trigger = LL_EXTI_TRIGGER_RISING_FALLING;
 8001b72:	2203      	movs	r2, #3
  EXTI_InitStruct.Line_0_31 = LL_EXTI_LINE_8;
 8001b74:	005b      	lsls	r3, r3, #1
  EXTI_InitStruct.Trigger = LL_EXTI_TRIGGER_RISING_FALLING;
 8001b76:	71b2      	strb	r2, [r6, #6]
  EXTI_InitStruct.Line_0_31 = LL_EXTI_LINE_8;
 8001b78:	9307      	str	r3, [sp, #28]
  EXTI_InitStruct.LineCommand = ENABLE;
 8001b7a:	7137      	strb	r7, [r6, #4]
  EXTI_InitStruct.Mode = LL_EXTI_MODE_IT;
 8001b7c:	7174      	strb	r4, [r6, #5]
  LL_EXTI_Init(&EXTI_InitStruct);
 8001b7e:	f001 fde3 	bl	8003748 <LL_EXTI_Init>
 */
__STATIC_INLINE void __NVIC_SetPriority(IRQn_Type IRQn, uint32_t priority)
{
  if ((int32_t)(IRQn) >= 0)
  {
    NVIC->IP[_IP_IDX(IRQn)]  = ((uint32_t)(NVIC->IP[_IP_IDX(IRQn)]  & ~(0xFFUL << _BIT_SHIFT(IRQn))) |
 8001b82:	21c1      	movs	r1, #193	; 0xc1
    NVIC->ISER[0U] = (uint32_t)(1UL << (((uint32_t)IRQn) & 0x1FUL));
 8001b84:	2080      	movs	r0, #128	; 0x80
    NVIC->IP[_IP_IDX(IRQn)]  = ((uint32_t)(NVIC->IP[_IP_IDX(IRQn)]  & ~(0xFFUL << _BIT_SHIFT(IRQn))) |
 8001b86:	4a65      	ldr	r2, [pc, #404]	; (8001d1c <main+0x414>)
 8001b88:	0089      	lsls	r1, r1, #2
 8001b8a:	5853      	ldr	r3, [r2, r1]
 8001b8c:	021b      	lsls	r3, r3, #8
 8001b8e:	0a1b      	lsrs	r3, r3, #8
 8001b90:	5053      	str	r3, [r2, r1]
    NVIC->ISER[0U] = (uint32_t)(1UL << (((uint32_t)IRQn) & 0x1FUL));
 8001b92:	6010      	str	r0, [r2, #0]
  __HAL_RCC_DMA1_CLK_ENABLE();
 8001b94:	696b      	ldr	r3, [r5, #20]
  HAL_NVIC_SetPriority(DMA1_Channel2_3_IRQn, 0, 0);
 8001b96:	0022      	movs	r2, r4
  __HAL_RCC_DMA1_CLK_ENABLE();
 8001b98:	433b      	orrs	r3, r7
 8001b9a:	616b      	str	r3, [r5, #20]
 8001b9c:	696b      	ldr	r3, [r5, #20]
  HAL_NVIC_SetPriority(DMA1_Channel2_3_IRQn, 0, 0);
 8001b9e:	0021      	movs	r1, r4
  __HAL_RCC_DMA1_CLK_ENABLE();
 8001ba0:	403b      	ands	r3, r7
 8001ba2:	9301      	str	r3, [sp, #4]
  HAL_NVIC_SetPriority(DMA1_Channel2_3_IRQn, 0, 0);
 8001ba4:	3876      	subs	r0, #118	; 0x76
  __HAL_RCC_DMA1_CLK_ENABLE();
 8001ba6:	9b01      	ldr	r3, [sp, #4]
  HAL_NVIC_SetPriority(DMA1_Channel2_3_IRQn, 0, 0);
 8001ba8:	f000 fa82 	bl	80020b0 <HAL_NVIC_SetPriority>
  HAL_NVIC_EnableIRQ(DMA1_Channel2_3_IRQn);
 8001bac:	200a      	movs	r0, #10
 8001bae:	f000 faa9 	bl	8002104 <HAL_NVIC_EnableIRQ>
  LL_ADC_InitTypeDef ADC_InitStruct = {0};
 8001bb2:	2210      	movs	r2, #16
 8001bb4:	0021      	movs	r1, r4
 8001bb6:	a803      	add	r0, sp, #12
 8001bb8:	f003 fb97 	bl	80052ea <memset>
  LL_ADC_REG_InitTypeDef ADC_REG_InitStruct = {0};
 8001bbc:	2214      	movs	r2, #20
 8001bbe:	0021      	movs	r1, r4
 8001bc0:	0030      	movs	r0, r6
 8001bc2:	f003 fb92 	bl	80052ea <memset>
  LL_GPIO_InitTypeDef GPIO_InitStruct = {0};
 8001bc6:	2218      	movs	r2, #24
 8001bc8:	0021      	movs	r1, r4
 8001bca:	a80c      	add	r0, sp, #48	; 0x30
 8001bcc:	f003 fb8d 	bl	80052ea <memset>
  * @retval None
*/
__STATIC_INLINE void LL_APB1_GRP2_EnableClock(uint32_t Periphs)
{
  __IO uint32_t tmpreg;
  SET_BIT(RCC->APB2ENR, Periphs);
 8001bd0:	2180      	movs	r1, #128	; 0x80
  LL_AHB1_GRP1_EnableClock(LL_AHB1_GRP1_PERIPH_GPIOA);
 8001bd2:	2080      	movs	r0, #128	; 0x80
 8001bd4:	69aa      	ldr	r2, [r5, #24]
 8001bd6:	0089      	lsls	r1, r1, #2
 8001bd8:	430a      	orrs	r2, r1
 8001bda:	61aa      	str	r2, [r5, #24]
  /* Delay after an RCC peripheral clock enabling */
  tmpreg = READ_BIT(RCC->APB2ENR, Periphs);
 8001bdc:	69ab      	ldr	r3, [r5, #24]
 8001bde:	0280      	lsls	r0, r0, #10
 8001be0:	400b      	ands	r3, r1
 8001be2:	9302      	str	r3, [sp, #8]
  (void)tmpreg;
 8001be4:	9b02      	ldr	r3, [sp, #8]
 8001be6:	f7ff fd77 	bl	80016d8 <LL_AHB1_GRP1_EnableClock>
  GPIO_InitStruct.Mode = LL_GPIO_MODE_ANALOG;
 8001bea:	2203      	movs	r2, #3
  LL_GPIO_Init(GPIOA, &GPIO_InitStruct);
 8001bec:	2090      	movs	r0, #144	; 0x90
  GPIO_InitStruct.Pin = LL_GPIO_PIN_1;
 8001bee:	2502      	movs	r5, #2
  GPIO_InitStruct.Mode = LL_GPIO_MODE_ANALOG;
 8001bf0:	920d      	str	r2, [sp, #52]	; 0x34
  LL_GPIO_Init(GPIOA, &GPIO_InitStruct);
 8001bf2:	aa0c      	add	r2, sp, #48	; 0x30
 8001bf4:	0011      	movs	r1, r2
 8001bf6:	05c0      	lsls	r0, r0, #23
  GPIO_InitStruct.Pin = LL_GPIO_PIN_1;
 8001bf8:	950c      	str	r5, [sp, #48]	; 0x30
  GPIO_InitStruct.Pull = LL_GPIO_PULL_NO;
 8001bfa:	9410      	str	r4, [sp, #64]	; 0x40
  LL_GPIO_Init(GPIOA, &GPIO_InitStruct);
 8001bfc:	f001 fdf4 	bl	80037e8 <LL_GPIO_Init>
  SET_BIT(ADCx->CHSELR, (Channel & ADC_CHANNEL_ID_BITFIELD_MASK));
 8001c00:	4a47      	ldr	r2, [pc, #284]	; (8001d20 <main+0x418>)
 8001c02:	6a93      	ldr	r3, [r2, #40]	; 0x28
 8001c04:	432b      	orrs	r3, r5
 8001c06:	0015      	movs	r5, r2
 8001c08:	6293      	str	r3, [r2, #40]	; 0x28
  LL_ADC_Init(ADC1, &ADC_InitStruct);
 8001c0a:	aa03      	add	r2, sp, #12
 8001c0c:	0011      	movs	r1, r2
 8001c0e:	0028      	movs	r0, r5
  ADC_InitStruct.Clock = LL_ADC_CLOCK_ASYNC;
 8001c10:	9403      	str	r4, [sp, #12]
  ADC_InitStruct.Resolution = LL_ADC_RESOLUTION_12B;
 8001c12:	9404      	str	r4, [sp, #16]
  ADC_InitStruct.DataAlignment = LL_ADC_DATA_ALIGN_RIGHT;
 8001c14:	9405      	str	r4, [sp, #20]
  ADC_InitStruct.LowPowerMode = LL_ADC_LP_MODE_NONE;
 8001c16:	9406      	str	r4, [sp, #24]
  LL_ADC_Init(ADC1, &ADC_InitStruct);
 8001c18:	f001 fd64 	bl	80036e4 <LL_ADC_Init>
  LL_ADC_REG_Init(ADC1, &ADC_REG_InitStruct);
 8001c1c:	0031      	movs	r1, r6
 8001c1e:	0028      	movs	r0, r5
  ADC_REG_InitStruct.SequencerDiscont = LL_ADC_REG_SEQ_DISCONT_DISABLE;
 8001c20:	6074      	str	r4, [r6, #4]
  ADC_REG_InitStruct.ContinuousMode = LL_ADC_REG_CONV_SINGLE;
 8001c22:	60b4      	str	r4, [r6, #8]
  ADC_REG_InitStruct.DMATransfer = LL_ADC_REG_DMA_TRANSFER_LIMITED;
 8001c24:	60f7      	str	r7, [r6, #12]
  ADC_REG_InitStruct.Overrun = LL_ADC_REG_OVR_DATA_PRESERVED;
 8001c26:	6134      	str	r4, [r6, #16]
  ADC_REG_InitStruct.TriggerSource = LL_ADC_REG_TRIG_SOFTWARE;
 8001c28:	9407      	str	r4, [sp, #28]
  LL_ADC_REG_Init(ADC1, &ADC_REG_InitStruct);
 8001c2a:	f001 fd75 	bl	8003718 <LL_ADC_REG_Init>
  MODIFY_REG(ADCx->CFGR1, ADC_CFGR1_SCANDIR, ScanDirection);
 8001c2e:	2104      	movs	r1, #4
  MODIFY_REG(ADCx->SMPR, ADC_SMPR_SMP, SamplingTime);
 8001c30:	2207      	movs	r2, #7
  MODIFY_REG(ADCx->CFGR1, ADC_CFGR1_SCANDIR, ScanDirection);
 8001c32:	68eb      	ldr	r3, [r5, #12]
 8001c34:	438b      	bics	r3, r1
 8001c36:	60eb      	str	r3, [r5, #12]
  MODIFY_REG(ADCx->SMPR, ADC_SMPR_SMP, SamplingTime);
 8001c38:	696b      	ldr	r3, [r5, #20]
 8001c3a:	4393      	bics	r3, r2
 8001c3c:	616b      	str	r3, [r5, #20]
  MX_USB_DEVICE_Init();
 8001c3e:	f002 ff79 	bl	8004b34 <MX_USB_DEVICE_Init>
  TIM_ClockConfigTypeDef sClockSourceConfig = {0};
 8001c42:	2210      	movs	r2, #16
 8001c44:	0021      	movs	r1, r4
 8001c46:	a80c      	add	r0, sp, #48	; 0x30
 8001c48:	f003 fb4f 	bl	80052ea <memset>
  TIM_MasterConfigTypeDef sMasterConfig = {0};
 8001c4c:	2208      	movs	r2, #8
 8001c4e:	0021      	movs	r1, r4
 8001c50:	0030      	movs	r0, r6
 8001c52:	f003 fb4a 	bl	80052ea <memset>
  htim1.Instance = TIM1;
 8001c56:	4d33      	ldr	r5, [pc, #204]	; (8001d24 <main+0x41c>)
 8001c58:	4b33      	ldr	r3, [pc, #204]	; (8001d28 <main+0x420>)
  if (HAL_TIM_Base_Init(&htim1) != HAL_OK)
 8001c5a:	0028      	movs	r0, r5
  htim1.Instance = TIM1;
 8001c5c:	602b      	str	r3, [r5, #0]
  htim1.Init.Prescaler = 79;
 8001c5e:	234f      	movs	r3, #79	; 0x4f
 8001c60:	606b      	str	r3, [r5, #4]
  htim1.Init.Period = 600;
 8001c62:	2396      	movs	r3, #150	; 0x96
 8001c64:	009b      	lsls	r3, r3, #2
 8001c66:	60eb      	str	r3, [r5, #12]
  htim1.Init.CounterMode = TIM_COUNTERMODE_UP;
 8001c68:	60ac      	str	r4, [r5, #8]
  htim1.Init.ClockDivision = TIM_CLOCKDIVISION_DIV1;
 8001c6a:	612c      	str	r4, [r5, #16]
  htim1.Init.RepetitionCounter = 0;
 8001c6c:	616c      	str	r4, [r5, #20]
  htim1.Init.AutoReloadPreload = TIM_AUTORELOAD_PRELOAD_DISABLE;
 8001c6e:	61ac      	str	r4, [r5, #24]
  if (HAL_TIM_Base_Init(&htim1) != HAL_OK)
 8001c70:	f001 fc4a 	bl	8003508 <HAL_TIM_Base_Init>
  sClockSourceConfig.ClockSource = TIM_CLOCKSOURCE_INTERNAL;
 8001c74:	2380      	movs	r3, #128	; 0x80
 8001c76:	015b      	lsls	r3, r3, #5
 8001c78:	930c      	str	r3, [sp, #48]	; 0x30
  if (HAL_TIM_ConfigClockSource(&htim1, &sClockSourceConfig) != HAL_OK)
 8001c7a:	ab0c      	add	r3, sp, #48	; 0x30
 8001c7c:	0019      	movs	r1, r3
 8001c7e:	0028      	movs	r0, r5
 8001c80:	f001 fc6a 	bl	8003558 <HAL_TIM_ConfigClockSource>
  if (HAL_TIMEx_MasterConfigSynchronization(&htim1, &sMasterConfig) != HAL_OK)
 8001c84:	0031      	movs	r1, r6
 8001c86:	0028      	movs	r0, r5
  sMasterConfig.MasterSlaveMode = TIM_MASTERSLAVEMODE_DISABLE;
 8001c88:	6074      	str	r4, [r6, #4]
  sMasterConfig.MasterOutputTrigger = TIM_TRGO_RESET;
 8001c8a:	9407      	str	r4, [sp, #28]
  if (HAL_TIMEx_MasterConfigSynchronization(&htim1, &sMasterConfig) != HAL_OK)
 8001c8c:	f001 fcfa 	bl	8003684 <HAL_TIMEx_MasterConfigSynchronization>
  hi2c1.Instance = I2C1;
 8001c90:	4e26      	ldr	r6, [pc, #152]	; (8001d2c <main+0x424>)
 8001c92:	4b27      	ldr	r3, [pc, #156]	; (8001d30 <main+0x428>)
  if (HAL_I2C_Init(&hi2c1) != HAL_OK)
 8001c94:	0030      	movs	r0, r6
  hi2c1.Instance = I2C1;
 8001c96:	6033      	str	r3, [r6, #0]
  hi2c1.Init.Timing = 0x2000090E;
 8001c98:	4b26      	ldr	r3, [pc, #152]	; (8001d34 <main+0x42c>)
  hi2c1.Init.OwnAddress1 = 0;
 8001c9a:	60b4      	str	r4, [r6, #8]
  hi2c1.Init.Timing = 0x2000090E;
 8001c9c:	6073      	str	r3, [r6, #4]
  hi2c1.Init.AddressingMode = I2C_ADDRESSINGMODE_7BIT;
 8001c9e:	60f7      	str	r7, [r6, #12]
  hi2c1.Init.DualAddressMode = I2C_DUALADDRESS_DISABLE;
 8001ca0:	6134      	str	r4, [r6, #16]
  hi2c1.Init.OwnAddress2 = 0;
 8001ca2:	6174      	str	r4, [r6, #20]
  hi2c1.Init.OwnAddress2Masks = I2C_OA2_NOMASK;
 8001ca4:	61b4      	str	r4, [r6, #24]
  hi2c1.Init.GeneralCallMode = I2C_GENERALCALL_DISABLE;
 8001ca6:	61f4      	str	r4, [r6, #28]
  hi2c1.Init.NoStretchMode = I2C_NOSTRETCH_DISABLE;
 8001ca8:	6234      	str	r4, [r6, #32]
  if (HAL_I2C_Init(&hi2c1) != HAL_OK)
 8001caa:	f000 fbe7 	bl	800247c <HAL_I2C_Init>
  if (HAL_I2CEx_ConfigAnalogFilter(&hi2c1, I2C_ANALOGFILTER_ENABLE) != HAL_OK)
 8001cae:	0021      	movs	r1, r4
 8001cb0:	0030      	movs	r0, r6
 8001cb2:	f000 feb9 	bl	8002a28 <HAL_I2CEx_ConfigAnalogFilter>
  if (HAL_I2CEx_ConfigDigitalFilter(&hi2c1, 0) != HAL_OK)
 8001cb6:	0021      	movs	r1, r4
 8001cb8:	0030      	movs	r0, r6
 8001cba:	f000 fedb 	bl	8002a74 <HAL_I2CEx_ConfigDigitalFilter>
	HAL_TIM_Base_Start_IT(&htim1);
 8001cbe:	0028      	movs	r0, r5
 8001cc0:	f001 fb23 	bl	800330a <HAL_TIM_Base_Start_IT>
  MODIFY_REG(ADCx->CR,
 8001cc4:	4916      	ldr	r1, [pc, #88]	; (8001d20 <main+0x418>)
 8001cc6:	4a1c      	ldr	r2, [pc, #112]	; (8001d38 <main+0x430>)
 8001cc8:	688b      	ldr	r3, [r1, #8]
 8001cca:	4013      	ands	r3, r2
 8001ccc:	433b      	orrs	r3, r7
 8001cce:	608b      	str	r3, [r1, #8]
	_Inited = 1;
 8001cd0:	4b1a      	ldr	r3, [pc, #104]	; (8001d3c <main+0x434>)
 8001cd2:	701f      	strb	r7, [r3, #0]
		ADC_PRINT(i);
 8001cd4:	2000      	movs	r0, #0
 8001cd6:	f7ff fd77 	bl	80017c8 <ADC_PRINT>
		if (usbInitFlag == 1)
 8001cda:	4c19      	ldr	r4, [pc, #100]	; (8001d40 <main+0x438>)
 8001cdc:	7823      	ldrb	r3, [r4, #0]
 8001cde:	2b01      	cmp	r3, #1
 8001ce0:	d104      	bne.n	8001cec <main+0x3e4>
			MX_USB_DEVICE_Init();
 8001ce2:	f002 ff27 	bl	8004b34 <MX_USB_DEVICE_Init>
			usbInitFlag = 0;
 8001ce6:	2300      	movs	r3, #0
 8001ce8:	7023      	strb	r3, [r4, #0]
 8001cea:	e7f3      	b.n	8001cd4 <main+0x3cc>
		else if (usbInitFlag == 2)
 8001cec:	2b02      	cmp	r3, #2
 8001cee:	d1f1      	bne.n	8001cd4 <main+0x3cc>
			HAL_PCD_DevDisconnect(&hpcd_USB_FS);
 8001cf0:	4814      	ldr	r0, [pc, #80]	; (8001d44 <main+0x43c>)
 8001cf2:	f000 ff7f 	bl	8002bf4 <HAL_PCD_DevDisconnect>
			USBD_Stop(&hUsbDeviceFS);
 8001cf6:	4d14      	ldr	r5, [pc, #80]	; (8001d48 <main+0x440>)
 8001cf8:	0028      	movs	r0, r5
 8001cfa:	f002 fb54 	bl	80043a6 <USBD_Stop>
			USBD_DeInit(&hUsbDeviceFS);
 8001cfe:	0028      	movs	r0, r5
 8001d00:	f002 fb2e 	bl	8004360 <USBD_DeInit>
 8001d04:	e7ef      	b.n	8001ce6 <main+0x3de>
 8001d06:	46c0      	nop			; (mov r8, r8)
 8001d08:	48000800 	.word	0x48000800
 8001d0c:	48000400 	.word	0x48000400
 8001d10:	40010000 	.word	0x40010000
 8001d14:	40021000 	.word	0x40021000
 8001d18:	fffcffff 	.word	0xfffcffff
 8001d1c:	e000e100 	.word	0xe000e100
 8001d20:	40012400 	.word	0x40012400
 8001d24:	200005f8 	.word	0x200005f8
 8001d28:	40012c00 	.word	0x40012c00
 8001d2c:	200005a8 	.word	0x200005a8
 8001d30:	40005400 	.word	0x40005400
 8001d34:	2000090e 	.word	0x2000090e
 8001d38:	7fffffe8 	.word	0x7fffffe8
 8001d3c:	20000330 	.word	0x20000330
 8001d40:	20000331 	.word	0x20000331
 8001d44:	20000cec 	.word	0x20000cec
 8001d48:	20000684 	.word	0x20000684

08001d4c <Error_Handler>:
{
  /* USER CODE BEGIN Error_Handler_Debug */
	/* User can add his own implementation to report the HAL error return state */

  /* USER CODE END Error_Handler_Debug */
}
 8001d4c:	4770      	bx	lr
	...

08001d50 <HAL_MspInit>:
{
  /* USER CODE BEGIN MspInit 0 */

  /* USER CODE END MspInit 0 */

  __HAL_RCC_SYSCFG_CLK_ENABLE();
 8001d50:	2001      	movs	r0, #1
 8001d52:	4b0a      	ldr	r3, [pc, #40]	; (8001d7c <HAL_MspInit+0x2c>)
{
 8001d54:	b082      	sub	sp, #8
  __HAL_RCC_SYSCFG_CLK_ENABLE();
 8001d56:	6999      	ldr	r1, [r3, #24]
 8001d58:	4301      	orrs	r1, r0
 8001d5a:	6199      	str	r1, [r3, #24]
  __HAL_RCC_PWR_CLK_ENABLE();
 8001d5c:	2180      	movs	r1, #128	; 0x80
  __HAL_RCC_SYSCFG_CLK_ENABLE();
 8001d5e:	699a      	ldr	r2, [r3, #24]
  __HAL_RCC_PWR_CLK_ENABLE();
 8001d60:	0549      	lsls	r1, r1, #21
  __HAL_RCC_SYSCFG_CLK_ENABLE();
 8001d62:	4002      	ands	r2, r0
 8001d64:	9200      	str	r2, [sp, #0]
 8001d66:	9a00      	ldr	r2, [sp, #0]
  __HAL_RCC_PWR_CLK_ENABLE();
 8001d68:	69da      	ldr	r2, [r3, #28]
 8001d6a:	430a      	orrs	r2, r1
 8001d6c:	61da      	str	r2, [r3, #28]
 8001d6e:	69db      	ldr	r3, [r3, #28]
 8001d70:	400b      	ands	r3, r1
 8001d72:	9301      	str	r3, [sp, #4]
 8001d74:	9b01      	ldr	r3, [sp, #4]
  /* System interrupt init*/

  /* USER CODE BEGIN MspInit 1 */

  /* USER CODE END MspInit 1 */
}
 8001d76:	b002      	add	sp, #8
 8001d78:	4770      	bx	lr
 8001d7a:	46c0      	nop			; (mov r8, r8)
 8001d7c:	40021000 	.word	0x40021000

08001d80 <HAL_I2C_MspInit>:
* This function configures the hardware resources used in this example
* @param hi2c: I2C handle pointer
* @retval None
*/
void HAL_I2C_MspInit(I2C_HandleTypeDef* hi2c)
{
 8001d80:	b530      	push	{r4, r5, lr}
 8001d82:	0005      	movs	r5, r0
 8001d84:	b089      	sub	sp, #36	; 0x24
  GPIO_InitTypeDef GPIO_InitStruct = {0};
 8001d86:	2214      	movs	r2, #20
 8001d88:	2100      	movs	r1, #0
 8001d8a:	a803      	add	r0, sp, #12
 8001d8c:	f003 faad 	bl	80052ea <memset>
  if(hi2c->Instance==I2C1)
 8001d90:	4b2b      	ldr	r3, [pc, #172]	; (8001e40 <HAL_I2C_MspInit+0xc0>)
 8001d92:	682a      	ldr	r2, [r5, #0]
 8001d94:	429a      	cmp	r2, r3
 8001d96:	d151      	bne.n	8001e3c <HAL_I2C_MspInit+0xbc>
  {
  /* USER CODE BEGIN I2C1_MspInit 0 */

  /* USER CODE END I2C1_MspInit 0 */

    __HAL_RCC_GPIOF_CLK_ENABLE();
 8001d98:	2180      	movs	r1, #128	; 0x80
 8001d9a:	4c2a      	ldr	r4, [pc, #168]	; (8001e44 <HAL_I2C_MspInit+0xc4>)
 8001d9c:	03c9      	lsls	r1, r1, #15
 8001d9e:	6962      	ldr	r2, [r4, #20]
    GPIO_InitStruct.Pin = GPIO_PIN_0|GPIO_PIN_1;
    GPIO_InitStruct.Mode = GPIO_MODE_AF_OD;
    GPIO_InitStruct.Pull = GPIO_PULLUP;
    GPIO_InitStruct.Speed = GPIO_SPEED_FREQ_HIGH;
    GPIO_InitStruct.Alternate = GPIO_AF1_I2C1;
    HAL_GPIO_Init(GPIOF, &GPIO_InitStruct);
 8001da0:	4829      	ldr	r0, [pc, #164]	; (8001e48 <HAL_I2C_MspInit+0xc8>)
    __HAL_RCC_GPIOF_CLK_ENABLE();
 8001da2:	430a      	orrs	r2, r1
 8001da4:	6162      	str	r2, [r4, #20]
 8001da6:	6963      	ldr	r3, [r4, #20]
    GPIO_InitStruct.Pin = GPIO_PIN_0|GPIO_PIN_1;
 8001da8:	2203      	movs	r2, #3
    __HAL_RCC_GPIOF_CLK_ENABLE();
 8001daa:	400b      	ands	r3, r1
 8001dac:	9301      	str	r3, [sp, #4]
 8001dae:	9b01      	ldr	r3, [sp, #4]
    GPIO_InitStruct.Mode = GPIO_MODE_AF_OD;
 8001db0:	2312      	movs	r3, #18
    HAL_GPIO_Init(GPIOF, &GPIO_InitStruct);
 8001db2:	a903      	add	r1, sp, #12
    GPIO_InitStruct.Mode = GPIO_MODE_AF_OD;
 8001db4:	9304      	str	r3, [sp, #16]
    GPIO_InitStruct.Pull = GPIO_PULLUP;
 8001db6:	3b11      	subs	r3, #17
    GPIO_InitStruct.Pin = GPIO_PIN_0|GPIO_PIN_1;
 8001db8:	9203      	str	r2, [sp, #12]
    GPIO_InitStruct.Pull = GPIO_PULLUP;
 8001dba:	9305      	str	r3, [sp, #20]
    GPIO_InitStruct.Speed = GPIO_SPEED_FREQ_HIGH;
 8001dbc:	9206      	str	r2, [sp, #24]
    GPIO_InitStruct.Alternate = GPIO_AF1_I2C1;
 8001dbe:	9307      	str	r3, [sp, #28]
    HAL_GPIO_Init(GPIOF, &GPIO_InitStruct);
 8001dc0:	f000 fa74 	bl	80022ac <HAL_GPIO_Init>

    /* Peripheral clock enable */
    __HAL_RCC_I2C1_CLK_ENABLE();
 8001dc4:	2180      	movs	r1, #128	; 0x80
 8001dc6:	69e2      	ldr	r2, [r4, #28]
 8001dc8:	0389      	lsls	r1, r1, #14
 8001dca:	430a      	orrs	r2, r1
 8001dcc:	61e2      	str	r2, [r4, #28]
 8001dce:	69e3      	ldr	r3, [r4, #28]

    /* I2C1 DMA Init */
    /* I2C1_RX Init */
    hdma_i2c1_rx.Instance = DMA1_Channel3;
 8001dd0:	4c1e      	ldr	r4, [pc, #120]	; (8001e4c <HAL_I2C_MspInit+0xcc>)
    __HAL_RCC_I2C1_CLK_ENABLE();
 8001dd2:	400b      	ands	r3, r1
 8001dd4:	9302      	str	r3, [sp, #8]
 8001dd6:	9b02      	ldr	r3, [sp, #8]
    hdma_i2c1_rx.Instance = DMA1_Channel3;
 8001dd8:	4b1d      	ldr	r3, [pc, #116]	; (8001e50 <HAL_I2C_MspInit+0xd0>)
    hdma_i2c1_rx.Init.Direction = DMA_PERIPH_TO_MEMORY;
    hdma_i2c1_rx.Init.PeriphInc = DMA_PINC_DISABLE;
    hdma_i2c1_rx.Init.MemInc = DMA_MINC_ENABLE;
 8001dda:	2280      	movs	r2, #128	; 0x80
    hdma_i2c1_rx.Instance = DMA1_Channel3;
 8001ddc:	6023      	str	r3, [r4, #0]
    hdma_i2c1_rx.Init.Direction = DMA_PERIPH_TO_MEMORY;
 8001dde:	2300      	movs	r3, #0
    hdma_i2c1_rx.Init.PeriphDataAlignment = DMA_PDATAALIGN_BYTE;
    hdma_i2c1_rx.Init.MemDataAlignment = DMA_MDATAALIGN_BYTE;
    hdma_i2c1_rx.Init.Mode = DMA_NORMAL;
    hdma_i2c1_rx.Init.Priority = DMA_PRIORITY_LOW;
    if (HAL_DMA_Init(&hdma_i2c1_rx) != HAL_OK)
 8001de0:	0020      	movs	r0, r4
    hdma_i2c1_rx.Init.Direction = DMA_PERIPH_TO_MEMORY;
 8001de2:	6063      	str	r3, [r4, #4]
    hdma_i2c1_rx.Init.PeriphInc = DMA_PINC_DISABLE;
 8001de4:	60a3      	str	r3, [r4, #8]
    hdma_i2c1_rx.Init.MemInc = DMA_MINC_ENABLE;
 8001de6:	60e2      	str	r2, [r4, #12]
    hdma_i2c1_rx.Init.PeriphDataAlignment = DMA_PDATAALIGN_BYTE;
 8001de8:	6123      	str	r3, [r4, #16]
    hdma_i2c1_rx.Init.MemDataAlignment = DMA_MDATAALIGN_BYTE;
 8001dea:	6163      	str	r3, [r4, #20]
    hdma_i2c1_rx.Init.Mode = DMA_NORMAL;
 8001dec:	61a3      	str	r3, [r4, #24]
    hdma_i2c1_rx.Init.Priority = DMA_PRIORITY_LOW;
 8001dee:	61e3      	str	r3, [r4, #28]
    if (HAL_DMA_Init(&hdma_i2c1_rx) != HAL_OK)
 8001df0:	f000 f9be 	bl	8002170 <HAL_DMA_Init>
 8001df4:	2800      	cmp	r0, #0
 8001df6:	d001      	beq.n	8001dfc <HAL_I2C_MspInit+0x7c>
    {
      Error_Handler();
 8001df8:	f7ff ffa8 	bl	8001d4c <Error_Handler>
    }

    __HAL_LINKDMA(hi2c,hdmarx,hdma_i2c1_rx);

    /* I2C1_TX Init */
    hdma_i2c1_tx.Instance = DMA1_Channel2;
 8001dfc:	4b15      	ldr	r3, [pc, #84]	; (8001e54 <HAL_I2C_MspInit+0xd4>)
    __HAL_LINKDMA(hi2c,hdmarx,hdma_i2c1_rx);
 8001dfe:	63ec      	str	r4, [r5, #60]	; 0x3c
 8001e00:	6265      	str	r5, [r4, #36]	; 0x24
    hdma_i2c1_tx.Instance = DMA1_Channel2;
 8001e02:	4c15      	ldr	r4, [pc, #84]	; (8001e58 <HAL_I2C_MspInit+0xd8>)
    hdma_i2c1_tx.Init.Direction = DMA_MEMORY_TO_PERIPH;
    hdma_i2c1_tx.Init.PeriphInc = DMA_PINC_DISABLE;
    hdma_i2c1_tx.Init.MemInc = DMA_MINC_ENABLE;
 8001e04:	2280      	movs	r2, #128	; 0x80
    hdma_i2c1_tx.Instance = DMA1_Channel2;
 8001e06:	6023      	str	r3, [r4, #0]
    hdma_i2c1_tx.Init.Direction = DMA_MEMORY_TO_PERIPH;
 8001e08:	2310      	movs	r3, #16
 8001e0a:	6063      	str	r3, [r4, #4]
    hdma_i2c1_tx.Init.PeriphInc = DMA_PINC_DISABLE;
 8001e0c:	2300      	movs	r3, #0
    hdma_i2c1_tx.Init.PeriphDataAlignment = DMA_PDATAALIGN_BYTE;
    hdma_i2c1_tx.Init.MemDataAlignment = DMA_MDATAALIGN_BYTE;
    hdma_i2c1_tx.Init.Mode = DMA_NORMAL;
    hdma_i2c1_tx.Init.Priority = DMA_PRIORITY_LOW;
    if (HAL_DMA_Init(&hdma_i2c1_tx) != HAL_OK)
 8001e0e:	0020      	movs	r0, r4
    hdma_i2c1_tx.Init.PeriphInc = DMA_PINC_DISABLE;
 8001e10:	60a3      	str	r3, [r4, #8]
    hdma_i2c1_tx.Init.MemInc = DMA_MINC_ENABLE;
 8001e12:	60e2      	str	r2, [r4, #12]
    hdma_i2c1_tx.Init.PeriphDataAlignment = DMA_PDATAALIGN_BYTE;
 8001e14:	6123      	str	r3, [r4, #16]
    hdma_i2c1_tx.Init.MemDataAlignment = DMA_MDATAALIGN_BYTE;
 8001e16:	6163      	str	r3, [r4, #20]
    hdma_i2c1_tx.Init.Mode = DMA_NORMAL;
 8001e18:	61a3      	str	r3, [r4, #24]
    hdma_i2c1_tx.Init.Priority = DMA_PRIORITY_LOW;
 8001e1a:	61e3      	str	r3, [r4, #28]
    if (HAL_DMA_Init(&hdma_i2c1_tx) != HAL_OK)
 8001e1c:	f000 f9a8 	bl	8002170 <HAL_DMA_Init>
 8001e20:	2800      	cmp	r0, #0
 8001e22:	d001      	beq.n	8001e28 <HAL_I2C_MspInit+0xa8>
    {
      Error_Handler();
 8001e24:	f7ff ff92 	bl	8001d4c <Error_Handler>
    }

    __HAL_LINKDMA(hi2c,hdmatx,hdma_i2c1_tx);

    /* I2C1 interrupt Init */
    HAL_NVIC_SetPriority(I2C1_IRQn, 0, 0);
 8001e28:	2200      	movs	r2, #0
 8001e2a:	2017      	movs	r0, #23
    __HAL_LINKDMA(hi2c,hdmatx,hdma_i2c1_tx);
 8001e2c:	63ac      	str	r4, [r5, #56]	; 0x38
    HAL_NVIC_SetPriority(I2C1_IRQn, 0, 0);
 8001e2e:	0011      	movs	r1, r2
    __HAL_LINKDMA(hi2c,hdmatx,hdma_i2c1_tx);
 8001e30:	6265      	str	r5, [r4, #36]	; 0x24
    HAL_NVIC_SetPriority(I2C1_IRQn, 0, 0);
 8001e32:	f000 f93d 	bl	80020b0 <HAL_NVIC_SetPriority>
    HAL_NVIC_EnableIRQ(I2C1_IRQn);
 8001e36:	2017      	movs	r0, #23
 8001e38:	f000 f964 	bl	8002104 <HAL_NVIC_EnableIRQ>
  /* USER CODE BEGIN I2C1_MspInit 1 */

  /* USER CODE END I2C1_MspInit 1 */
  }

}
 8001e3c:	b009      	add	sp, #36	; 0x24
 8001e3e:	bd30      	pop	{r4, r5, pc}
 8001e40:	40005400 	.word	0x40005400
 8001e44:	40021000 	.word	0x40021000
 8001e48:	48001400 	.word	0x48001400
 8001e4c:	20000638 	.word	0x20000638
 8001e50:	40020030 	.word	0x40020030
 8001e54:	4002001c 	.word	0x4002001c
 8001e58:	20000564 	.word	0x20000564

08001e5c <HAL_TIM_Base_MspInit>:
* This function configures the hardware resources used in this example
* @param htim_base: TIM_Base handle pointer
* @retval None
*/
void HAL_TIM_Base_MspInit(TIM_HandleTypeDef* htim_base)
{
 8001e5c:	b507      	push	{r0, r1, r2, lr}
  if(htim_base->Instance==TIM1)
 8001e5e:	4b0b      	ldr	r3, [pc, #44]	; (8001e8c <HAL_TIM_Base_MspInit+0x30>)
 8001e60:	6802      	ldr	r2, [r0, #0]
 8001e62:	429a      	cmp	r2, r3
 8001e64:	d111      	bne.n	8001e8a <HAL_TIM_Base_MspInit+0x2e>
  {
  /* USER CODE BEGIN TIM1_MspInit 0 */

  /* USER CODE END TIM1_MspInit 0 */
    /* Peripheral clock enable */
    __HAL_RCC_TIM1_CLK_ENABLE();
 8001e66:	2080      	movs	r0, #128	; 0x80
 8001e68:	4a09      	ldr	r2, [pc, #36]	; (8001e90 <HAL_TIM_Base_MspInit+0x34>)
 8001e6a:	0100      	lsls	r0, r0, #4
 8001e6c:	6991      	ldr	r1, [r2, #24]
 8001e6e:	4301      	orrs	r1, r0
 8001e70:	6191      	str	r1, [r2, #24]
 8001e72:	6993      	ldr	r3, [r2, #24]
    /* TIM1 interrupt Init */
    HAL_NVIC_SetPriority(TIM1_BRK_UP_TRG_COM_IRQn, 0, 0);
 8001e74:	2200      	movs	r2, #0
    __HAL_RCC_TIM1_CLK_ENABLE();
 8001e76:	4003      	ands	r3, r0
 8001e78:	9301      	str	r3, [sp, #4]
    HAL_NVIC_SetPriority(TIM1_BRK_UP_TRG_COM_IRQn, 0, 0);
 8001e7a:	200d      	movs	r0, #13
 8001e7c:	0011      	movs	r1, r2
    __HAL_RCC_TIM1_CLK_ENABLE();
 8001e7e:	9b01      	ldr	r3, [sp, #4]
    HAL_NVIC_SetPriority(TIM1_BRK_UP_TRG_COM_IRQn, 0, 0);
 8001e80:	f000 f916 	bl	80020b0 <HAL_NVIC_SetPriority>
    HAL_NVIC_EnableIRQ(TIM1_BRK_UP_TRG_COM_IRQn);
 8001e84:	200d      	movs	r0, #13
 8001e86:	f000 f93d 	bl	8002104 <HAL_NVIC_EnableIRQ>
  /* USER CODE BEGIN TIM1_MspInit 1 */

  /* USER CODE END TIM1_MspInit 1 */
  }

}
 8001e8a:	bd07      	pop	{r0, r1, r2, pc}
 8001e8c:	40012c00 	.word	0x40012c00
 8001e90:	40021000 	.word	0x40021000

08001e94 <NMI_Handler>:

  /* USER CODE END NonMaskableInt_IRQn 0 */
  /* USER CODE BEGIN NonMaskableInt_IRQn 1 */

  /* USER CODE END NonMaskableInt_IRQn 1 */
}
 8001e94:	4770      	bx	lr

08001e96 <HardFault_Handler>:

/**
  * @brief This function handles Hard fault interrupt.
  */
void HardFault_Handler(void)
{
 8001e96:	e7fe      	b.n	8001e96 <HardFault_Handler>

08001e98 <SVC_Handler>:
 8001e98:	4770      	bx	lr

08001e9a <PendSV_Handler>:
 8001e9a:	4770      	bx	lr

08001e9c <SysTick_Handler>:

/**
  * @brief This function handles System tick timer.
  */
void SysTick_Handler(void)
{
 8001e9c:	b510      	push	{r4, lr}
  /* USER CODE BEGIN SysTick_IRQn 0 */

  /* USER CODE END SysTick_IRQn 0 */
  HAL_IncTick();
 8001e9e:	f000 f8e3 	bl	8002068 <HAL_IncTick>
  /* USER CODE BEGIN SysTick_IRQn 1 */

  /* USER CODE END SysTick_IRQn 1 */
}
 8001ea2:	bd10      	pop	{r4, pc}

08001ea4 <EXTI4_15_IRQHandler>:
  * @note   Please check each device line mapping for EXTI Line availability
  * @retval State of bit (1 or 0).
  */
__STATIC_INLINE uint32_t LL_EXTI_IsActiveFlag_0_31(uint32_t ExtiLine)
{
  return (READ_BIT(EXTI->PR, ExtiLine) == (ExtiLine));
 8001ea4:	2180      	movs	r1, #128	; 0x80
 8001ea6:	4b0b      	ldr	r3, [pc, #44]	; (8001ed4 <EXTI4_15_IRQHandler+0x30>)
 8001ea8:	0049      	lsls	r1, r1, #1
 8001eaa:	695a      	ldr	r2, [r3, #20]

/**
  * @brief This function handles EXTI line 4 to 15 interrupts.
  */
void EXTI4_15_IRQHandler(void)
{
 8001eac:	b510      	push	{r4, lr}
  /* USER CODE BEGIN EXTI4_15_IRQn 0 */

  /* USER CODE END EXTI4_15_IRQn 0 */
  if (LL_EXTI_IsActiveFlag_0_31(LL_EXTI_LINE_8) != RESET)
 8001eae:	420a      	tst	r2, r1
 8001eb0:	d00c      	beq.n	8001ecc <EXTI4_15_IRQHandler+0x28>
  * @note   Please check each device line mapping for EXTI Line availability
  * @retval None
  */
__STATIC_INLINE void LL_EXTI_ClearFlag_0_31(uint32_t ExtiLine)
{
  WRITE_REG(EXTI->PR, ExtiLine);
 8001eb2:	6159      	str	r1, [r3, #20]
  {
    LL_EXTI_ClearFlag_0_31(LL_EXTI_LINE_8);
    /* USER CODE BEGIN LL_EXTI_LINE_8 */
    if(!_Inited)
 8001eb4:	4b08      	ldr	r3, [pc, #32]	; (8001ed8 <EXTI4_15_IRQHandler+0x34>)
 8001eb6:	781b      	ldrb	r3, [r3, #0]
 8001eb8:	2b00      	cmp	r3, #0
 8001eba:	d007      	beq.n	8001ecc <EXTI4_15_IRQHandler+0x28>
    {
    	return;
    }
    if(HAL_GPIO_ReadPin(GPIOA, GPIO_PIN_8)==SET)
 8001ebc:	2090      	movs	r0, #144	; 0x90
 8001ebe:	05c0      	lsls	r0, r0, #23
 8001ec0:	f000 fa9e 	bl	8002400 <HAL_GPIO_ReadPin>
 8001ec4:	4b05      	ldr	r3, [pc, #20]	; (8001edc <EXTI4_15_IRQHandler+0x38>)
 8001ec6:	2801      	cmp	r0, #1
 8001ec8:	d101      	bne.n	8001ece <EXTI4_15_IRQHandler+0x2a>
    {
    	usbInitFlag=1;
 8001eca:	7018      	strb	r0, [r3, #0]
    /* USER CODE END LL_EXTI_LINE_8 */
  }
  /* USER CODE BEGIN EXTI4_15_IRQn 1 */

  /* USER CODE END EXTI4_15_IRQn 1 */
}
 8001ecc:	bd10      	pop	{r4, pc}
    	usbInitFlag=2;
 8001ece:	2202      	movs	r2, #2
 8001ed0:	701a      	strb	r2, [r3, #0]
 8001ed2:	e7fb      	b.n	8001ecc <EXTI4_15_IRQHandler+0x28>
 8001ed4:	40010400 	.word	0x40010400
 8001ed8:	20000330 	.word	0x20000330
 8001edc:	20000331 	.word	0x20000331

08001ee0 <DMA1_Channel2_3_IRQHandler>:

/**
  * @brief This function handles DMA1 channel 2 and 3 interrupts.
  */
void DMA1_Channel2_3_IRQHandler(void)
{
 8001ee0:	b510      	push	{r4, lr}
  /* USER CODE BEGIN DMA1_Channel2_3_IRQn 0 */

  /* USER CODE END DMA1_Channel2_3_IRQn 0 */
  HAL_DMA_IRQHandler(&hdma_i2c1_tx);
 8001ee2:	4803      	ldr	r0, [pc, #12]	; (8001ef0 <DMA1_Channel2_3_IRQHandler+0x10>)
 8001ee4:	f000 f999 	bl	800221a <HAL_DMA_IRQHandler>
  HAL_DMA_IRQHandler(&hdma_i2c1_rx);
 8001ee8:	4802      	ldr	r0, [pc, #8]	; (8001ef4 <DMA1_Channel2_3_IRQHandler+0x14>)
 8001eea:	f000 f996 	bl	800221a <HAL_DMA_IRQHandler>
  /* USER CODE BEGIN DMA1_Channel2_3_IRQn 1 */

  /* USER CODE END DMA1_Channel2_3_IRQn 1 */
}
 8001eee:	bd10      	pop	{r4, pc}
 8001ef0:	20000564 	.word	0x20000564
 8001ef4:	20000638 	.word	0x20000638

08001ef8 <TIM1_BRK_UP_TRG_COM_IRQHandler>:

/**
  * @brief This function handles TIM1 break, update, trigger and commutation interrupts.
  */
void TIM1_BRK_UP_TRG_COM_IRQHandler(void)
{
 8001ef8:	b510      	push	{r4, lr}
  /* USER CODE BEGIN TIM1_BRK_UP_TRG_COM_IRQn 0 */

  /* USER CODE END TIM1_BRK_UP_TRG_COM_IRQn 0 */
  HAL_TIM_IRQHandler(&htim1);
 8001efa:	4802      	ldr	r0, [pc, #8]	; (8001f04 <TIM1_BRK_UP_TRG_COM_IRQHandler+0xc>)
 8001efc:	f001 fa18 	bl	8003330 <HAL_TIM_IRQHandler>
  /* USER CODE BEGIN TIM1_BRK_UP_TRG_COM_IRQn 1 */

  /* USER CODE END TIM1_BRK_UP_TRG_COM_IRQn 1 */
}
 8001f00:	bd10      	pop	{r4, pc}
 8001f02:	46c0      	nop			; (mov r8, r8)
 8001f04:	200005f8 	.word	0x200005f8

08001f08 <I2C1_IRQHandler>:
void I2C1_IRQHandler(void)
{
  /* USER CODE BEGIN I2C1_IRQn 0 */

  /* USER CODE END I2C1_IRQn 0 */
  if (hi2c1.Instance->ISR & (I2C_FLAG_BERR | I2C_FLAG_ARLO | I2C_FLAG_OVR)) {
 8001f08:	4806      	ldr	r0, [pc, #24]	; (8001f24 <I2C1_IRQHandler+0x1c>)
{
 8001f0a:	b510      	push	{r4, lr}
  if (hi2c1.Instance->ISR & (I2C_FLAG_BERR | I2C_FLAG_ARLO | I2C_FLAG_OVR)) {
 8001f0c:	6803      	ldr	r3, [r0, #0]
 8001f0e:	699a      	ldr	r2, [r3, #24]
 8001f10:	23e0      	movs	r3, #224	; 0xe0
 8001f12:	00db      	lsls	r3, r3, #3
 8001f14:	421a      	tst	r2, r3
 8001f16:	d002      	beq.n	8001f1e <I2C1_IRQHandler+0x16>
    HAL_I2C_ER_IRQHandler(&hi2c1);
 8001f18:	f000 fd40 	bl	800299c <HAL_I2C_ER_IRQHandler>
    HAL_I2C_EV_IRQHandler(&hi2c1);
  }
  /* USER CODE BEGIN I2C1_IRQn 1 */

  /* USER CODE END I2C1_IRQn 1 */
}
 8001f1c:	bd10      	pop	{r4, pc}
    HAL_I2C_EV_IRQHandler(&hi2c1);
 8001f1e:	f000 fb03 	bl	8002528 <HAL_I2C_EV_IRQHandler>
}
 8001f22:	e7fb      	b.n	8001f1c <I2C1_IRQHandler+0x14>
 8001f24:	200005a8 	.word	0x200005a8

08001f28 <USB_IRQHandler>:

/**
  * @brief This function handles USB global Interrupt / USB wake-up interrupt through EXTI line 18.
  */
void USB_IRQHandler(void)
{
 8001f28:	b510      	push	{r4, lr}
  /* USER CODE BEGIN USB_IRQn 0 */

  /* USER CODE END USB_IRQn 0 */
  HAL_PCD_IRQHandler(&hpcd_USB_FS);
 8001f2a:	4802      	ldr	r0, [pc, #8]	; (8001f34 <USB_IRQHandler+0xc>)
 8001f2c:	f000 ff12 	bl	8002d54 <HAL_PCD_IRQHandler>
  /* USER CODE BEGIN USB_IRQn 1 */

  /* USER CODE END USB_IRQn 1 */
}
 8001f30:	bd10      	pop	{r4, pc}
 8001f32:	46c0      	nop			; (mov r8, r8)
 8001f34:	20000cec 	.word	0x20000cec

08001f38 <_sbrk>:
 8001f38:	4b0b      	ldr	r3, [pc, #44]	; (8001f68 <_sbrk+0x30>)
 8001f3a:	490c      	ldr	r1, [pc, #48]	; (8001f6c <_sbrk+0x34>)
 8001f3c:	0002      	movs	r2, r0
 8001f3e:	1ac9      	subs	r1, r1, r3
 8001f40:	4b0b      	ldr	r3, [pc, #44]	; (8001f70 <_sbrk+0x38>)
 8001f42:	b510      	push	{r4, lr}
 8001f44:	6818      	ldr	r0, [r3, #0]
 8001f46:	2800      	cmp	r0, #0
 8001f48:	d101      	bne.n	8001f4e <_sbrk+0x16>
 8001f4a:	480a      	ldr	r0, [pc, #40]	; (8001f74 <_sbrk+0x3c>)
 8001f4c:	6018      	str	r0, [r3, #0]
 8001f4e:	6818      	ldr	r0, [r3, #0]
 8001f50:	1882      	adds	r2, r0, r2
 8001f52:	428a      	cmp	r2, r1
 8001f54:	d906      	bls.n	8001f64 <_sbrk+0x2c>
 8001f56:	f003 f995 	bl	8005284 <__errno>
 8001f5a:	230c      	movs	r3, #12
 8001f5c:	6003      	str	r3, [r0, #0]
 8001f5e:	2001      	movs	r0, #1
 8001f60:	4240      	negs	r0, r0
 8001f62:	bd10      	pop	{r4, pc}
 8001f64:	601a      	str	r2, [r3, #0]
 8001f66:	e7fc      	b.n	8001f62 <_sbrk+0x2a>
 8001f68:	00000400 	.word	0x00000400
 8001f6c:	20001800 	.word	0x20001800
 8001f70:	20000334 	.word	0x20000334
 8001f74:	20000f68 	.word	0x20000f68

08001f78 <SystemInit>:
 8001f78:	4770      	bx	lr
	...

08001f7c <Reset_Handler>:
 8001f7c:	4813      	ldr	r0, [pc, #76]	; (8001fcc <LoopForever+0x2>)
 8001f7e:	4685      	mov	sp, r0
 8001f80:	4813      	ldr	r0, [pc, #76]	; (8001fd0 <LoopForever+0x6>)
 8001f82:	6801      	ldr	r1, [r0, #0]
 8001f84:	0e09      	lsrs	r1, r1, #24
 8001f86:	4a13      	ldr	r2, [pc, #76]	; (8001fd4 <LoopForever+0xa>)
 8001f88:	4291      	cmp	r1, r2
 8001f8a:	d105      	bne.n	8001f98 <ApplicationStart>
 8001f8c:	4812      	ldr	r0, [pc, #72]	; (8001fd8 <LoopForever+0xe>)
 8001f8e:	4913      	ldr	r1, [pc, #76]	; (8001fdc <LoopForever+0x12>)
 8001f90:	6001      	str	r1, [r0, #0]
 8001f92:	4813      	ldr	r0, [pc, #76]	; (8001fe0 <LoopForever+0x16>)
 8001f94:	4913      	ldr	r1, [pc, #76]	; (8001fe4 <LoopForever+0x1a>)
 8001f96:	6001      	str	r1, [r0, #0]

08001f98 <ApplicationStart>:
 8001f98:	4813      	ldr	r0, [pc, #76]	; (8001fe8 <LoopForever+0x1e>)
 8001f9a:	4914      	ldr	r1, [pc, #80]	; (8001fec <LoopForever+0x22>)
 8001f9c:	4a14      	ldr	r2, [pc, #80]	; (8001ff0 <LoopForever+0x26>)
 8001f9e:	2300      	movs	r3, #0
 8001fa0:	e002      	b.n	8001fa8 <LoopCopyDataInit>

08001fa2 <CopyDataInit>:
 8001fa2:	58d4      	ldr	r4, [r2, r3]
 8001fa4:	50c4      	str	r4, [r0, r3]
 8001fa6:	3304      	adds	r3, #4

08001fa8 <LoopCopyDataInit>:
 8001fa8:	18c4      	adds	r4, r0, r3
 8001faa:	428c      	cmp	r4, r1
 8001fac:	d3f9      	bcc.n	8001fa2 <CopyDataInit>
 8001fae:	4a11      	ldr	r2, [pc, #68]	; (8001ff4 <LoopForever+0x2a>)
 8001fb0:	4c11      	ldr	r4, [pc, #68]	; (8001ff8 <LoopForever+0x2e>)
 8001fb2:	2300      	movs	r3, #0
 8001fb4:	e001      	b.n	8001fba <LoopFillZerobss>

08001fb6 <FillZerobss>:
 8001fb6:	6013      	str	r3, [r2, #0]
 8001fb8:	3204      	adds	r2, #4

08001fba <LoopFillZerobss>:
 8001fba:	42a2      	cmp	r2, r4
 8001fbc:	d3fb      	bcc.n	8001fb6 <FillZerobss>
 8001fbe:	f7ff ffdb 	bl	8001f78 <SystemInit>
 8001fc2:	f003 f965 	bl	8005290 <__libc_init_array>
 8001fc6:	f7ff fc9f 	bl	8001908 <main>

08001fca <LoopForever>:
 8001fca:	e7fe      	b.n	8001fca <LoopForever>
 8001fcc:	20001800 	.word	0x20001800
 8001fd0:	00000004 	.word	0x00000004
 8001fd4:	0000001f 	.word	0x0000001f
 8001fd8:	40021018 	.word	0x40021018
 8001fdc:	00000001 	.word	0x00000001
 8001fe0:	40010000 	.word	0x40010000
 8001fe4:	00000000 	.word	0x00000000
 8001fe8:	20000000 	.word	0x20000000
 8001fec:	20000314 	.word	0x20000314
 8001ff0:	08005c34 	.word	0x08005c34
 8001ff4:	20000314 	.word	0x20000314
 8001ff8:	20000f64 	.word	0x20000f64

08001ffc <ADC1_IRQHandler>:
 8001ffc:	e7fe      	b.n	8001ffc <ADC1_IRQHandler>
	...

08002000 <HAL_InitTick>:
 8002000:	b570      	push	{r4, r5, r6, lr}
 8002002:	0005      	movs	r5, r0
 8002004:	20fa      	movs	r0, #250	; 0xfa
 8002006:	4b0d      	ldr	r3, [pc, #52]	; (800203c <HAL_InitTick+0x3c>)
 8002008:	0080      	lsls	r0, r0, #2
 800200a:	7819      	ldrb	r1, [r3, #0]
 800200c:	f7fe f898 	bl	8000140 <__udivsi3>
 8002010:	4b0b      	ldr	r3, [pc, #44]	; (8002040 <HAL_InitTick+0x40>)
 8002012:	0001      	movs	r1, r0
 8002014:	6818      	ldr	r0, [r3, #0]
 8002016:	f7fe f893 	bl	8000140 <__udivsi3>
 800201a:	f000 f88f 	bl	800213c <HAL_SYSTICK_Config>
 800201e:	0004      	movs	r4, r0
 8002020:	2001      	movs	r0, #1
 8002022:	2c00      	cmp	r4, #0
 8002024:	d109      	bne.n	800203a <HAL_InitTick+0x3a>
 8002026:	2d03      	cmp	r5, #3
 8002028:	d807      	bhi.n	800203a <HAL_InitTick+0x3a>
 800202a:	3802      	subs	r0, #2
 800202c:	0022      	movs	r2, r4
 800202e:	0029      	movs	r1, r5
 8002030:	f000 f83e 	bl	80020b0 <HAL_NVIC_SetPriority>
 8002034:	0020      	movs	r0, r4
 8002036:	4b03      	ldr	r3, [pc, #12]	; (8002044 <HAL_InitTick+0x44>)
 8002038:	601d      	str	r5, [r3, #0]
 800203a:	bd70      	pop	{r4, r5, r6, pc}
 800203c:	20000008 	.word	0x20000008
 8002040:	20000004 	.word	0x20000004
 8002044:	2000000c 	.word	0x2000000c

08002048 <HAL_Init>:
 8002048:	2310      	movs	r3, #16
 800204a:	4a06      	ldr	r2, [pc, #24]	; (8002064 <HAL_Init+0x1c>)
 800204c:	b510      	push	{r4, lr}
 800204e:	6811      	ldr	r1, [r2, #0]
 8002050:	2000      	movs	r0, #0
 8002052:	430b      	orrs	r3, r1
 8002054:	6013      	str	r3, [r2, #0]
 8002056:	f7ff ffd3 	bl	8002000 <HAL_InitTick>
 800205a:	f7ff fe79 	bl	8001d50 <HAL_MspInit>
 800205e:	2000      	movs	r0, #0
 8002060:	bd10      	pop	{r4, pc}
 8002062:	46c0      	nop			; (mov r8, r8)
 8002064:	40022000 	.word	0x40022000

08002068 <HAL_IncTick>:
 8002068:	4a03      	ldr	r2, [pc, #12]	; (8002078 <HAL_IncTick+0x10>)
 800206a:	4b04      	ldr	r3, [pc, #16]	; (800207c <HAL_IncTick+0x14>)
 800206c:	6811      	ldr	r1, [r2, #0]
 800206e:	781b      	ldrb	r3, [r3, #0]
 8002070:	185b      	adds	r3, r3, r1
 8002072:	6013      	str	r3, [r2, #0]
 8002074:	4770      	bx	lr
 8002076:	46c0      	nop			; (mov r8, r8)
 8002078:	20000680 	.word	0x20000680
 800207c:	20000008 	.word	0x20000008

08002080 <HAL_GetTick>:
 8002080:	4b01      	ldr	r3, [pc, #4]	; (8002088 <HAL_GetTick+0x8>)
 8002082:	6818      	ldr	r0, [r3, #0]
 8002084:	4770      	bx	lr
 8002086:	46c0      	nop			; (mov r8, r8)
 8002088:	20000680 	.word	0x20000680

0800208c <HAL_Delay>:
 800208c:	b570      	push	{r4, r5, r6, lr}
 800208e:	0004      	movs	r4, r0
 8002090:	f7ff fff6 	bl	8002080 <HAL_GetTick>
 8002094:	0005      	movs	r5, r0
 8002096:	1c63      	adds	r3, r4, #1
 8002098:	d002      	beq.n	80020a0 <HAL_Delay+0x14>
 800209a:	4b04      	ldr	r3, [pc, #16]	; (80020ac <HAL_Delay+0x20>)
 800209c:	781b      	ldrb	r3, [r3, #0]
 800209e:	18e4      	adds	r4, r4, r3
 80020a0:	f7ff ffee 	bl	8002080 <HAL_GetTick>
 80020a4:	1b40      	subs	r0, r0, r5
 80020a6:	42a0      	cmp	r0, r4
 80020a8:	d3fa      	bcc.n	80020a0 <HAL_Delay+0x14>
 80020aa:	bd70      	pop	{r4, r5, r6, pc}
 80020ac:	20000008 	.word	0x20000008

080020b0 <HAL_NVIC_SetPriority>:
 80020b0:	b530      	push	{r4, r5, lr}
 80020b2:	25ff      	movs	r5, #255	; 0xff
 80020b4:	2403      	movs	r4, #3
 80020b6:	002a      	movs	r2, r5
 80020b8:	b2c3      	uxtb	r3, r0
 80020ba:	401c      	ands	r4, r3
 80020bc:	00e4      	lsls	r4, r4, #3
 80020be:	40a2      	lsls	r2, r4
 80020c0:	0189      	lsls	r1, r1, #6
 80020c2:	4029      	ands	r1, r5
 80020c4:	43d2      	mvns	r2, r2
 80020c6:	40a1      	lsls	r1, r4
 80020c8:	2800      	cmp	r0, #0
 80020ca:	db0a      	blt.n	80020e2 <HAL_NVIC_SetPriority+0x32>
 80020cc:	24c0      	movs	r4, #192	; 0xc0
 80020ce:	4b0b      	ldr	r3, [pc, #44]	; (80020fc <HAL_NVIC_SetPriority+0x4c>)
 80020d0:	0880      	lsrs	r0, r0, #2
 80020d2:	0080      	lsls	r0, r0, #2
 80020d4:	18c0      	adds	r0, r0, r3
 80020d6:	00a4      	lsls	r4, r4, #2
 80020d8:	5903      	ldr	r3, [r0, r4]
 80020da:	401a      	ands	r2, r3
 80020dc:	4311      	orrs	r1, r2
 80020de:	5101      	str	r1, [r0, r4]
 80020e0:	bd30      	pop	{r4, r5, pc}
 80020e2:	200f      	movs	r0, #15
 80020e4:	4003      	ands	r3, r0
 80020e6:	3b08      	subs	r3, #8
 80020e8:	4805      	ldr	r0, [pc, #20]	; (8002100 <HAL_NVIC_SetPriority+0x50>)
 80020ea:	089b      	lsrs	r3, r3, #2
 80020ec:	009b      	lsls	r3, r3, #2
 80020ee:	181b      	adds	r3, r3, r0
 80020f0:	69d8      	ldr	r0, [r3, #28]
 80020f2:	4002      	ands	r2, r0
 80020f4:	4311      	orrs	r1, r2
 80020f6:	61d9      	str	r1, [r3, #28]
 80020f8:	e7f2      	b.n	80020e0 <HAL_NVIC_SetPriority+0x30>
 80020fa:	46c0      	nop			; (mov r8, r8)
 80020fc:	e000e100 	.word	0xe000e100
 8002100:	e000ed00 	.word	0xe000ed00

08002104 <HAL_NVIC_EnableIRQ>:
 8002104:	2800      	cmp	r0, #0
 8002106:	db05      	blt.n	8002114 <HAL_NVIC_EnableIRQ+0x10>
 8002108:	231f      	movs	r3, #31
 800210a:	4018      	ands	r0, r3
 800210c:	3b1e      	subs	r3, #30
 800210e:	4083      	lsls	r3, r0
 8002110:	4a01      	ldr	r2, [pc, #4]	; (8002118 <HAL_NVIC_EnableIRQ+0x14>)
 8002112:	6013      	str	r3, [r2, #0]
 8002114:	4770      	bx	lr
 8002116:	46c0      	nop			; (mov r8, r8)
 8002118:	e000e100 	.word	0xe000e100

0800211c <HAL_NVIC_DisableIRQ>:
 800211c:	2800      	cmp	r0, #0
 800211e:	db09      	blt.n	8002134 <HAL_NVIC_DisableIRQ+0x18>
 8002120:	231f      	movs	r3, #31
 8002122:	4018      	ands	r0, r3
 8002124:	3b1e      	subs	r3, #30
 8002126:	4083      	lsls	r3, r0
 8002128:	4a03      	ldr	r2, [pc, #12]	; (8002138 <HAL_NVIC_DisableIRQ+0x1c>)
 800212a:	67d3      	str	r3, [r2, #124]	; 0x7c
 800212c:	f3bf 8f4f 	dsb	sy
 8002130:	f3bf 8f6f 	isb	sy
 8002134:	4770      	bx	lr
 8002136:	46c0      	nop			; (mov r8, r8)
 8002138:	e000e104 	.word	0xe000e104

0800213c <HAL_SYSTICK_Config>:
 800213c:	4a09      	ldr	r2, [pc, #36]	; (8002164 <HAL_SYSTICK_Config+0x28>)
 800213e:	1e43      	subs	r3, r0, #1
 8002140:	2001      	movs	r0, #1
 8002142:	4293      	cmp	r3, r2
 8002144:	d80d      	bhi.n	8002162 <HAL_SYSTICK_Config+0x26>
 8002146:	21c0      	movs	r1, #192	; 0xc0
 8002148:	4a07      	ldr	r2, [pc, #28]	; (8002168 <HAL_SYSTICK_Config+0x2c>)
 800214a:	4808      	ldr	r0, [pc, #32]	; (800216c <HAL_SYSTICK_Config+0x30>)
 800214c:	6053      	str	r3, [r2, #4]
 800214e:	6a03      	ldr	r3, [r0, #32]
 8002150:	0609      	lsls	r1, r1, #24
 8002152:	021b      	lsls	r3, r3, #8
 8002154:	0a1b      	lsrs	r3, r3, #8
 8002156:	430b      	orrs	r3, r1
 8002158:	6203      	str	r3, [r0, #32]
 800215a:	2000      	movs	r0, #0
 800215c:	2307      	movs	r3, #7
 800215e:	6090      	str	r0, [r2, #8]
 8002160:	6013      	str	r3, [r2, #0]
 8002162:	4770      	bx	lr
 8002164:	00ffffff 	.word	0x00ffffff
 8002168:	e000e010 	.word	0xe000e010
 800216c:	e000ed00 	.word	0xe000ed00

08002170 <HAL_DMA_Init>:
 8002170:	b570      	push	{r4, r5, r6, lr}
 8002172:	0004      	movs	r4, r0
 8002174:	2501      	movs	r5, #1
 8002176:	2800      	cmp	r0, #0
 8002178:	d024      	beq.n	80021c4 <HAL_DMA_Init+0x54>
 800217a:	2302      	movs	r3, #2
 800217c:	1c86      	adds	r6, r0, #2
 800217e:	6800      	ldr	r0, [r0, #0]
 8002180:	77f3      	strb	r3, [r6, #31]
 8002182:	6802      	ldr	r2, [r0, #0]
 8002184:	4b10      	ldr	r3, [pc, #64]	; (80021c8 <HAL_DMA_Init+0x58>)
 8002186:	68a1      	ldr	r1, [r4, #8]
 8002188:	401a      	ands	r2, r3
 800218a:	6863      	ldr	r3, [r4, #4]
 800218c:	430b      	orrs	r3, r1
 800218e:	68e1      	ldr	r1, [r4, #12]
 8002190:	430b      	orrs	r3, r1
 8002192:	6921      	ldr	r1, [r4, #16]
 8002194:	430b      	orrs	r3, r1
 8002196:	6961      	ldr	r1, [r4, #20]
 8002198:	430b      	orrs	r3, r1
 800219a:	69a1      	ldr	r1, [r4, #24]
 800219c:	430b      	orrs	r3, r1
 800219e:	69e1      	ldr	r1, [r4, #28]
 80021a0:	430b      	orrs	r3, r1
 80021a2:	4313      	orrs	r3, r2
 80021a4:	6003      	str	r3, [r0, #0]
 80021a6:	4b09      	ldr	r3, [pc, #36]	; (80021cc <HAL_DMA_Init+0x5c>)
 80021a8:	2114      	movs	r1, #20
 80021aa:	18c0      	adds	r0, r0, r3
 80021ac:	f7fd ffc8 	bl	8000140 <__udivsi3>
 80021b0:	4b07      	ldr	r3, [pc, #28]	; (80021d0 <HAL_DMA_Init+0x60>)
 80021b2:	0080      	lsls	r0, r0, #2
 80021b4:	63e3      	str	r3, [r4, #60]	; 0x3c
 80021b6:	2300      	movs	r3, #0
 80021b8:	6420      	str	r0, [r4, #64]	; 0x40
 80021ba:	63a3      	str	r3, [r4, #56]	; 0x38
 80021bc:	77f5      	strb	r5, [r6, #31]
 80021be:	1964      	adds	r4, r4, r5
 80021c0:	001d      	movs	r5, r3
 80021c2:	77e3      	strb	r3, [r4, #31]
 80021c4:	0028      	movs	r0, r5
 80021c6:	bd70      	pop	{r4, r5, r6, pc}
 80021c8:	ffffc00f 	.word	0xffffc00f
 80021cc:	bffdfff8 	.word	0xbffdfff8
 80021d0:	40020000 	.word	0x40020000

080021d4 <HAL_DMA_Abort_IT>:
 80021d4:	b570      	push	{r4, r5, r6, lr}
 80021d6:	1c84      	adds	r4, r0, #2
 80021d8:	7fe3      	ldrb	r3, [r4, #31]
 80021da:	2b02      	cmp	r3, #2
 80021dc:	d004      	beq.n	80021e8 <HAL_DMA_Abort_IT+0x14>
 80021de:	2304      	movs	r3, #4
 80021e0:	6383      	str	r3, [r0, #56]	; 0x38
 80021e2:	3b03      	subs	r3, #3
 80021e4:	0018      	movs	r0, r3
 80021e6:	bd70      	pop	{r4, r5, r6, pc}
 80021e8:	210e      	movs	r1, #14
 80021ea:	6803      	ldr	r3, [r0, #0]
 80021ec:	6c05      	ldr	r5, [r0, #64]	; 0x40
 80021ee:	681a      	ldr	r2, [r3, #0]
 80021f0:	438a      	bics	r2, r1
 80021f2:	601a      	str	r2, [r3, #0]
 80021f4:	2201      	movs	r2, #1
 80021f6:	6819      	ldr	r1, [r3, #0]
 80021f8:	4391      	bics	r1, r2
 80021fa:	6019      	str	r1, [r3, #0]
 80021fc:	0011      	movs	r1, r2
 80021fe:	40a9      	lsls	r1, r5
 8002200:	6bc3      	ldr	r3, [r0, #60]	; 0x3c
 8002202:	6059      	str	r1, [r3, #4]
 8002204:	77e2      	strb	r2, [r4, #31]
 8002206:	2400      	movs	r4, #0
 8002208:	1883      	adds	r3, r0, r2
 800220a:	6b42      	ldr	r2, [r0, #52]	; 0x34
 800220c:	77dc      	strb	r4, [r3, #31]
 800220e:	0013      	movs	r3, r2
 8002210:	42a2      	cmp	r2, r4
 8002212:	d0e7      	beq.n	80021e4 <HAL_DMA_Abort_IT+0x10>
 8002214:	4790      	blx	r2
 8002216:	0023      	movs	r3, r4
 8002218:	e7e4      	b.n	80021e4 <HAL_DMA_Abort_IT+0x10>

0800221a <HAL_DMA_IRQHandler>:
 800221a:	b5f8      	push	{r3, r4, r5, r6, r7, lr}
 800221c:	2704      	movs	r7, #4
 800221e:	003e      	movs	r6, r7
 8002220:	6c01      	ldr	r1, [r0, #64]	; 0x40
 8002222:	6bc2      	ldr	r2, [r0, #60]	; 0x3c
 8002224:	408e      	lsls	r6, r1
 8002226:	6815      	ldr	r5, [r2, #0]
 8002228:	6803      	ldr	r3, [r0, #0]
 800222a:	681c      	ldr	r4, [r3, #0]
 800222c:	4235      	tst	r5, r6
 800222e:	d00d      	beq.n	800224c <HAL_DMA_IRQHandler+0x32>
 8002230:	423c      	tst	r4, r7
 8002232:	d00b      	beq.n	800224c <HAL_DMA_IRQHandler+0x32>
 8002234:	6819      	ldr	r1, [r3, #0]
 8002236:	0689      	lsls	r1, r1, #26
 8002238:	d402      	bmi.n	8002240 <HAL_DMA_IRQHandler+0x26>
 800223a:	6819      	ldr	r1, [r3, #0]
 800223c:	43b9      	bics	r1, r7
 800223e:	6019      	str	r1, [r3, #0]
 8002240:	6ac3      	ldr	r3, [r0, #44]	; 0x2c
 8002242:	6056      	str	r6, [r2, #4]
 8002244:	2b00      	cmp	r3, #0
 8002246:	d019      	beq.n	800227c <HAL_DMA_IRQHandler+0x62>
 8002248:	4798      	blx	r3
 800224a:	e017      	b.n	800227c <HAL_DMA_IRQHandler+0x62>
 800224c:	2702      	movs	r7, #2
 800224e:	003e      	movs	r6, r7
 8002250:	408e      	lsls	r6, r1
 8002252:	4235      	tst	r5, r6
 8002254:	d013      	beq.n	800227e <HAL_DMA_IRQHandler+0x64>
 8002256:	423c      	tst	r4, r7
 8002258:	d011      	beq.n	800227e <HAL_DMA_IRQHandler+0x64>
 800225a:	6819      	ldr	r1, [r3, #0]
 800225c:	0689      	lsls	r1, r1, #26
 800225e:	d406      	bmi.n	800226e <HAL_DMA_IRQHandler+0x54>
 8002260:	240a      	movs	r4, #10
 8002262:	6819      	ldr	r1, [r3, #0]
 8002264:	43a1      	bics	r1, r4
 8002266:	6019      	str	r1, [r3, #0]
 8002268:	2101      	movs	r1, #1
 800226a:	19c3      	adds	r3, r0, r7
 800226c:	77d9      	strb	r1, [r3, #31]
 800226e:	6056      	str	r6, [r2, #4]
 8002270:	2200      	movs	r2, #0
 8002272:	1c43      	adds	r3, r0, #1
 8002274:	77da      	strb	r2, [r3, #31]
 8002276:	6a83      	ldr	r3, [r0, #40]	; 0x28
 8002278:	4293      	cmp	r3, r2
 800227a:	d1e5      	bne.n	8002248 <HAL_DMA_IRQHandler+0x2e>
 800227c:	bdf8      	pop	{r3, r4, r5, r6, r7, pc}
 800227e:	2608      	movs	r6, #8
 8002280:	0037      	movs	r7, r6
 8002282:	408f      	lsls	r7, r1
 8002284:	423d      	tst	r5, r7
 8002286:	d0f9      	beq.n	800227c <HAL_DMA_IRQHandler+0x62>
 8002288:	4234      	tst	r4, r6
 800228a:	d0f7      	beq.n	800227c <HAL_DMA_IRQHandler+0x62>
 800228c:	250e      	movs	r5, #14
 800228e:	681c      	ldr	r4, [r3, #0]
 8002290:	43ac      	bics	r4, r5
 8002292:	601c      	str	r4, [r3, #0]
 8002294:	2301      	movs	r3, #1
 8002296:	001c      	movs	r4, r3
 8002298:	408c      	lsls	r4, r1
 800229a:	6054      	str	r4, [r2, #4]
 800229c:	1c82      	adds	r2, r0, #2
 800229e:	6383      	str	r3, [r0, #56]	; 0x38
 80022a0:	77d3      	strb	r3, [r2, #31]
 80022a2:	2200      	movs	r2, #0
 80022a4:	18c3      	adds	r3, r0, r3
 80022a6:	77da      	strb	r2, [r3, #31]
 80022a8:	6b03      	ldr	r3, [r0, #48]	; 0x30
 80022aa:	e7e5      	b.n	8002278 <HAL_DMA_IRQHandler+0x5e>

080022ac <HAL_GPIO_Init>:
 80022ac:	b5f0      	push	{r4, r5, r6, r7, lr}
 80022ae:	680b      	ldr	r3, [r1, #0]
 80022b0:	b087      	sub	sp, #28
 80022b2:	9303      	str	r3, [sp, #12]
 80022b4:	2300      	movs	r3, #0
 80022b6:	9101      	str	r1, [sp, #4]
 80022b8:	9a03      	ldr	r2, [sp, #12]
 80022ba:	40da      	lsrs	r2, r3
 80022bc:	d101      	bne.n	80022c2 <HAL_GPIO_Init+0x16>
 80022be:	b007      	add	sp, #28
 80022c0:	bdf0      	pop	{r4, r5, r6, r7, pc}
 80022c2:	2201      	movs	r2, #1
 80022c4:	409a      	lsls	r2, r3
 80022c6:	9202      	str	r2, [sp, #8]
 80022c8:	9902      	ldr	r1, [sp, #8]
 80022ca:	9a03      	ldr	r2, [sp, #12]
 80022cc:	400a      	ands	r2, r1
 80022ce:	9200      	str	r2, [sp, #0]
 80022d0:	d100      	bne.n	80022d4 <HAL_GPIO_Init+0x28>
 80022d2:	e088      	b.n	80023e6 <HAL_GPIO_Init+0x13a>
 80022d4:	9a01      	ldr	r2, [sp, #4]
 80022d6:	2110      	movs	r1, #16
 80022d8:	6852      	ldr	r2, [r2, #4]
 80022da:	0016      	movs	r6, r2
 80022dc:	438e      	bics	r6, r1
 80022de:	2e02      	cmp	r6, #2
 80022e0:	d10e      	bne.n	8002300 <HAL_GPIO_Init+0x54>
 80022e2:	2507      	movs	r5, #7
 80022e4:	401d      	ands	r5, r3
 80022e6:	00ad      	lsls	r5, r5, #2
 80022e8:	3901      	subs	r1, #1
 80022ea:	40a9      	lsls	r1, r5
 80022ec:	08dc      	lsrs	r4, r3, #3
 80022ee:	00a4      	lsls	r4, r4, #2
 80022f0:	1904      	adds	r4, r0, r4
 80022f2:	6a27      	ldr	r7, [r4, #32]
 80022f4:	438f      	bics	r7, r1
 80022f6:	9901      	ldr	r1, [sp, #4]
 80022f8:	6909      	ldr	r1, [r1, #16]
 80022fa:	40a9      	lsls	r1, r5
 80022fc:	430f      	orrs	r7, r1
 80022fe:	6227      	str	r7, [r4, #32]
 8002300:	2403      	movs	r4, #3
 8002302:	005f      	lsls	r7, r3, #1
 8002304:	40bc      	lsls	r4, r7
 8002306:	43e4      	mvns	r4, r4
 8002308:	6805      	ldr	r5, [r0, #0]
 800230a:	3e01      	subs	r6, #1
 800230c:	4025      	ands	r5, r4
 800230e:	46ac      	mov	ip, r5
 8002310:	2503      	movs	r5, #3
 8002312:	4015      	ands	r5, r2
 8002314:	40bd      	lsls	r5, r7
 8002316:	4661      	mov	r1, ip
 8002318:	430d      	orrs	r5, r1
 800231a:	6005      	str	r5, [r0, #0]
 800231c:	2e01      	cmp	r6, #1
 800231e:	d80f      	bhi.n	8002340 <HAL_GPIO_Init+0x94>
 8002320:	9901      	ldr	r1, [sp, #4]
 8002322:	6886      	ldr	r6, [r0, #8]
 8002324:	68cd      	ldr	r5, [r1, #12]
 8002326:	4026      	ands	r6, r4
 8002328:	40bd      	lsls	r5, r7
 800232a:	4335      	orrs	r5, r6
 800232c:	6085      	str	r5, [r0, #8]
 800232e:	6846      	ldr	r6, [r0, #4]
 8002330:	9902      	ldr	r1, [sp, #8]
 8002332:	0915      	lsrs	r5, r2, #4
 8002334:	438e      	bics	r6, r1
 8002336:	2101      	movs	r1, #1
 8002338:	400d      	ands	r5, r1
 800233a:	409d      	lsls	r5, r3
 800233c:	4335      	orrs	r5, r6
 800233e:	6045      	str	r5, [r0, #4]
 8002340:	68c5      	ldr	r5, [r0, #12]
 8002342:	9901      	ldr	r1, [sp, #4]
 8002344:	402c      	ands	r4, r5
 8002346:	688d      	ldr	r5, [r1, #8]
 8002348:	2180      	movs	r1, #128	; 0x80
 800234a:	40bd      	lsls	r5, r7
 800234c:	0549      	lsls	r1, r1, #21
 800234e:	432c      	orrs	r4, r5
 8002350:	60c4      	str	r4, [r0, #12]
 8002352:	420a      	tst	r2, r1
 8002354:	d047      	beq.n	80023e6 <HAL_GPIO_Init+0x13a>
 8002356:	2101      	movs	r1, #1
 8002358:	4c24      	ldr	r4, [pc, #144]	; (80023ec <HAL_GPIO_Init+0x140>)
 800235a:	2603      	movs	r6, #3
 800235c:	69a5      	ldr	r5, [r4, #24]
 800235e:	401e      	ands	r6, r3
 8002360:	430d      	orrs	r5, r1
 8002362:	61a5      	str	r5, [r4, #24]
 8002364:	69a4      	ldr	r4, [r4, #24]
 8002366:	089d      	lsrs	r5, r3, #2
 8002368:	400c      	ands	r4, r1
 800236a:	9405      	str	r4, [sp, #20]
 800236c:	9c05      	ldr	r4, [sp, #20]
 800236e:	240f      	movs	r4, #15
 8002370:	491f      	ldr	r1, [pc, #124]	; (80023f0 <HAL_GPIO_Init+0x144>)
 8002372:	00ad      	lsls	r5, r5, #2
 8002374:	00b6      	lsls	r6, r6, #2
 8002376:	186d      	adds	r5, r5, r1
 8002378:	40b4      	lsls	r4, r6
 800237a:	2190      	movs	r1, #144	; 0x90
 800237c:	68af      	ldr	r7, [r5, #8]
 800237e:	05c9      	lsls	r1, r1, #23
 8002380:	43a7      	bics	r7, r4
 8002382:	2400      	movs	r4, #0
 8002384:	4288      	cmp	r0, r1
 8002386:	d008      	beq.n	800239a <HAL_GPIO_Init+0xee>
 8002388:	491a      	ldr	r1, [pc, #104]	; (80023f4 <HAL_GPIO_Init+0x148>)
 800238a:	3401      	adds	r4, #1
 800238c:	4288      	cmp	r0, r1
 800238e:	d004      	beq.n	800239a <HAL_GPIO_Init+0xee>
 8002390:	4919      	ldr	r1, [pc, #100]	; (80023f8 <HAL_GPIO_Init+0x14c>)
 8002392:	3404      	adds	r4, #4
 8002394:	4288      	cmp	r0, r1
 8002396:	d100      	bne.n	800239a <HAL_GPIO_Init+0xee>
 8002398:	3c03      	subs	r4, #3
 800239a:	40b4      	lsls	r4, r6
 800239c:	9900      	ldr	r1, [sp, #0]
 800239e:	433c      	orrs	r4, r7
 80023a0:	000e      	movs	r6, r1
 80023a2:	60ac      	str	r4, [r5, #8]
 80023a4:	4c15      	ldr	r4, [pc, #84]	; (80023fc <HAL_GPIO_Init+0x150>)
 80023a6:	43cd      	mvns	r5, r1
 80023a8:	6827      	ldr	r7, [r4, #0]
 80023aa:	433e      	orrs	r6, r7
 80023ac:	03d1      	lsls	r1, r2, #15
 80023ae:	d401      	bmi.n	80023b4 <HAL_GPIO_Init+0x108>
 80023b0:	003e      	movs	r6, r7
 80023b2:	402e      	ands	r6, r5
 80023b4:	6026      	str	r6, [r4, #0]
 80023b6:	6867      	ldr	r7, [r4, #4]
 80023b8:	9e00      	ldr	r6, [sp, #0]
 80023ba:	433e      	orrs	r6, r7
 80023bc:	0391      	lsls	r1, r2, #14
 80023be:	d401      	bmi.n	80023c4 <HAL_GPIO_Init+0x118>
 80023c0:	003e      	movs	r6, r7
 80023c2:	402e      	ands	r6, r5
 80023c4:	6066      	str	r6, [r4, #4]
 80023c6:	68a7      	ldr	r7, [r4, #8]
 80023c8:	9e00      	ldr	r6, [sp, #0]
 80023ca:	433e      	orrs	r6, r7
 80023cc:	02d1      	lsls	r1, r2, #11
 80023ce:	d401      	bmi.n	80023d4 <HAL_GPIO_Init+0x128>
 80023d0:	003e      	movs	r6, r7
 80023d2:	402e      	ands	r6, r5
 80023d4:	60a6      	str	r6, [r4, #8]
 80023d6:	68e6      	ldr	r6, [r4, #12]
 80023d8:	9f00      	ldr	r7, [sp, #0]
 80023da:	4337      	orrs	r7, r6
 80023dc:	0292      	lsls	r2, r2, #10
 80023de:	d401      	bmi.n	80023e4 <HAL_GPIO_Init+0x138>
 80023e0:	402e      	ands	r6, r5
 80023e2:	0037      	movs	r7, r6
 80023e4:	60e7      	str	r7, [r4, #12]
 80023e6:	3301      	adds	r3, #1
 80023e8:	e766      	b.n	80022b8 <HAL_GPIO_Init+0xc>
 80023ea:	46c0      	nop			; (mov r8, r8)
 80023ec:	40021000 	.word	0x40021000
 80023f0:	40010000 	.word	0x40010000
 80023f4:	48000400 	.word	0x48000400
 80023f8:	48000800 	.word	0x48000800
 80023fc:	40010400 	.word	0x40010400

08002400 <HAL_GPIO_ReadPin>:
 8002400:	6900      	ldr	r0, [r0, #16]
 8002402:	4008      	ands	r0, r1
 8002404:	1e41      	subs	r1, r0, #1
 8002406:	4188      	sbcs	r0, r1
 8002408:	b2c0      	uxtb	r0, r0
 800240a:	4770      	bx	lr

0800240c <HAL_GPIO_WritePin>:
 800240c:	2a00      	cmp	r2, #0
 800240e:	d001      	beq.n	8002414 <HAL_GPIO_WritePin+0x8>
 8002410:	6181      	str	r1, [r0, #24]
 8002412:	4770      	bx	lr
 8002414:	6281      	str	r1, [r0, #40]	; 0x28
 8002416:	e7fc      	b.n	8002412 <HAL_GPIO_WritePin+0x6>

08002418 <I2C_Flush_TXDR>:
 8002418:	6803      	ldr	r3, [r0, #0]
 800241a:	699a      	ldr	r2, [r3, #24]
 800241c:	0792      	lsls	r2, r2, #30
 800241e:	d501      	bpl.n	8002424 <I2C_Flush_TXDR+0xc>
 8002420:	2200      	movs	r2, #0
 8002422:	629a      	str	r2, [r3, #40]	; 0x28
 8002424:	2201      	movs	r2, #1
 8002426:	6999      	ldr	r1, [r3, #24]
 8002428:	4211      	tst	r1, r2
 800242a:	d102      	bne.n	8002432 <I2C_Flush_TXDR+0x1a>
 800242c:	6999      	ldr	r1, [r3, #24]
 800242e:	430a      	orrs	r2, r1
 8002430:	619a      	str	r2, [r3, #24]
 8002432:	4770      	bx	lr

08002434 <I2C_Disable_IRQ>:
 8002434:	b510      	push	{r4, lr}
 8002436:	2300      	movs	r3, #0
 8002438:	07ca      	lsls	r2, r1, #31
 800243a:	d508      	bpl.n	800244e <I2C_Disable_IRQ+0x1a>
 800243c:	0003      	movs	r3, r0
 800243e:	3341      	adds	r3, #65	; 0x41
 8002440:	781a      	ldrb	r2, [r3, #0]
 8002442:	2328      	movs	r3, #40	; 0x28
 8002444:	401a      	ands	r2, r3
 8002446:	331a      	adds	r3, #26
 8002448:	2a28      	cmp	r2, #40	; 0x28
 800244a:	d000      	beq.n	800244e <I2C_Disable_IRQ+0x1a>
 800244c:	33b0      	adds	r3, #176	; 0xb0
 800244e:	078a      	lsls	r2, r1, #30
 8002450:	d508      	bpl.n	8002464 <I2C_Disable_IRQ+0x30>
 8002452:	0002      	movs	r2, r0
 8002454:	2428      	movs	r4, #40	; 0x28
 8002456:	3241      	adds	r2, #65	; 0x41
 8002458:	7812      	ldrb	r2, [r2, #0]
 800245a:	4022      	ands	r2, r4
 800245c:	42a2      	cmp	r2, r4
 800245e:	d10a      	bne.n	8002476 <I2C_Disable_IRQ+0x42>
 8002460:	2244      	movs	r2, #68	; 0x44
 8002462:	4313      	orrs	r3, r2
 8002464:	074a      	lsls	r2, r1, #29
 8002466:	d501      	bpl.n	800246c <I2C_Disable_IRQ+0x38>
 8002468:	22b8      	movs	r2, #184	; 0xb8
 800246a:	4313      	orrs	r3, r2
 800246c:	6801      	ldr	r1, [r0, #0]
 800246e:	680a      	ldr	r2, [r1, #0]
 8002470:	439a      	bics	r2, r3
 8002472:	600a      	str	r2, [r1, #0]
 8002474:	bd10      	pop	{r4, pc}
 8002476:	22f4      	movs	r2, #244	; 0xf4
 8002478:	e7f3      	b.n	8002462 <I2C_Disable_IRQ+0x2e>
	...

0800247c <HAL_I2C_Init>:
 800247c:	b570      	push	{r4, r5, r6, lr}
 800247e:	0004      	movs	r4, r0
 8002480:	2001      	movs	r0, #1
 8002482:	2c00      	cmp	r4, #0
 8002484:	d03f      	beq.n	8002506 <HAL_I2C_Init+0x8a>
 8002486:	0025      	movs	r5, r4
 8002488:	3541      	adds	r5, #65	; 0x41
 800248a:	782b      	ldrb	r3, [r5, #0]
 800248c:	b2db      	uxtb	r3, r3
 800248e:	2b00      	cmp	r3, #0
 8002490:	d105      	bne.n	800249e <HAL_I2C_Init+0x22>
 8002492:	0022      	movs	r2, r4
 8002494:	3240      	adds	r2, #64	; 0x40
 8002496:	7013      	strb	r3, [r2, #0]
 8002498:	0020      	movs	r0, r4
 800249a:	f7ff fc71 	bl	8001d80 <HAL_I2C_MspInit>
 800249e:	2324      	movs	r3, #36	; 0x24
 80024a0:	2101      	movs	r1, #1
 80024a2:	702b      	strb	r3, [r5, #0]
 80024a4:	6823      	ldr	r3, [r4, #0]
 80024a6:	68e0      	ldr	r0, [r4, #12]
 80024a8:	681a      	ldr	r2, [r3, #0]
 80024aa:	68a6      	ldr	r6, [r4, #8]
 80024ac:	438a      	bics	r2, r1
 80024ae:	601a      	str	r2, [r3, #0]
 80024b0:	6861      	ldr	r1, [r4, #4]
 80024b2:	4a1a      	ldr	r2, [pc, #104]	; (800251c <HAL_I2C_Init+0xa0>)
 80024b4:	400a      	ands	r2, r1
 80024b6:	611a      	str	r2, [r3, #16]
 80024b8:	6899      	ldr	r1, [r3, #8]
 80024ba:	4a19      	ldr	r2, [pc, #100]	; (8002520 <HAL_I2C_Init+0xa4>)
 80024bc:	4011      	ands	r1, r2
 80024be:	6099      	str	r1, [r3, #8]
 80024c0:	2801      	cmp	r0, #1
 80024c2:	d121      	bne.n	8002508 <HAL_I2C_Init+0x8c>
 80024c4:	2180      	movs	r1, #128	; 0x80
 80024c6:	0209      	lsls	r1, r1, #8
 80024c8:	4331      	orrs	r1, r6
 80024ca:	6099      	str	r1, [r3, #8]
 80024cc:	6858      	ldr	r0, [r3, #4]
 80024ce:	4915      	ldr	r1, [pc, #84]	; (8002524 <HAL_I2C_Init+0xa8>)
 80024d0:	4301      	orrs	r1, r0
 80024d2:	6059      	str	r1, [r3, #4]
 80024d4:	68d9      	ldr	r1, [r3, #12]
 80024d6:	2000      	movs	r0, #0
 80024d8:	400a      	ands	r2, r1
 80024da:	60da      	str	r2, [r3, #12]
 80024dc:	6961      	ldr	r1, [r4, #20]
 80024de:	6922      	ldr	r2, [r4, #16]
 80024e0:	430a      	orrs	r2, r1
 80024e2:	69a1      	ldr	r1, [r4, #24]
 80024e4:	0209      	lsls	r1, r1, #8
 80024e6:	430a      	orrs	r2, r1
 80024e8:	60da      	str	r2, [r3, #12]
 80024ea:	6a21      	ldr	r1, [r4, #32]
 80024ec:	69e2      	ldr	r2, [r4, #28]
 80024ee:	430a      	orrs	r2, r1
 80024f0:	601a      	str	r2, [r3, #0]
 80024f2:	2201      	movs	r2, #1
 80024f4:	6819      	ldr	r1, [r3, #0]
 80024f6:	430a      	orrs	r2, r1
 80024f8:	601a      	str	r2, [r3, #0]
 80024fa:	2320      	movs	r3, #32
 80024fc:	6460      	str	r0, [r4, #68]	; 0x44
 80024fe:	702b      	strb	r3, [r5, #0]
 8002500:	6320      	str	r0, [r4, #48]	; 0x30
 8002502:	3442      	adds	r4, #66	; 0x42
 8002504:	7020      	strb	r0, [r4, #0]
 8002506:	bd70      	pop	{r4, r5, r6, pc}
 8002508:	2184      	movs	r1, #132	; 0x84
 800250a:	0209      	lsls	r1, r1, #8
 800250c:	4331      	orrs	r1, r6
 800250e:	6099      	str	r1, [r3, #8]
 8002510:	2802      	cmp	r0, #2
 8002512:	d1db      	bne.n	80024cc <HAL_I2C_Init+0x50>
 8002514:	2180      	movs	r1, #128	; 0x80
 8002516:	0109      	lsls	r1, r1, #4
 8002518:	6059      	str	r1, [r3, #4]
 800251a:	e7d7      	b.n	80024cc <HAL_I2C_Init+0x50>
 800251c:	f0ffffff 	.word	0xf0ffffff
 8002520:	ffff7fff 	.word	0xffff7fff
 8002524:	02008000 	.word	0x02008000

08002528 <HAL_I2C_EV_IRQHandler>:
 8002528:	6803      	ldr	r3, [r0, #0]
 800252a:	b510      	push	{r4, lr}
 800252c:	6999      	ldr	r1, [r3, #24]
 800252e:	681a      	ldr	r2, [r3, #0]
 8002530:	6b43      	ldr	r3, [r0, #52]	; 0x34
 8002532:	2b00      	cmp	r3, #0
 8002534:	d000      	beq.n	8002538 <HAL_I2C_EV_IRQHandler+0x10>
 8002536:	4798      	blx	r3
 8002538:	bd10      	pop	{r4, pc}

0800253a <HAL_I2C_SlaveTxCpltCallback>:
 800253a:	4770      	bx	lr

0800253c <HAL_I2C_SlaveRxCpltCallback>:
 800253c:	4770      	bx	lr

0800253e <I2C_ITSlaveSeqCplt>:
 800253e:	0003      	movs	r3, r0
 8002540:	b570      	push	{r4, r5, r6, lr}
 8002542:	2500      	movs	r5, #0
 8002544:	3342      	adds	r3, #66	; 0x42
 8002546:	701d      	strb	r5, [r3, #0]
 8002548:	3b01      	subs	r3, #1
 800254a:	781a      	ldrb	r2, [r3, #0]
 800254c:	0004      	movs	r4, r0
 800254e:	2a29      	cmp	r2, #41	; 0x29
 8002550:	d10d      	bne.n	800256e <I2C_ITSlaveSeqCplt+0x30>
 8002552:	3a01      	subs	r2, #1
 8002554:	701a      	strb	r2, [r3, #0]
 8002556:	2321      	movs	r3, #33	; 0x21
 8002558:	2101      	movs	r1, #1
 800255a:	6303      	str	r3, [r0, #48]	; 0x30
 800255c:	f7ff ff6a 	bl	8002434 <I2C_Disable_IRQ>
 8002560:	0023      	movs	r3, r4
 8002562:	3340      	adds	r3, #64	; 0x40
 8002564:	701d      	strb	r5, [r3, #0]
 8002566:	0020      	movs	r0, r4
 8002568:	f7ff ffe7 	bl	800253a <HAL_I2C_SlaveTxCpltCallback>
 800256c:	bd70      	pop	{r4, r5, r6, pc}
 800256e:	781a      	ldrb	r2, [r3, #0]
 8002570:	2a2a      	cmp	r2, #42	; 0x2a
 8002572:	d1fb      	bne.n	800256c <I2C_ITSlaveSeqCplt+0x2e>
 8002574:	3a02      	subs	r2, #2
 8002576:	701a      	strb	r2, [r3, #0]
 8002578:	2322      	movs	r3, #34	; 0x22
 800257a:	2102      	movs	r1, #2
 800257c:	6303      	str	r3, [r0, #48]	; 0x30
 800257e:	f7ff ff59 	bl	8002434 <I2C_Disable_IRQ>
 8002582:	0023      	movs	r3, r4
 8002584:	3340      	adds	r3, #64	; 0x40
 8002586:	701d      	strb	r5, [r3, #0]
 8002588:	0020      	movs	r0, r4
 800258a:	f7ff ffd7 	bl	800253c <HAL_I2C_SlaveRxCpltCallback>
 800258e:	e7ed      	b.n	800256c <I2C_ITSlaveSeqCplt+0x2e>

08002590 <HAL_I2C_AddrCallback>:
 8002590:	4770      	bx	lr

08002592 <I2C_ITAddrCplt.isra.9>:
 8002592:	0003      	movs	r3, r0
 8002594:	b5f7      	push	{r0, r1, r2, r4, r5, r6, r7, lr}
 8002596:	2128      	movs	r1, #40	; 0x28
 8002598:	3341      	adds	r3, #65	; 0x41
 800259a:	781a      	ldrb	r2, [r3, #0]
 800259c:	0004      	movs	r4, r0
 800259e:	6803      	ldr	r3, [r0, #0]
 80025a0:	400a      	ands	r2, r1
 80025a2:	428a      	cmp	r2, r1
 80025a4:	d137      	bne.n	8002616 <I2C_ITAddrCplt.isra.9+0x84>
 80025a6:	27fe      	movs	r7, #254	; 0xfe
 80025a8:	699d      	ldr	r5, [r3, #24]
 80025aa:	699e      	ldr	r6, [r3, #24]
 80025ac:	689a      	ldr	r2, [r3, #8]
 80025ae:	68d9      	ldr	r1, [r3, #12]
 80025b0:	03ed      	lsls	r5, r5, #15
 80025b2:	9101      	str	r1, [sp, #4]
 80025b4:	68c1      	ldr	r1, [r0, #12]
 80025b6:	0c36      	lsrs	r6, r6, #16
 80025b8:	0fed      	lsrs	r5, r5, #31
 80025ba:	403e      	ands	r6, r7
 80025bc:	2902      	cmp	r1, #2
 80025be:	d121      	bne.n	8002604 <I2C_ITAddrCplt.isra.9+0x72>
 80025c0:	0592      	lsls	r2, r2, #22
 80025c2:	0d92      	lsrs	r2, r2, #22
 80025c4:	09d1      	lsrs	r1, r2, #7
 80025c6:	404e      	eors	r6, r1
 80025c8:	2106      	movs	r1, #6
 80025ca:	400e      	ands	r6, r1
 80025cc:	d110      	bne.n	80025f0 <I2C_ITAddrCplt.isra.9+0x5e>
 80025ce:	6c81      	ldr	r1, [r0, #72]	; 0x48
 80025d0:	3101      	adds	r1, #1
 80025d2:	6481      	str	r1, [r0, #72]	; 0x48
 80025d4:	6c81      	ldr	r1, [r0, #72]	; 0x48
 80025d6:	2902      	cmp	r1, #2
 80025d8:	d109      	bne.n	80025ee <I2C_ITAddrCplt.isra.9+0x5c>
 80025da:	3106      	adds	r1, #6
 80025dc:	6486      	str	r6, [r0, #72]	; 0x48
 80025de:	61d9      	str	r1, [r3, #28]
 80025e0:	0003      	movs	r3, r0
 80025e2:	3340      	adds	r3, #64	; 0x40
 80025e4:	701e      	strb	r6, [r3, #0]
 80025e6:	0029      	movs	r1, r5
 80025e8:	0020      	movs	r0, r4
 80025ea:	f7ff ffd1 	bl	8002590 <HAL_I2C_AddrCallback>
 80025ee:	bdf7      	pop	{r0, r1, r2, r4, r5, r6, r7, pc}
 80025f0:	2104      	movs	r1, #4
 80025f2:	f7ff ff1f 	bl	8002434 <I2C_Disable_IRQ>
 80025f6:	0023      	movs	r3, r4
 80025f8:	2200      	movs	r2, #0
 80025fa:	3340      	adds	r3, #64	; 0x40
 80025fc:	701a      	strb	r2, [r3, #0]
 80025fe:	9a01      	ldr	r2, [sp, #4]
 8002600:	403a      	ands	r2, r7
 8002602:	e7f0      	b.n	80025e6 <I2C_ITAddrCplt.isra.9+0x54>
 8002604:	2104      	movs	r1, #4
 8002606:	f7ff ff15 	bl	8002434 <I2C_Disable_IRQ>
 800260a:	0023      	movs	r3, r4
 800260c:	2200      	movs	r2, #0
 800260e:	3340      	adds	r3, #64	; 0x40
 8002610:	701a      	strb	r2, [r3, #0]
 8002612:	0032      	movs	r2, r6
 8002614:	e7e7      	b.n	80025e6 <I2C_ITAddrCplt.isra.9+0x54>
 8002616:	2208      	movs	r2, #8
 8002618:	61da      	str	r2, [r3, #28]
 800261a:	2300      	movs	r3, #0
 800261c:	3440      	adds	r4, #64	; 0x40
 800261e:	7023      	strb	r3, [r4, #0]
 8002620:	e7e5      	b.n	80025ee <I2C_ITAddrCplt.isra.9+0x5c>

08002622 <HAL_I2C_ListenCpltCallback>:
 8002622:	4770      	bx	lr

08002624 <I2C_ITListenCplt>:
 8002624:	4b18      	ldr	r3, [pc, #96]	; (8002688 <I2C_ITListenCplt+0x64>)
 8002626:	b510      	push	{r4, lr}
 8002628:	62c3      	str	r3, [r0, #44]	; 0x2c
 800262a:	2300      	movs	r3, #0
 800262c:	0002      	movs	r2, r0
 800262e:	6303      	str	r3, [r0, #48]	; 0x30
 8002630:	0004      	movs	r4, r0
 8002632:	2020      	movs	r0, #32
 8002634:	3241      	adds	r2, #65	; 0x41
 8002636:	7010      	strb	r0, [r2, #0]
 8002638:	7053      	strb	r3, [r2, #1]
 800263a:	6363      	str	r3, [r4, #52]	; 0x34
 800263c:	074b      	lsls	r3, r1, #29
 800263e:	d513      	bpl.n	8002668 <I2C_ITListenCplt+0x44>
 8002640:	6823      	ldr	r3, [r4, #0]
 8002642:	6a62      	ldr	r2, [r4, #36]	; 0x24
 8002644:	6a5b      	ldr	r3, [r3, #36]	; 0x24
 8002646:	7013      	strb	r3, [r2, #0]
 8002648:	6a63      	ldr	r3, [r4, #36]	; 0x24
 800264a:	3301      	adds	r3, #1
 800264c:	6263      	str	r3, [r4, #36]	; 0x24
 800264e:	8d23      	ldrh	r3, [r4, #40]	; 0x28
 8002650:	2b00      	cmp	r3, #0
 8002652:	d009      	beq.n	8002668 <I2C_ITListenCplt+0x44>
 8002654:	3b01      	subs	r3, #1
 8002656:	8523      	strh	r3, [r4, #40]	; 0x28
 8002658:	8d63      	ldrh	r3, [r4, #42]	; 0x2a
 800265a:	3b01      	subs	r3, #1
 800265c:	b29b      	uxth	r3, r3
 800265e:	8563      	strh	r3, [r4, #42]	; 0x2a
 8002660:	2304      	movs	r3, #4
 8002662:	6c62      	ldr	r2, [r4, #68]	; 0x44
 8002664:	4313      	orrs	r3, r2
 8002666:	6463      	str	r3, [r4, #68]	; 0x44
 8002668:	2107      	movs	r1, #7
 800266a:	0020      	movs	r0, r4
 800266c:	f7ff fee2 	bl	8002434 <I2C_Disable_IRQ>
 8002670:	2210      	movs	r2, #16
 8002672:	6823      	ldr	r3, [r4, #0]
 8002674:	0020      	movs	r0, r4
 8002676:	61da      	str	r2, [r3, #28]
 8002678:	0023      	movs	r3, r4
 800267a:	2200      	movs	r2, #0
 800267c:	3340      	adds	r3, #64	; 0x40
 800267e:	701a      	strb	r2, [r3, #0]
 8002680:	f7ff ffcf 	bl	8002622 <HAL_I2C_ListenCpltCallback>
 8002684:	bd10      	pop	{r4, pc}
 8002686:	46c0      	nop			; (mov r8, r8)
 8002688:	ffff0000 	.word	0xffff0000

0800268c <HAL_I2C_ErrorCallback>:
 800268c:	4770      	bx	lr

0800268e <HAL_I2C_AbortCpltCallback>:
 800268e:	4770      	bx	lr

08002690 <I2C_ITError>:
 8002690:	b570      	push	{r4, r5, r6, lr}
 8002692:	0002      	movs	r2, r0
 8002694:	0005      	movs	r5, r0
 8002696:	2600      	movs	r6, #0
 8002698:	3242      	adds	r2, #66	; 0x42
 800269a:	3541      	adds	r5, #65	; 0x41
 800269c:	782b      	ldrb	r3, [r5, #0]
 800269e:	7016      	strb	r6, [r2, #0]
 80026a0:	4a2f      	ldr	r2, [pc, #188]	; (8002760 <I2C_ITError+0xd0>)
 80026a2:	3b28      	subs	r3, #40	; 0x28
 80026a4:	62c2      	str	r2, [r0, #44]	; 0x2c
 80026a6:	8546      	strh	r6, [r0, #42]	; 0x2a
 80026a8:	6c42      	ldr	r2, [r0, #68]	; 0x44
 80026aa:	0004      	movs	r4, r0
 80026ac:	4311      	orrs	r1, r2
 80026ae:	6441      	str	r1, [r0, #68]	; 0x44
 80026b0:	2b02      	cmp	r3, #2
 80026b2:	d822      	bhi.n	80026fa <I2C_ITError+0x6a>
 80026b4:	2103      	movs	r1, #3
 80026b6:	f7ff febd 	bl	8002434 <I2C_Disable_IRQ>
 80026ba:	2328      	movs	r3, #40	; 0x28
 80026bc:	702b      	strb	r3, [r5, #0]
 80026be:	4b29      	ldr	r3, [pc, #164]	; (8002764 <I2C_ITError+0xd4>)
 80026c0:	6326      	str	r6, [r4, #48]	; 0x30
 80026c2:	2280      	movs	r2, #128	; 0x80
 80026c4:	6363      	str	r3, [r4, #52]	; 0x34
 80026c6:	6823      	ldr	r3, [r4, #0]
 80026c8:	01d2      	lsls	r2, r2, #7
 80026ca:	6819      	ldr	r1, [r3, #0]
 80026cc:	4011      	ands	r1, r2
 80026ce:	681a      	ldr	r2, [r3, #0]
 80026d0:	d01e      	beq.n	8002710 <I2C_ITError+0x80>
 80026d2:	4925      	ldr	r1, [pc, #148]	; (8002768 <I2C_ITError+0xd8>)
 80026d4:	6ba0      	ldr	r0, [r4, #56]	; 0x38
 80026d6:	400a      	ands	r2, r1
 80026d8:	601a      	str	r2, [r3, #0]
 80026da:	2800      	cmp	r0, #0
 80026dc:	d00c      	beq.n	80026f8 <I2C_ITError+0x68>
 80026de:	4b23      	ldr	r3, [pc, #140]	; (800276c <I2C_ITError+0xdc>)
 80026e0:	2200      	movs	r2, #0
 80026e2:	6343      	str	r3, [r0, #52]	; 0x34
 80026e4:	0023      	movs	r3, r4
 80026e6:	3340      	adds	r3, #64	; 0x40
 80026e8:	701a      	strb	r2, [r3, #0]
 80026ea:	f7ff fd73 	bl	80021d4 <HAL_DMA_Abort_IT>
 80026ee:	2800      	cmp	r0, #0
 80026f0:	d002      	beq.n	80026f8 <I2C_ITError+0x68>
 80026f2:	6ba0      	ldr	r0, [r4, #56]	; 0x38
 80026f4:	6b43      	ldr	r3, [r0, #52]	; 0x34
 80026f6:	4798      	blx	r3
 80026f8:	bd70      	pop	{r4, r5, r6, pc}
 80026fa:	2107      	movs	r1, #7
 80026fc:	f7ff fe9a 	bl	8002434 <I2C_Disable_IRQ>
 8002700:	782b      	ldrb	r3, [r5, #0]
 8002702:	2b60      	cmp	r3, #96	; 0x60
 8002704:	d001      	beq.n	800270a <I2C_ITError+0x7a>
 8002706:	2320      	movs	r3, #32
 8002708:	702b      	strb	r3, [r5, #0]
 800270a:	2300      	movs	r3, #0
 800270c:	6323      	str	r3, [r4, #48]	; 0x30
 800270e:	e7d8      	b.n	80026c2 <I2C_ITError+0x32>
 8002710:	2080      	movs	r0, #128	; 0x80
 8002712:	0200      	lsls	r0, r0, #8
 8002714:	4002      	ands	r2, r0
 8002716:	d011      	beq.n	800273c <I2C_ITError+0xac>
 8002718:	681a      	ldr	r2, [r3, #0]
 800271a:	4815      	ldr	r0, [pc, #84]	; (8002770 <I2C_ITError+0xe0>)
 800271c:	4002      	ands	r2, r0
 800271e:	6be0      	ldr	r0, [r4, #60]	; 0x3c
 8002720:	601a      	str	r2, [r3, #0]
 8002722:	2800      	cmp	r0, #0
 8002724:	d0e8      	beq.n	80026f8 <I2C_ITError+0x68>
 8002726:	4b11      	ldr	r3, [pc, #68]	; (800276c <I2C_ITError+0xdc>)
 8002728:	6343      	str	r3, [r0, #52]	; 0x34
 800272a:	0023      	movs	r3, r4
 800272c:	3340      	adds	r3, #64	; 0x40
 800272e:	7019      	strb	r1, [r3, #0]
 8002730:	f7ff fd50 	bl	80021d4 <HAL_DMA_Abort_IT>
 8002734:	2800      	cmp	r0, #0
 8002736:	d0df      	beq.n	80026f8 <I2C_ITError+0x68>
 8002738:	6be0      	ldr	r0, [r4, #60]	; 0x3c
 800273a:	e7db      	b.n	80026f4 <I2C_ITError+0x64>
 800273c:	0023      	movs	r3, r4
 800273e:	7829      	ldrb	r1, [r5, #0]
 8002740:	3340      	adds	r3, #64	; 0x40
 8002742:	2960      	cmp	r1, #96	; 0x60
 8002744:	d106      	bne.n	8002754 <I2C_ITError+0xc4>
 8002746:	3940      	subs	r1, #64	; 0x40
 8002748:	7029      	strb	r1, [r5, #0]
 800274a:	0020      	movs	r0, r4
 800274c:	701a      	strb	r2, [r3, #0]
 800274e:	f7ff ff9e 	bl	800268e <HAL_I2C_AbortCpltCallback>
 8002752:	e7d1      	b.n	80026f8 <I2C_ITError+0x68>
 8002754:	701a      	strb	r2, [r3, #0]
 8002756:	0020      	movs	r0, r4
 8002758:	f7ff ff98 	bl	800268c <HAL_I2C_ErrorCallback>
 800275c:	e7cc      	b.n	80026f8 <I2C_ITError+0x68>
 800275e:	46c0      	nop			; (mov r8, r8)
 8002760:	ffff0000 	.word	0xffff0000
 8002764:	0800286d 	.word	0x0800286d
 8002768:	ffffbfff 	.word	0xffffbfff
 800276c:	080029ff 	.word	0x080029ff
 8002770:	ffff7fff 	.word	0xffff7fff

08002774 <I2C_ITSlaveCplt>:
 8002774:	2220      	movs	r2, #32
 8002776:	b5f8      	push	{r3, r4, r5, r6, r7, lr}
 8002778:	6803      	ldr	r3, [r0, #0]
 800277a:	0004      	movs	r4, r0
 800277c:	681d      	ldr	r5, [r3, #0]
 800277e:	000f      	movs	r7, r1
 8002780:	61da      	str	r2, [r3, #28]
 8002782:	2107      	movs	r1, #7
 8002784:	f7ff fe56 	bl	8002434 <I2C_Disable_IRQ>
 8002788:	2280      	movs	r2, #128	; 0x80
 800278a:	6823      	ldr	r3, [r4, #0]
 800278c:	0212      	lsls	r2, r2, #8
 800278e:	6859      	ldr	r1, [r3, #4]
 8002790:	0020      	movs	r0, r4
 8002792:	430a      	orrs	r2, r1
 8002794:	605a      	str	r2, [r3, #4]
 8002796:	685a      	ldr	r2, [r3, #4]
 8002798:	4932      	ldr	r1, [pc, #200]	; (8002864 <I2C_ITSlaveCplt+0xf0>)
 800279a:	400a      	ands	r2, r1
 800279c:	605a      	str	r2, [r3, #4]
 800279e:	f7ff fe3b 	bl	8002418 <I2C_Flush_TXDR>
 80027a2:	2301      	movs	r3, #1
 80027a4:	046a      	lsls	r2, r5, #17
 80027a6:	d538      	bpl.n	800281a <I2C_ITSlaveCplt+0xa6>
 80027a8:	6ba3      	ldr	r3, [r4, #56]	; 0x38
 80027aa:	2b00      	cmp	r3, #0
 80027ac:	d003      	beq.n	80027b6 <I2C_ITSlaveCplt+0x42>
 80027ae:	681b      	ldr	r3, [r3, #0]
 80027b0:	685b      	ldr	r3, [r3, #4]
 80027b2:	b29b      	uxth	r3, r3
 80027b4:	8563      	strh	r3, [r4, #42]	; 0x2a
 80027b6:	077b      	lsls	r3, r7, #29
 80027b8:	d511      	bpl.n	80027de <I2C_ITSlaveCplt+0x6a>
 80027ba:	2304      	movs	r3, #4
 80027bc:	439f      	bics	r7, r3
 80027be:	6823      	ldr	r3, [r4, #0]
 80027c0:	6a62      	ldr	r2, [r4, #36]	; 0x24
 80027c2:	6a5b      	ldr	r3, [r3, #36]	; 0x24
 80027c4:	7013      	strb	r3, [r2, #0]
 80027c6:	6a63      	ldr	r3, [r4, #36]	; 0x24
 80027c8:	3301      	adds	r3, #1
 80027ca:	6263      	str	r3, [r4, #36]	; 0x24
 80027cc:	8d23      	ldrh	r3, [r4, #40]	; 0x28
 80027ce:	2b00      	cmp	r3, #0
 80027d0:	d005      	beq.n	80027de <I2C_ITSlaveCplt+0x6a>
 80027d2:	3b01      	subs	r3, #1
 80027d4:	8523      	strh	r3, [r4, #40]	; 0x28
 80027d6:	8d63      	ldrh	r3, [r4, #42]	; 0x2a
 80027d8:	3b01      	subs	r3, #1
 80027da:	b29b      	uxth	r3, r3
 80027dc:	8563      	strh	r3, [r4, #42]	; 0x2a
 80027de:	8d63      	ldrh	r3, [r4, #42]	; 0x2a
 80027e0:	2b00      	cmp	r3, #0
 80027e2:	d003      	beq.n	80027ec <I2C_ITSlaveCplt+0x78>
 80027e4:	2304      	movs	r3, #4
 80027e6:	6c62      	ldr	r2, [r4, #68]	; 0x44
 80027e8:	4313      	orrs	r3, r2
 80027ea:	6463      	str	r3, [r4, #68]	; 0x44
 80027ec:	0022      	movs	r2, r4
 80027ee:	2300      	movs	r3, #0
 80027f0:	0025      	movs	r5, r4
 80027f2:	3242      	adds	r2, #66	; 0x42
 80027f4:	6323      	str	r3, [r4, #48]	; 0x30
 80027f6:	7013      	strb	r3, [r2, #0]
 80027f8:	6c66      	ldr	r6, [r4, #68]	; 0x44
 80027fa:	6363      	str	r3, [r4, #52]	; 0x34
 80027fc:	3541      	adds	r5, #65	; 0x41
 80027fe:	429e      	cmp	r6, r3
 8002800:	d010      	beq.n	8002824 <I2C_ITSlaveCplt+0xb0>
 8002802:	6c61      	ldr	r1, [r4, #68]	; 0x44
 8002804:	0020      	movs	r0, r4
 8002806:	f7ff ff43 	bl	8002690 <I2C_ITError>
 800280a:	782b      	ldrb	r3, [r5, #0]
 800280c:	2b28      	cmp	r3, #40	; 0x28
 800280e:	d103      	bne.n	8002818 <I2C_ITSlaveCplt+0xa4>
 8002810:	0039      	movs	r1, r7
 8002812:	0020      	movs	r0, r4
 8002814:	f7ff ff06 	bl	8002624 <I2C_ITListenCplt>
 8002818:	bdf8      	pop	{r3, r4, r5, r6, r7, pc}
 800281a:	0bed      	lsrs	r5, r5, #15
 800281c:	421d      	tst	r5, r3
 800281e:	d0ca      	beq.n	80027b6 <I2C_ITSlaveCplt+0x42>
 8002820:	6be3      	ldr	r3, [r4, #60]	; 0x3c
 8002822:	e7c2      	b.n	80027aa <I2C_ITSlaveCplt+0x36>
 8002824:	0027      	movs	r7, r4
 8002826:	6ae3      	ldr	r3, [r4, #44]	; 0x2c
 8002828:	4a0f      	ldr	r2, [pc, #60]	; (8002868 <I2C_ITSlaveCplt+0xf4>)
 800282a:	3740      	adds	r7, #64	; 0x40
 800282c:	4293      	cmp	r3, r2
 800282e:	d00b      	beq.n	8002848 <I2C_ITSlaveCplt+0xd4>
 8002830:	0020      	movs	r0, r4
 8002832:	f7ff fe84 	bl	800253e <I2C_ITSlaveSeqCplt>
 8002836:	2320      	movs	r3, #32
 8002838:	4a0b      	ldr	r2, [pc, #44]	; (8002868 <I2C_ITSlaveCplt+0xf4>)
 800283a:	0020      	movs	r0, r4
 800283c:	62e2      	str	r2, [r4, #44]	; 0x2c
 800283e:	702b      	strb	r3, [r5, #0]
 8002840:	703e      	strb	r6, [r7, #0]
 8002842:	f7ff feee 	bl	8002622 <HAL_I2C_ListenCpltCallback>
 8002846:	e7e7      	b.n	8002818 <I2C_ITSlaveCplt+0xa4>
 8002848:	2320      	movs	r3, #32
 800284a:	782a      	ldrb	r2, [r5, #0]
 800284c:	0020      	movs	r0, r4
 800284e:	702b      	strb	r3, [r5, #0]
 8002850:	703e      	strb	r6, [r7, #0]
 8002852:	2a22      	cmp	r2, #34	; 0x22
 8002854:	d102      	bne.n	800285c <I2C_ITSlaveCplt+0xe8>
 8002856:	f7ff fe71 	bl	800253c <HAL_I2C_SlaveRxCpltCallback>
 800285a:	e7dd      	b.n	8002818 <I2C_ITSlaveCplt+0xa4>
 800285c:	f7ff fe6d 	bl	800253a <HAL_I2C_SlaveTxCpltCallback>
 8002860:	e7da      	b.n	8002818 <I2C_ITSlaveCplt+0xa4>
 8002862:	46c0      	nop			; (mov r8, r8)
 8002864:	fe00e800 	.word	0xfe00e800
 8002868:	ffff0000 	.word	0xffff0000

0800286c <I2C_Slave_ISR_IT>:
 800286c:	0003      	movs	r3, r0
 800286e:	b5f7      	push	{r0, r1, r2, r4, r5, r6, r7, lr}
 8002870:	3340      	adds	r3, #64	; 0x40
 8002872:	9301      	str	r3, [sp, #4]
 8002874:	781b      	ldrb	r3, [r3, #0]
 8002876:	0004      	movs	r4, r0
 8002878:	6ac7      	ldr	r7, [r0, #44]	; 0x2c
 800287a:	000e      	movs	r6, r1
 800287c:	0015      	movs	r5, r2
 800287e:	2002      	movs	r0, #2
 8002880:	2b01      	cmp	r3, #1
 8002882:	d024      	beq.n	80028ce <I2C_Slave_ISR_IT+0x62>
 8002884:	2301      	movs	r3, #1
 8002886:	9a01      	ldr	r2, [sp, #4]
 8002888:	7013      	strb	r3, [r2, #0]
 800288a:	094a      	lsrs	r2, r1, #5
 800288c:	421a      	tst	r2, r3
 800288e:	d005      	beq.n	800289c <I2C_Slave_ISR_IT+0x30>
 8002890:	096a      	lsrs	r2, r5, #5
 8002892:	421a      	tst	r2, r3
 8002894:	d002      	beq.n	800289c <I2C_Slave_ISR_IT+0x30>
 8002896:	0020      	movs	r0, r4
 8002898:	f7ff ff6c 	bl	8002774 <I2C_ITSlaveCplt>
 800289c:	2301      	movs	r3, #1
 800289e:	06f2      	lsls	r2, r6, #27
 80028a0:	d535      	bpl.n	800290e <I2C_Slave_ISR_IT+0xa2>
 80028a2:	092a      	lsrs	r2, r5, #4
 80028a4:	421a      	tst	r2, r3
 80028a6:	d032      	beq.n	800290e <I2C_Slave_ISR_IT+0xa2>
 80028a8:	8d63      	ldrh	r3, [r4, #42]	; 0x2a
 80028aa:	2b00      	cmp	r3, #0
 80028ac:	d120      	bne.n	80028f0 <I2C_Slave_ISR_IT+0x84>
 80028ae:	0023      	movs	r3, r4
 80028b0:	3341      	adds	r3, #65	; 0x41
 80028b2:	781a      	ldrb	r2, [r3, #0]
 80028b4:	2a28      	cmp	r2, #40	; 0x28
 80028b6:	d10b      	bne.n	80028d0 <I2C_Slave_ISR_IT+0x64>
 80028b8:	2280      	movs	r2, #128	; 0x80
 80028ba:	0492      	lsls	r2, r2, #18
 80028bc:	4297      	cmp	r7, r2
 80028be:	d107      	bne.n	80028d0 <I2C_Slave_ISR_IT+0x64>
 80028c0:	0031      	movs	r1, r6
 80028c2:	0020      	movs	r0, r4
 80028c4:	f7ff feae 	bl	8002624 <I2C_ITListenCplt>
 80028c8:	2000      	movs	r0, #0
 80028ca:	9b01      	ldr	r3, [sp, #4]
 80028cc:	7018      	strb	r0, [r3, #0]
 80028ce:	bdfe      	pop	{r1, r2, r3, r4, r5, r6, r7, pc}
 80028d0:	2210      	movs	r2, #16
 80028d2:	7819      	ldrb	r1, [r3, #0]
 80028d4:	6823      	ldr	r3, [r4, #0]
 80028d6:	61da      	str	r2, [r3, #28]
 80028d8:	2929      	cmp	r1, #41	; 0x29
 80028da:	d1f5      	bne.n	80028c8 <I2C_Slave_ISR_IT+0x5c>
 80028dc:	492d      	ldr	r1, [pc, #180]	; (8002994 <I2C_Slave_ISR_IT+0x128>)
 80028de:	428f      	cmp	r7, r1
 80028e0:	d0f2      	beq.n	80028c8 <I2C_Slave_ISR_IT+0x5c>
 80028e2:	0020      	movs	r0, r4
 80028e4:	f7ff fd98 	bl	8002418 <I2C_Flush_TXDR>
 80028e8:	0020      	movs	r0, r4
 80028ea:	f7ff fe28 	bl	800253e <I2C_ITSlaveSeqCplt>
 80028ee:	e7eb      	b.n	80028c8 <I2C_Slave_ISR_IT+0x5c>
 80028f0:	2210      	movs	r2, #16
 80028f2:	6823      	ldr	r3, [r4, #0]
 80028f4:	61da      	str	r2, [r3, #28]
 80028f6:	2304      	movs	r3, #4
 80028f8:	6c62      	ldr	r2, [r4, #68]	; 0x44
 80028fa:	4313      	orrs	r3, r2
 80028fc:	6463      	str	r3, [r4, #68]	; 0x44
 80028fe:	4b26      	ldr	r3, [pc, #152]	; (8002998 <I2C_Slave_ISR_IT+0x12c>)
 8002900:	421f      	tst	r7, r3
 8002902:	d1e1      	bne.n	80028c8 <I2C_Slave_ISR_IT+0x5c>
 8002904:	6c61      	ldr	r1, [r4, #68]	; 0x44
 8002906:	0020      	movs	r0, r4
 8002908:	f7ff fec2 	bl	8002690 <I2C_ITError>
 800290c:	e7dc      	b.n	80028c8 <I2C_Slave_ISR_IT+0x5c>
 800290e:	2301      	movs	r3, #1
 8002910:	0772      	lsls	r2, r6, #29
 8002912:	d51a      	bpl.n	800294a <I2C_Slave_ISR_IT+0xde>
 8002914:	08aa      	lsrs	r2, r5, #2
 8002916:	421a      	tst	r2, r3
 8002918:	d017      	beq.n	800294a <I2C_Slave_ISR_IT+0xde>
 800291a:	8d63      	ldrh	r3, [r4, #42]	; 0x2a
 800291c:	2b00      	cmp	r3, #0
 800291e:	d00d      	beq.n	800293c <I2C_Slave_ISR_IT+0xd0>
 8002920:	6823      	ldr	r3, [r4, #0]
 8002922:	6a62      	ldr	r2, [r4, #36]	; 0x24
 8002924:	6a5b      	ldr	r3, [r3, #36]	; 0x24
 8002926:	7013      	strb	r3, [r2, #0]
 8002928:	6a63      	ldr	r3, [r4, #36]	; 0x24
 800292a:	3301      	adds	r3, #1
 800292c:	6263      	str	r3, [r4, #36]	; 0x24
 800292e:	8d23      	ldrh	r3, [r4, #40]	; 0x28
 8002930:	3b01      	subs	r3, #1
 8002932:	8523      	strh	r3, [r4, #40]	; 0x28
 8002934:	8d63      	ldrh	r3, [r4, #42]	; 0x2a
 8002936:	3b01      	subs	r3, #1
 8002938:	b29b      	uxth	r3, r3
 800293a:	8563      	strh	r3, [r4, #42]	; 0x2a
 800293c:	8d63      	ldrh	r3, [r4, #42]	; 0x2a
 800293e:	2b00      	cmp	r3, #0
 8002940:	d1c2      	bne.n	80028c8 <I2C_Slave_ISR_IT+0x5c>
 8002942:	4b14      	ldr	r3, [pc, #80]	; (8002994 <I2C_Slave_ISR_IT+0x128>)
 8002944:	429f      	cmp	r7, r3
 8002946:	d0bf      	beq.n	80028c8 <I2C_Slave_ISR_IT+0x5c>
 8002948:	e7ce      	b.n	80028e8 <I2C_Slave_ISR_IT+0x7c>
 800294a:	2301      	movs	r3, #1
 800294c:	0732      	lsls	r2, r6, #28
 800294e:	d506      	bpl.n	800295e <I2C_Slave_ISR_IT+0xf2>
 8002950:	08ea      	lsrs	r2, r5, #3
 8002952:	421a      	tst	r2, r3
 8002954:	d003      	beq.n	800295e <I2C_Slave_ISR_IT+0xf2>
 8002956:	0020      	movs	r0, r4
 8002958:	f7ff fe1b 	bl	8002592 <I2C_ITAddrCplt.isra.9>
 800295c:	e7b4      	b.n	80028c8 <I2C_Slave_ISR_IT+0x5c>
 800295e:	2301      	movs	r3, #1
 8002960:	07b2      	lsls	r2, r6, #30
 8002962:	d5b1      	bpl.n	80028c8 <I2C_Slave_ISR_IT+0x5c>
 8002964:	40dd      	lsrs	r5, r3
 8002966:	421d      	tst	r5, r3
 8002968:	d0ae      	beq.n	80028c8 <I2C_Slave_ISR_IT+0x5c>
 800296a:	8d63      	ldrh	r3, [r4, #42]	; 0x2a
 800296c:	2b00      	cmp	r3, #0
 800296e:	d00d      	beq.n	800298c <I2C_Slave_ISR_IT+0x120>
 8002970:	6a63      	ldr	r3, [r4, #36]	; 0x24
 8002972:	6822      	ldr	r2, [r4, #0]
 8002974:	7819      	ldrb	r1, [r3, #0]
 8002976:	3301      	adds	r3, #1
 8002978:	6291      	str	r1, [r2, #40]	; 0x28
 800297a:	6263      	str	r3, [r4, #36]	; 0x24
 800297c:	8d63      	ldrh	r3, [r4, #42]	; 0x2a
 800297e:	3b01      	subs	r3, #1
 8002980:	b29b      	uxth	r3, r3
 8002982:	8563      	strh	r3, [r4, #42]	; 0x2a
 8002984:	8d23      	ldrh	r3, [r4, #40]	; 0x28
 8002986:	3b01      	subs	r3, #1
 8002988:	8523      	strh	r3, [r4, #40]	; 0x28
 800298a:	e79d      	b.n	80028c8 <I2C_Slave_ISR_IT+0x5c>
 800298c:	4b02      	ldr	r3, [pc, #8]	; (8002998 <I2C_Slave_ISR_IT+0x12c>)
 800298e:	421f      	tst	r7, r3
 8002990:	d0aa      	beq.n	80028e8 <I2C_Slave_ISR_IT+0x7c>
 8002992:	e799      	b.n	80028c8 <I2C_Slave_ISR_IT+0x5c>
 8002994:	ffff0000 	.word	0xffff0000
 8002998:	feffffff 	.word	0xfeffffff

0800299c <HAL_I2C_ER_IRQHandler>:
 800299c:	6803      	ldr	r3, [r0, #0]
 800299e:	b570      	push	{r4, r5, r6, lr}
 80029a0:	699c      	ldr	r4, [r3, #24]
 80029a2:	2101      	movs	r1, #1
 80029a4:	681a      	ldr	r2, [r3, #0]
 80029a6:	05e5      	lsls	r5, r4, #23
 80029a8:	d508      	bpl.n	80029bc <HAL_I2C_ER_IRQHandler+0x20>
 80029aa:	09d5      	lsrs	r5, r2, #7
 80029ac:	420d      	tst	r5, r1
 80029ae:	d005      	beq.n	80029bc <HAL_I2C_ER_IRQHandler+0x20>
 80029b0:	6c45      	ldr	r5, [r0, #68]	; 0x44
 80029b2:	4329      	orrs	r1, r5
 80029b4:	6441      	str	r1, [r0, #68]	; 0x44
 80029b6:	2180      	movs	r1, #128	; 0x80
 80029b8:	0049      	lsls	r1, r1, #1
 80029ba:	61d9      	str	r1, [r3, #28]
 80029bc:	2101      	movs	r1, #1
 80029be:	0565      	lsls	r5, r4, #21
 80029c0:	d509      	bpl.n	80029d6 <HAL_I2C_ER_IRQHandler+0x3a>
 80029c2:	09d5      	lsrs	r5, r2, #7
 80029c4:	420d      	tst	r5, r1
 80029c6:	d006      	beq.n	80029d6 <HAL_I2C_ER_IRQHandler+0x3a>
 80029c8:	6c45      	ldr	r5, [r0, #68]	; 0x44
 80029ca:	3107      	adds	r1, #7
 80029cc:	4329      	orrs	r1, r5
 80029ce:	6441      	str	r1, [r0, #68]	; 0x44
 80029d0:	2180      	movs	r1, #128	; 0x80
 80029d2:	00c9      	lsls	r1, r1, #3
 80029d4:	61d9      	str	r1, [r3, #28]
 80029d6:	2101      	movs	r1, #1
 80029d8:	05a4      	lsls	r4, r4, #22
 80029da:	d509      	bpl.n	80029f0 <HAL_I2C_ER_IRQHandler+0x54>
 80029dc:	09d2      	lsrs	r2, r2, #7
 80029de:	420a      	tst	r2, r1
 80029e0:	d006      	beq.n	80029f0 <HAL_I2C_ER_IRQHandler+0x54>
 80029e2:	2202      	movs	r2, #2
 80029e4:	6c41      	ldr	r1, [r0, #68]	; 0x44
 80029e6:	430a      	orrs	r2, r1
 80029e8:	6442      	str	r2, [r0, #68]	; 0x44
 80029ea:	2280      	movs	r2, #128	; 0x80
 80029ec:	0092      	lsls	r2, r2, #2
 80029ee:	61da      	str	r2, [r3, #28]
 80029f0:	230b      	movs	r3, #11
 80029f2:	6c41      	ldr	r1, [r0, #68]	; 0x44
 80029f4:	4219      	tst	r1, r3
 80029f6:	d001      	beq.n	80029fc <HAL_I2C_ER_IRQHandler+0x60>
 80029f8:	f7ff fe4a 	bl	8002690 <I2C_ITError>
 80029fc:	bd70      	pop	{r4, r5, r6, pc}

080029fe <I2C_DMAAbort>:
 80029fe:	2300      	movs	r3, #0
 8002a00:	6a40      	ldr	r0, [r0, #36]	; 0x24
 8002a02:	b510      	push	{r4, lr}
 8002a04:	6b82      	ldr	r2, [r0, #56]	; 0x38
 8002a06:	6353      	str	r3, [r2, #52]	; 0x34
 8002a08:	6bc2      	ldr	r2, [r0, #60]	; 0x3c
 8002a0a:	6353      	str	r3, [r2, #52]	; 0x34
 8002a0c:	0003      	movs	r3, r0
 8002a0e:	3341      	adds	r3, #65	; 0x41
 8002a10:	781a      	ldrb	r2, [r3, #0]
 8002a12:	2a60      	cmp	r2, #96	; 0x60
 8002a14:	d104      	bne.n	8002a20 <I2C_DMAAbort+0x22>
 8002a16:	3a40      	subs	r2, #64	; 0x40
 8002a18:	701a      	strb	r2, [r3, #0]
 8002a1a:	f7ff fe38 	bl	800268e <HAL_I2C_AbortCpltCallback>
 8002a1e:	bd10      	pop	{r4, pc}
 8002a20:	f7ff fe34 	bl	800268c <HAL_I2C_ErrorCallback>
 8002a24:	e7fb      	b.n	8002a1e <I2C_DMAAbort+0x20>
	...

08002a28 <HAL_I2CEx_ConfigAnalogFilter>:
 8002a28:	b5f0      	push	{r4, r5, r6, r7, lr}
 8002a2a:	0004      	movs	r4, r0
 8002a2c:	3441      	adds	r4, #65	; 0x41
 8002a2e:	7822      	ldrb	r2, [r4, #0]
 8002a30:	0003      	movs	r3, r0
 8002a32:	b2d2      	uxtb	r2, r2
 8002a34:	2002      	movs	r0, #2
 8002a36:	2a20      	cmp	r2, #32
 8002a38:	d118      	bne.n	8002a6c <HAL_I2CEx_ConfigAnalogFilter+0x44>
 8002a3a:	001d      	movs	r5, r3
 8002a3c:	3540      	adds	r5, #64	; 0x40
 8002a3e:	782e      	ldrb	r6, [r5, #0]
 8002a40:	2e01      	cmp	r6, #1
 8002a42:	d013      	beq.n	8002a6c <HAL_I2CEx_ConfigAnalogFilter+0x44>
 8002a44:	681b      	ldr	r3, [r3, #0]
 8002a46:	3022      	adds	r0, #34	; 0x22
 8002a48:	7020      	strb	r0, [r4, #0]
 8002a4a:	681e      	ldr	r6, [r3, #0]
 8002a4c:	3823      	subs	r0, #35	; 0x23
 8002a4e:	4386      	bics	r6, r0
 8002a50:	601e      	str	r6, [r3, #0]
 8002a52:	681e      	ldr	r6, [r3, #0]
 8002a54:	4f06      	ldr	r7, [pc, #24]	; (8002a70 <HAL_I2CEx_ConfigAnalogFilter+0x48>)
 8002a56:	403e      	ands	r6, r7
 8002a58:	601e      	str	r6, [r3, #0]
 8002a5a:	681e      	ldr	r6, [r3, #0]
 8002a5c:	4331      	orrs	r1, r6
 8002a5e:	6019      	str	r1, [r3, #0]
 8002a60:	6819      	ldr	r1, [r3, #0]
 8002a62:	4308      	orrs	r0, r1
 8002a64:	6018      	str	r0, [r3, #0]
 8002a66:	2000      	movs	r0, #0
 8002a68:	7022      	strb	r2, [r4, #0]
 8002a6a:	7028      	strb	r0, [r5, #0]
 8002a6c:	bdf0      	pop	{r4, r5, r6, r7, pc}
 8002a6e:	46c0      	nop			; (mov r8, r8)
 8002a70:	ffffefff 	.word	0xffffefff

08002a74 <HAL_I2CEx_ConfigDigitalFilter>:
 8002a74:	b5f0      	push	{r4, r5, r6, r7, lr}
 8002a76:	0005      	movs	r5, r0
 8002a78:	3541      	adds	r5, #65	; 0x41
 8002a7a:	782a      	ldrb	r2, [r5, #0]
 8002a7c:	0003      	movs	r3, r0
 8002a7e:	b2d2      	uxtb	r2, r2
 8002a80:	2002      	movs	r0, #2
 8002a82:	2a20      	cmp	r2, #32
 8002a84:	d117      	bne.n	8002ab6 <HAL_I2CEx_ConfigDigitalFilter+0x42>
 8002a86:	001c      	movs	r4, r3
 8002a88:	3440      	adds	r4, #64	; 0x40
 8002a8a:	7826      	ldrb	r6, [r4, #0]
 8002a8c:	2e01      	cmp	r6, #1
 8002a8e:	d012      	beq.n	8002ab6 <HAL_I2CEx_ConfigDigitalFilter+0x42>
 8002a90:	681b      	ldr	r3, [r3, #0]
 8002a92:	3022      	adds	r0, #34	; 0x22
 8002a94:	7028      	strb	r0, [r5, #0]
 8002a96:	681e      	ldr	r6, [r3, #0]
 8002a98:	3823      	subs	r0, #35	; 0x23
 8002a9a:	4386      	bics	r6, r0
 8002a9c:	601e      	str	r6, [r3, #0]
 8002a9e:	681e      	ldr	r6, [r3, #0]
 8002aa0:	4f05      	ldr	r7, [pc, #20]	; (8002ab8 <HAL_I2CEx_ConfigDigitalFilter+0x44>)
 8002aa2:	0209      	lsls	r1, r1, #8
 8002aa4:	403e      	ands	r6, r7
 8002aa6:	4331      	orrs	r1, r6
 8002aa8:	6019      	str	r1, [r3, #0]
 8002aaa:	6819      	ldr	r1, [r3, #0]
 8002aac:	4308      	orrs	r0, r1
 8002aae:	6018      	str	r0, [r3, #0]
 8002ab0:	2000      	movs	r0, #0
 8002ab2:	702a      	strb	r2, [r5, #0]
 8002ab4:	7020      	strb	r0, [r4, #0]
 8002ab6:	bdf0      	pop	{r4, r5, r6, r7, pc}
 8002ab8:	fffff0ff 	.word	0xfffff0ff

08002abc <HAL_PCD_Init>:
 8002abc:	b5f0      	push	{r4, r5, r6, r7, lr}
 8002abe:	0004      	movs	r4, r0
 8002ac0:	b087      	sub	sp, #28
 8002ac2:	2501      	movs	r5, #1
 8002ac4:	2800      	cmp	r0, #0
 8002ac6:	d031      	beq.n	8002b2c <HAL_PCD_Init+0x70>
 8002ac8:	4d2c      	ldr	r5, [pc, #176]	; (8002b7c <HAL_PCD_Init+0xc0>)
 8002aca:	5d43      	ldrb	r3, [r0, r5]
 8002acc:	b2db      	uxtb	r3, r3
 8002ace:	2b00      	cmp	r3, #0
 8002ad0:	d104      	bne.n	8002adc <HAL_PCD_Init+0x20>
 8002ad2:	228a      	movs	r2, #138	; 0x8a
 8002ad4:	0092      	lsls	r2, r2, #2
 8002ad6:	5483      	strb	r3, [r0, r2]
 8002ad8:	f002 fa46 	bl	8004f68 <HAL_PCD_MspInit>
 8002adc:	2303      	movs	r3, #3
 8002ade:	6820      	ldr	r0, [r4, #0]
 8002ae0:	5563      	strb	r3, [r4, r5]
 8002ae2:	f000 fee7 	bl	80038b4 <USB_DisableGlobalInt>
 8002ae6:	2300      	movs	r3, #0
 8002ae8:	2601      	movs	r6, #1
 8002aea:	0018      	movs	r0, r3
 8002aec:	6861      	ldr	r1, [r4, #4]
 8002aee:	428b      	cmp	r3, r1
 8002af0:	d31f      	bcc.n	8002b32 <HAL_PCD_Init+0x76>
 8002af2:	2300      	movs	r3, #0
 8002af4:	0018      	movs	r0, r3
 8002af6:	4299      	cmp	r1, r3
 8002af8:	d82c      	bhi.n	8002b54 <HAL_PCD_Init+0x98>
 8002afa:	0023      	movs	r3, r4
 8002afc:	466a      	mov	r2, sp
 8002afe:	3310      	adds	r3, #16
 8002b00:	cb43      	ldmia	r3!, {r0, r1, r6}
 8002b02:	c243      	stmia	r2!, {r0, r1, r6}
 8002b04:	cb03      	ldmia	r3!, {r0, r1}
 8002b06:	c203      	stmia	r2!, {r0, r1}
 8002b08:	68a2      	ldr	r2, [r4, #8]
 8002b0a:	68e3      	ldr	r3, [r4, #12]
 8002b0c:	6861      	ldr	r1, [r4, #4]
 8002b0e:	6820      	ldr	r0, [r4, #0]
 8002b10:	f000 feda 	bl	80038c8 <USB_DevInit>
 8002b14:	2300      	movs	r3, #0
 8002b16:	1d62      	adds	r2, r4, #5
 8002b18:	77d3      	strb	r3, [r2, #31]
 8002b1a:	2201      	movs	r2, #1
 8002b1c:	5562      	strb	r2, [r4, r5]
 8002b1e:	001d      	movs	r5, r3
 8002b20:	69e3      	ldr	r3, [r4, #28]
 8002b22:	4293      	cmp	r3, r2
 8002b24:	d102      	bne.n	8002b2c <HAL_PCD_Init+0x70>
 8002b26:	0020      	movs	r0, r4
 8002b28:	f000 fbda 	bl	80032e0 <HAL_PCDEx_ActivateLPM>
 8002b2c:	0028      	movs	r0, r5
 8002b2e:	b007      	add	sp, #28
 8002b30:	bdf0      	pop	{r4, r5, r6, r7, pc}
 8002b32:	015a      	lsls	r2, r3, #5
 8002b34:	18a2      	adds	r2, r4, r2
 8002b36:	0017      	movs	r7, r2
 8002b38:	3729      	adds	r7, #41	; 0x29
 8002b3a:	703e      	strb	r6, [r7, #0]
 8002b3c:	3f01      	subs	r7, #1
 8002b3e:	703b      	strb	r3, [r7, #0]
 8002b40:	86d3      	strh	r3, [r2, #54]	; 0x36
 8002b42:	70f8      	strb	r0, [r7, #3]
 8002b44:	6390      	str	r0, [r2, #56]	; 0x38
 8002b46:	63d0      	str	r0, [r2, #60]	; 0x3c
 8002b48:	1c9a      	adds	r2, r3, #2
 8002b4a:	0152      	lsls	r2, r2, #5
 8002b4c:	3301      	adds	r3, #1
 8002b4e:	5110      	str	r0, [r2, r4]
 8002b50:	b2db      	uxtb	r3, r3
 8002b52:	e7cc      	b.n	8002aee <HAL_PCD_Init+0x32>
 8002b54:	015a      	lsls	r2, r3, #5
 8002b56:	18a2      	adds	r2, r4, r2
 8002b58:	0016      	movs	r6, r2
 8002b5a:	362a      	adds	r6, #42	; 0x2a
 8002b5c:	36ff      	adds	r6, #255	; 0xff
 8002b5e:	7030      	strb	r0, [r6, #0]
 8002b60:	32fc      	adds	r2, #252	; 0xfc
 8002b62:	3e01      	subs	r6, #1
 8002b64:	7033      	strb	r3, [r6, #0]
 8002b66:	70f0      	strb	r0, [r6, #3]
 8002b68:	63d0      	str	r0, [r2, #60]	; 0x3c
 8002b6a:	6410      	str	r0, [r2, #64]	; 0x40
 8002b6c:	001a      	movs	r2, r3
 8002b6e:	320a      	adds	r2, #10
 8002b70:	0152      	lsls	r2, r2, #5
 8002b72:	3301      	adds	r3, #1
 8002b74:	5110      	str	r0, [r2, r4]
 8002b76:	b2db      	uxtb	r3, r3
 8002b78:	e7bd      	b.n	8002af6 <HAL_PCD_Init+0x3a>
 8002b7a:	46c0      	nop			; (mov r8, r8)
 8002b7c:	00000229 	.word	0x00000229

08002b80 <HAL_PCD_Start>:
 8002b80:	b570      	push	{r4, r5, r6, lr}
 8002b82:	258a      	movs	r5, #138	; 0x8a
 8002b84:	00ad      	lsls	r5, r5, #2
 8002b86:	5d43      	ldrb	r3, [r0, r5]
 8002b88:	0004      	movs	r4, r0
 8002b8a:	2002      	movs	r0, #2
 8002b8c:	2b01      	cmp	r3, #1
 8002b8e:	d009      	beq.n	8002ba4 <HAL_PCD_Start+0x24>
 8002b90:	2301      	movs	r3, #1
 8002b92:	6820      	ldr	r0, [r4, #0]
 8002b94:	5563      	strb	r3, [r4, r5]
 8002b96:	f001 f8f5 	bl	8003d84 <USB_DevConnect>
 8002b9a:	6820      	ldr	r0, [r4, #0]
 8002b9c:	f000 fe80 	bl	80038a0 <USB_EnableGlobalInt>
 8002ba0:	2000      	movs	r0, #0
 8002ba2:	5560      	strb	r0, [r4, r5]
 8002ba4:	bd70      	pop	{r4, r5, r6, pc}

08002ba6 <HAL_PCD_Stop>:
 8002ba6:	b570      	push	{r4, r5, r6, lr}
 8002ba8:	258a      	movs	r5, #138	; 0x8a
 8002baa:	00ad      	lsls	r5, r5, #2
 8002bac:	5d43      	ldrb	r3, [r0, r5]
 8002bae:	0004      	movs	r4, r0
 8002bb0:	2002      	movs	r0, #2
 8002bb2:	2b01      	cmp	r3, #1
 8002bb4:	d009      	beq.n	8002bca <HAL_PCD_Stop+0x24>
 8002bb6:	2301      	movs	r3, #1
 8002bb8:	6820      	ldr	r0, [r4, #0]
 8002bba:	5563      	strb	r3, [r4, r5]
 8002bbc:	f000 fe7a 	bl	80038b4 <USB_DisableGlobalInt>
 8002bc0:	6820      	ldr	r0, [r4, #0]
 8002bc2:	f001 f8cf 	bl	8003d64 <USB_StopDevice>
 8002bc6:	2000      	movs	r0, #0
 8002bc8:	5560      	strb	r0, [r4, r5]
 8002bca:	bd70      	pop	{r4, r5, r6, pc}

08002bcc <HAL_PCD_DeInit>:
 8002bcc:	b570      	push	{r4, r5, r6, lr}
 8002bce:	0004      	movs	r4, r0
 8002bd0:	2001      	movs	r0, #1
 8002bd2:	2c00      	cmp	r4, #0
 8002bd4:	d00a      	beq.n	8002bec <HAL_PCD_DeInit+0x20>
 8002bd6:	2303      	movs	r3, #3
 8002bd8:	4d05      	ldr	r5, [pc, #20]	; (8002bf0 <HAL_PCD_DeInit+0x24>)
 8002bda:	0020      	movs	r0, r4
 8002bdc:	5563      	strb	r3, [r4, r5]
 8002bde:	f7ff ffe2 	bl	8002ba6 <HAL_PCD_Stop>
 8002be2:	0020      	movs	r0, r4
 8002be4:	f002 f9dc 	bl	8004fa0 <HAL_PCD_MspDeInit>
 8002be8:	2000      	movs	r0, #0
 8002bea:	5560      	strb	r0, [r4, r5]
 8002bec:	bd70      	pop	{r4, r5, r6, pc}
 8002bee:	46c0      	nop			; (mov r8, r8)
 8002bf0:	00000229 	.word	0x00000229

08002bf4 <HAL_PCD_DevDisconnect>:
 8002bf4:	b570      	push	{r4, r5, r6, lr}
 8002bf6:	258a      	movs	r5, #138	; 0x8a
 8002bf8:	00ad      	lsls	r5, r5, #2
 8002bfa:	5d43      	ldrb	r3, [r0, r5]
 8002bfc:	0004      	movs	r4, r0
 8002bfe:	2002      	movs	r0, #2
 8002c00:	2b01      	cmp	r3, #1
 8002c02:	d006      	beq.n	8002c12 <HAL_PCD_DevDisconnect+0x1e>
 8002c04:	2301      	movs	r3, #1
 8002c06:	6820      	ldr	r0, [r4, #0]
 8002c08:	5563      	strb	r3, [r4, r5]
 8002c0a:	f001 f8c3 	bl	8003d94 <USB_DevDisconnect>
 8002c0e:	2000      	movs	r0, #0
 8002c10:	5560      	strb	r0, [r4, r5]
 8002c12:	bd70      	pop	{r4, r5, r6, pc}

08002c14 <HAL_PCD_SetAddress>:
 8002c14:	b570      	push	{r4, r5, r6, lr}
 8002c16:	258a      	movs	r5, #138	; 0x8a
 8002c18:	00ad      	lsls	r5, r5, #2
 8002c1a:	5d43      	ldrb	r3, [r0, r5]
 8002c1c:	0004      	movs	r4, r0
 8002c1e:	2002      	movs	r0, #2
 8002c20:	2b01      	cmp	r3, #1
 8002c22:	d008      	beq.n	8002c36 <HAL_PCD_SetAddress+0x22>
 8002c24:	2301      	movs	r3, #1
 8002c26:	5563      	strb	r3, [r4, r5]
 8002c28:	1d63      	adds	r3, r4, #5
 8002c2a:	77d9      	strb	r1, [r3, #31]
 8002c2c:	6820      	ldr	r0, [r4, #0]
 8002c2e:	f001 f8a2 	bl	8003d76 <USB_SetDevAddress>
 8002c32:	2000      	movs	r0, #0
 8002c34:	5560      	strb	r0, [r4, r5]
 8002c36:	bd70      	pop	{r4, r5, r6, pc}

08002c38 <HAL_PCD_EP_Open>:
 8002c38:	b570      	push	{r4, r5, r6, lr}
 8002c3a:	2607      	movs	r6, #7
 8002c3c:	0004      	movs	r4, r0
 8002c3e:	400e      	ands	r6, r1
 8002c40:	0170      	lsls	r0, r6, #5
 8002c42:	b249      	sxtb	r1, r1
 8002c44:	1825      	adds	r5, r4, r0
 8002c46:	2900      	cmp	r1, #0
 8002c48:	da1e      	bge.n	8002c88 <HAL_PCD_EP_Open+0x50>
 8002c4a:	0001      	movs	r1, r0
 8002c4c:	2001      	movs	r0, #1
 8002c4e:	3128      	adds	r1, #40	; 0x28
 8002c50:	1861      	adds	r1, r4, r1
 8002c52:	3529      	adds	r5, #41	; 0x29
 8002c54:	7028      	strb	r0, [r5, #0]
 8002c56:	610a      	str	r2, [r1, #16]
 8002c58:	784a      	ldrb	r2, [r1, #1]
 8002c5a:	700e      	strb	r6, [r1, #0]
 8002c5c:	70cb      	strb	r3, [r1, #3]
 8002c5e:	2a00      	cmp	r2, #0
 8002c60:	d000      	beq.n	8002c64 <HAL_PCD_EP_Open+0x2c>
 8002c62:	81ce      	strh	r6, [r1, #14]
 8002c64:	2b02      	cmp	r3, #2
 8002c66:	d101      	bne.n	8002c6c <HAL_PCD_EP_Open+0x34>
 8002c68:	2300      	movs	r3, #0
 8002c6a:	710b      	strb	r3, [r1, #4]
 8002c6c:	258a      	movs	r5, #138	; 0x8a
 8002c6e:	00ad      	lsls	r5, r5, #2
 8002c70:	5d63      	ldrb	r3, [r4, r5]
 8002c72:	2002      	movs	r0, #2
 8002c74:	2b01      	cmp	r3, #1
 8002c76:	d006      	beq.n	8002c86 <HAL_PCD_EP_Open+0x4e>
 8002c78:	2301      	movs	r3, #1
 8002c7a:	6820      	ldr	r0, [r4, #0]
 8002c7c:	5563      	strb	r3, [r4, r5]
 8002c7e:	f000 fe39 	bl	80038f4 <USB_ActivateEndpoint>
 8002c82:	2000      	movs	r0, #0
 8002c84:	5560      	strb	r0, [r4, r5]
 8002c86:	bd70      	pop	{r4, r5, r6, pc}
 8002c88:	0001      	movs	r1, r0
 8002c8a:	3129      	adds	r1, #41	; 0x29
 8002c8c:	31ff      	adds	r1, #255	; 0xff
 8002c8e:	352a      	adds	r5, #42	; 0x2a
 8002c90:	1861      	adds	r1, r4, r1
 8002c92:	35ff      	adds	r5, #255	; 0xff
 8002c94:	2000      	movs	r0, #0
 8002c96:	e7dd      	b.n	8002c54 <HAL_PCD_EP_Open+0x1c>

08002c98 <HAL_PCD_EP_Close>:
 8002c98:	b570      	push	{r4, r5, r6, lr}
 8002c9a:	0004      	movs	r4, r0
 8002c9c:	2007      	movs	r0, #7
 8002c9e:	4008      	ands	r0, r1
 8002ca0:	0143      	lsls	r3, r0, #5
 8002ca2:	b249      	sxtb	r1, r1
 8002ca4:	18e2      	adds	r2, r4, r3
 8002ca6:	2900      	cmp	r1, #0
 8002ca8:	da13      	bge.n	8002cd2 <HAL_PCD_EP_Close+0x3a>
 8002caa:	3328      	adds	r3, #40	; 0x28
 8002cac:	18e1      	adds	r1, r4, r3
 8002cae:	2301      	movs	r3, #1
 8002cb0:	3229      	adds	r2, #41	; 0x29
 8002cb2:	258a      	movs	r5, #138	; 0x8a
 8002cb4:	7013      	strb	r3, [r2, #0]
 8002cb6:	00ad      	lsls	r5, r5, #2
 8002cb8:	7008      	strb	r0, [r1, #0]
 8002cba:	5d63      	ldrb	r3, [r4, r5]
 8002cbc:	2002      	movs	r0, #2
 8002cbe:	2b01      	cmp	r3, #1
 8002cc0:	d006      	beq.n	8002cd0 <HAL_PCD_EP_Close+0x38>
 8002cc2:	2301      	movs	r3, #1
 8002cc4:	6820      	ldr	r0, [r4, #0]
 8002cc6:	5563      	strb	r3, [r4, r5]
 8002cc8:	f000 ff56 	bl	8003b78 <USB_DeactivateEndpoint>
 8002ccc:	2000      	movs	r0, #0
 8002cce:	5560      	strb	r0, [r4, r5]
 8002cd0:	bd70      	pop	{r4, r5, r6, pc}
 8002cd2:	3329      	adds	r3, #41	; 0x29
 8002cd4:	33ff      	adds	r3, #255	; 0xff
 8002cd6:	322a      	adds	r2, #42	; 0x2a
 8002cd8:	18e1      	adds	r1, r4, r3
 8002cda:	32ff      	adds	r2, #255	; 0xff
 8002cdc:	2300      	movs	r3, #0
 8002cde:	e7e8      	b.n	8002cb2 <HAL_PCD_EP_Close+0x1a>

08002ce0 <HAL_PCD_EP_Receive>:
 8002ce0:	b5f8      	push	{r3, r4, r5, r6, r7, lr}
 8002ce2:	2407      	movs	r4, #7
 8002ce4:	4021      	ands	r1, r4
 8002ce6:	014c      	lsls	r4, r1, #5
 8002ce8:	1906      	adds	r6, r0, r4
 8002cea:	0037      	movs	r7, r6
 8002cec:	37fc      	adds	r7, #252	; 0xfc
 8002cee:	647b      	str	r3, [r7, #68]	; 0x44
 8002cf0:	0033      	movs	r3, r6
 8002cf2:	2500      	movs	r5, #0
 8002cf4:	332a      	adds	r3, #42	; 0x2a
 8002cf6:	3629      	adds	r6, #41	; 0x29
 8002cf8:	33ff      	adds	r3, #255	; 0xff
 8002cfa:	36ff      	adds	r6, #255	; 0xff
 8002cfc:	64bd      	str	r5, [r7, #72]	; 0x48
 8002cfe:	643a      	str	r2, [r7, #64]	; 0x40
 8002d00:	701d      	strb	r5, [r3, #0]
 8002d02:	7031      	strb	r1, [r6, #0]
 8002d04:	0021      	movs	r1, r4
 8002d06:	3129      	adds	r1, #41	; 0x29
 8002d08:	31ff      	adds	r1, #255	; 0xff
 8002d0a:	1841      	adds	r1, r0, r1
 8002d0c:	6800      	ldr	r0, [r0, #0]
 8002d0e:	f001 f863 	bl	8003dd8 <USB_EPStartXfer>
 8002d12:	0028      	movs	r0, r5
 8002d14:	bdf8      	pop	{r3, r4, r5, r6, r7, pc}

08002d16 <HAL_PCD_EP_GetRxCount>:
 8002d16:	2307      	movs	r3, #7
 8002d18:	4019      	ands	r1, r3
 8002d1a:	310a      	adds	r1, #10
 8002d1c:	0149      	lsls	r1, r1, #5
 8002d1e:	1840      	adds	r0, r0, r1
 8002d20:	6840      	ldr	r0, [r0, #4]
 8002d22:	4770      	bx	lr

08002d24 <HAL_PCD_EP_Transmit>:
 8002d24:	b570      	push	{r4, r5, r6, lr}
 8002d26:	2407      	movs	r4, #7
 8002d28:	4021      	ands	r1, r4
 8002d2a:	014d      	lsls	r5, r1, #5
 8002d2c:	1944      	adds	r4, r0, r5
 8002d2e:	6423      	str	r3, [r4, #64]	; 0x40
 8002d30:	2600      	movs	r6, #0
 8002d32:	0023      	movs	r3, r4
 8002d34:	63e2      	str	r2, [r4, #60]	; 0x3c
 8002d36:	2201      	movs	r2, #1
 8002d38:	6466      	str	r6, [r4, #68]	; 0x44
 8002d3a:	3329      	adds	r3, #41	; 0x29
 8002d3c:	3428      	adds	r4, #40	; 0x28
 8002d3e:	701a      	strb	r2, [r3, #0]
 8002d40:	7021      	strb	r1, [r4, #0]
 8002d42:	0029      	movs	r1, r5
 8002d44:	3128      	adds	r1, #40	; 0x28
 8002d46:	1841      	adds	r1, r0, r1
 8002d48:	6800      	ldr	r0, [r0, #0]
 8002d4a:	f001 f845 	bl	8003dd8 <USB_EPStartXfer>
 8002d4e:	0030      	movs	r0, r6
 8002d50:	bd70      	pop	{r4, r5, r6, pc}
	...

08002d54 <HAL_PCD_IRQHandler>:
 8002d54:	b5f7      	push	{r0, r1, r2, r4, r5, r6, r7, lr}
 8002d56:	0004      	movs	r4, r0
 8002d58:	6800      	ldr	r0, [r0, #0]
 8002d5a:	f001 f822 	bl	8003da2 <USB_ReadInterrupts>
 8002d5e:	2780      	movs	r7, #128	; 0x80
 8002d60:	0403      	lsls	r3, r0, #16
 8002d62:	d500      	bpl.n	8002d66 <HAL_PCD_IRQHandler+0x12>
 8002d64:	e0d9      	b.n	8002f1a <HAL_PCD_IRQHandler+0x1c6>
 8002d66:	6820      	ldr	r0, [r4, #0]
 8002d68:	f001 f81b 	bl	8003da2 <USB_ReadInterrupts>
 8002d6c:	0543      	lsls	r3, r0, #21
 8002d6e:	d50c      	bpl.n	8002d8a <HAL_PCD_IRQHandler+0x36>
 8002d70:	6823      	ldr	r3, [r4, #0]
 8002d72:	49ac      	ldr	r1, [pc, #688]	; (8003024 <HAL_PCD_IRQHandler+0x2d0>)
 8002d74:	3306      	adds	r3, #6
 8002d76:	8fda      	ldrh	r2, [r3, #62]	; 0x3e
 8002d78:	0020      	movs	r0, r4
 8002d7a:	400a      	ands	r2, r1
 8002d7c:	87da      	strh	r2, [r3, #62]	; 0x3e
 8002d7e:	f002 f948 	bl	8005012 <HAL_PCD_ResetCallback>
 8002d82:	2100      	movs	r1, #0
 8002d84:	0020      	movs	r0, r4
 8002d86:	f7ff ff45 	bl	8002c14 <HAL_PCD_SetAddress>
 8002d8a:	6820      	ldr	r0, [r4, #0]
 8002d8c:	f001 f809 	bl	8003da2 <USB_ReadInterrupts>
 8002d90:	0443      	lsls	r3, r0, #17
 8002d92:	d505      	bpl.n	8002da0 <HAL_PCD_IRQHandler+0x4c>
 8002d94:	6823      	ldr	r3, [r4, #0]
 8002d96:	49a4      	ldr	r1, [pc, #656]	; (8003028 <HAL_PCD_IRQHandler+0x2d4>)
 8002d98:	3306      	adds	r3, #6
 8002d9a:	8fda      	ldrh	r2, [r3, #62]	; 0x3e
 8002d9c:	400a      	ands	r2, r1
 8002d9e:	87da      	strh	r2, [r3, #62]	; 0x3e
 8002da0:	6820      	ldr	r0, [r4, #0]
 8002da2:	f000 fffe 	bl	8003da2 <USB_ReadInterrupts>
 8002da6:	0483      	lsls	r3, r0, #18
 8002da8:	d505      	bpl.n	8002db6 <HAL_PCD_IRQHandler+0x62>
 8002daa:	6823      	ldr	r3, [r4, #0]
 8002dac:	499f      	ldr	r1, [pc, #636]	; (800302c <HAL_PCD_IRQHandler+0x2d8>)
 8002dae:	3306      	adds	r3, #6
 8002db0:	8fda      	ldrh	r2, [r3, #62]	; 0x3e
 8002db2:	400a      	ands	r2, r1
 8002db4:	87da      	strh	r2, [r3, #62]	; 0x3e
 8002db6:	6820      	ldr	r0, [r4, #0]
 8002db8:	f000 fff3 	bl	8003da2 <USB_ReadInterrupts>
 8002dbc:	04c3      	lsls	r3, r0, #19
 8002dbe:	d51c      	bpl.n	8002dfa <HAL_PCD_IRQHandler+0xa6>
 8002dc0:	2104      	movs	r1, #4
 8002dc2:	6823      	ldr	r3, [r4, #0]
 8002dc4:	3302      	adds	r3, #2
 8002dc6:	8fda      	ldrh	r2, [r3, #62]	; 0x3e
 8002dc8:	438a      	bics	r2, r1
 8002dca:	87da      	strh	r2, [r3, #62]	; 0x3e
 8002dcc:	8fda      	ldrh	r2, [r3, #62]	; 0x3e
 8002dce:	1849      	adds	r1, r1, r1
 8002dd0:	438a      	bics	r2, r1
 8002dd2:	87da      	strh	r2, [r3, #62]	; 0x3e
 8002dd4:	2398      	movs	r3, #152	; 0x98
 8002dd6:	009b      	lsls	r3, r3, #2
 8002dd8:	5ce2      	ldrb	r2, [r4, r3]
 8002dda:	2a01      	cmp	r2, #1
 8002ddc:	d104      	bne.n	8002de8 <HAL_PCD_IRQHandler+0x94>
 8002dde:	2100      	movs	r1, #0
 8002de0:	0020      	movs	r0, r4
 8002de2:	54e1      	strb	r1, [r4, r3]
 8002de4:	f000 fa90 	bl	8003308 <HAL_PCDEx_LPM_Callback>
 8002de8:	0020      	movs	r0, r4
 8002dea:	f002 f935 	bl	8005058 <HAL_PCD_ResumeCallback>
 8002dee:	6823      	ldr	r3, [r4, #0]
 8002df0:	498f      	ldr	r1, [pc, #572]	; (8003030 <HAL_PCD_IRQHandler+0x2dc>)
 8002df2:	3306      	adds	r3, #6
 8002df4:	8fda      	ldrh	r2, [r3, #62]	; 0x3e
 8002df6:	400a      	ands	r2, r1
 8002df8:	87da      	strh	r2, [r3, #62]	; 0x3e
 8002dfa:	6820      	ldr	r0, [r4, #0]
 8002dfc:	f000 ffd1 	bl	8003da2 <USB_ReadInterrupts>
 8002e00:	0503      	lsls	r3, r0, #20
 8002e02:	d515      	bpl.n	8002e30 <HAL_PCD_IRQHandler+0xdc>
 8002e04:	2208      	movs	r2, #8
 8002e06:	6820      	ldr	r0, [r4, #0]
 8002e08:	4d8a      	ldr	r5, [pc, #552]	; (8003034 <HAL_PCD_IRQHandler+0x2e0>)
 8002e0a:	1c83      	adds	r3, r0, #2
 8002e0c:	8fd9      	ldrh	r1, [r3, #62]	; 0x3e
 8002e0e:	430a      	orrs	r2, r1
 8002e10:	87da      	strh	r2, [r3, #62]	; 0x3e
 8002e12:	1d81      	adds	r1, r0, #6
 8002e14:	8fca      	ldrh	r2, [r1, #62]	; 0x3e
 8002e16:	402a      	ands	r2, r5
 8002e18:	87ca      	strh	r2, [r1, #62]	; 0x3e
 8002e1a:	2204      	movs	r2, #4
 8002e1c:	8fd9      	ldrh	r1, [r3, #62]	; 0x3e
 8002e1e:	430a      	orrs	r2, r1
 8002e20:	87da      	strh	r2, [r3, #62]	; 0x3e
 8002e22:	f000 ffbe 	bl	8003da2 <USB_ReadInterrupts>
 8002e26:	04c3      	lsls	r3, r0, #19
 8002e28:	d402      	bmi.n	8002e30 <HAL_PCD_IRQHandler+0xdc>
 8002e2a:	0020      	movs	r0, r4
 8002e2c:	f002 f902 	bl	8005034 <HAL_PCD_SuspendCallback>
 8002e30:	6820      	ldr	r0, [r4, #0]
 8002e32:	f000 ffb6 	bl	8003da2 <USB_ReadInterrupts>
 8002e36:	2580      	movs	r5, #128	; 0x80
 8002e38:	4228      	tst	r0, r5
 8002e3a:	d020      	beq.n	8002e7e <HAL_PCD_IRQHandler+0x12a>
 8002e3c:	2098      	movs	r0, #152	; 0x98
 8002e3e:	6823      	ldr	r3, [r4, #0]
 8002e40:	0080      	lsls	r0, r0, #2
 8002e42:	1d99      	adds	r1, r3, #6
 8002e44:	8fca      	ldrh	r2, [r1, #62]	; 0x3e
 8002e46:	43aa      	bics	r2, r5
 8002e48:	87ca      	strh	r2, [r1, #62]	; 0x3e
 8002e4a:	5c22      	ldrb	r2, [r4, r0]
 8002e4c:	2a00      	cmp	r2, #0
 8002e4e:	d000      	beq.n	8002e52 <HAL_PCD_IRQHandler+0xfe>
 8002e50:	e1bb      	b.n	80031ca <HAL_PCD_IRQHandler+0x476>
 8002e52:	2104      	movs	r1, #4
 8002e54:	1c9a      	adds	r2, r3, #2
 8002e56:	8fd5      	ldrh	r5, [r2, #62]	; 0x3e
 8002e58:	3354      	adds	r3, #84	; 0x54
 8002e5a:	4329      	orrs	r1, r5
 8002e5c:	87d1      	strh	r1, [r2, #62]	; 0x3e
 8002e5e:	2108      	movs	r1, #8
 8002e60:	8fd5      	ldrh	r5, [r2, #62]	; 0x3e
 8002e62:	4329      	orrs	r1, r5
 8002e64:	87d1      	strh	r1, [r2, #62]	; 0x3e
 8002e66:	2101      	movs	r1, #1
 8002e68:	223c      	movs	r2, #60	; 0x3c
 8002e6a:	5421      	strb	r1, [r4, r0]
 8002e6c:	881b      	ldrh	r3, [r3, #0]
 8002e6e:	0020      	movs	r0, r4
 8002e70:	089b      	lsrs	r3, r3, #2
 8002e72:	4013      	ands	r3, r2
 8002e74:	2299      	movs	r2, #153	; 0x99
 8002e76:	0092      	lsls	r2, r2, #2
 8002e78:	50a3      	str	r3, [r4, r2]
 8002e7a:	f000 fa45 	bl	8003308 <HAL_PCDEx_LPM_Callback>
 8002e7e:	6820      	ldr	r0, [r4, #0]
 8002e80:	f000 ff8f 	bl	8003da2 <USB_ReadInterrupts>
 8002e84:	0583      	lsls	r3, r0, #22
 8002e86:	d508      	bpl.n	8002e9a <HAL_PCD_IRQHandler+0x146>
 8002e88:	6823      	ldr	r3, [r4, #0]
 8002e8a:	496b      	ldr	r1, [pc, #428]	; (8003038 <HAL_PCD_IRQHandler+0x2e4>)
 8002e8c:	3306      	adds	r3, #6
 8002e8e:	8fda      	ldrh	r2, [r3, #62]	; 0x3e
 8002e90:	0020      	movs	r0, r4
 8002e92:	400a      	ands	r2, r1
 8002e94:	87da      	strh	r2, [r3, #62]	; 0x3e
 8002e96:	f002 f8b5 	bl	8005004 <HAL_PCD_SOFCallback>
 8002e9a:	6820      	ldr	r0, [r4, #0]
 8002e9c:	f000 ff81 	bl	8003da2 <USB_ReadInterrupts>
 8002ea0:	05c3      	lsls	r3, r0, #23
 8002ea2:	d505      	bpl.n	8002eb0 <HAL_PCD_IRQHandler+0x15c>
 8002ea4:	6823      	ldr	r3, [r4, #0]
 8002ea6:	4965      	ldr	r1, [pc, #404]	; (800303c <HAL_PCD_IRQHandler+0x2e8>)
 8002ea8:	3306      	adds	r3, #6
 8002eaa:	8fda      	ldrh	r2, [r3, #62]	; 0x3e
 8002eac:	400a      	ands	r2, r1
 8002eae:	87da      	strh	r2, [r3, #62]	; 0x3e
 8002eb0:	bdf7      	pop	{r0, r1, r2, r4, r5, r6, r7, pc}
 8002eb2:	260f      	movs	r6, #15
 8002eb4:	8fd1      	ldrh	r1, [r2, #62]	; 0x3e
 8002eb6:	b289      	uxth	r1, r1
 8002eb8:	400e      	ands	r6, r1
 8002eba:	d000      	beq.n	8002ebe <HAL_PCD_IRQHandler+0x16a>
 8002ebc:	e0d0      	b.n	8003060 <HAL_PCD_IRQHandler+0x30c>
 8002ebe:	2310      	movs	r3, #16
 8002ec0:	4019      	ands	r1, r3
 8002ec2:	8803      	ldrh	r3, [r0, #0]
 8002ec4:	2900      	cmp	r1, #0
 8002ec6:	d12f      	bne.n	8002f28 <HAL_PCD_IRQHandler+0x1d4>
 8002ec8:	4a5d      	ldr	r2, [pc, #372]	; (8003040 <HAL_PCD_IRQHandler+0x2ec>)
 8002eca:	4013      	ands	r3, r2
 8002ecc:	2280      	movs	r2, #128	; 0x80
 8002ece:	0212      	lsls	r2, r2, #8
 8002ed0:	4313      	orrs	r3, r2
 8002ed2:	8003      	strh	r3, [r0, #0]
 8002ed4:	0003      	movs	r3, r0
 8002ed6:	3350      	adds	r3, #80	; 0x50
 8002ed8:	881a      	ldrh	r2, [r3, #0]
 8002eda:	0023      	movs	r3, r4
 8002edc:	3328      	adds	r3, #40	; 0x28
 8002ede:	781b      	ldrb	r3, [r3, #0]
 8002ee0:	00db      	lsls	r3, r3, #3
 8002ee2:	18c0      	adds	r0, r0, r3
 8002ee4:	4b57      	ldr	r3, [pc, #348]	; (8003044 <HAL_PCD_IRQHandler+0x2f0>)
 8002ee6:	1880      	adds	r0, r0, r2
 8002ee8:	18c0      	adds	r0, r0, r3
 8002eea:	8803      	ldrh	r3, [r0, #0]
 8002eec:	6be2      	ldr	r2, [r4, #60]	; 0x3c
 8002eee:	059b      	lsls	r3, r3, #22
 8002ef0:	0d9b      	lsrs	r3, r3, #22
 8002ef2:	6463      	str	r3, [r4, #68]	; 0x44
 8002ef4:	18d3      	adds	r3, r2, r3
 8002ef6:	63e3      	str	r3, [r4, #60]	; 0x3c
 8002ef8:	0020      	movs	r0, r4
 8002efa:	f002 f879 	bl	8004ff0 <HAL_PCD_DataInStageCallback>
 8002efe:	1d63      	adds	r3, r4, #5
 8002f00:	7fda      	ldrb	r2, [r3, #31]
 8002f02:	2a00      	cmp	r2, #0
 8002f04:	d009      	beq.n	8002f1a <HAL_PCD_IRQHandler+0x1c6>
 8002f06:	6c20      	ldr	r0, [r4, #64]	; 0x40
 8002f08:	2800      	cmp	r0, #0
 8002f0a:	d106      	bne.n	8002f1a <HAL_PCD_IRQHandler+0x1c6>
 8002f0c:	2280      	movs	r2, #128	; 0x80
 8002f0e:	7fd9      	ldrb	r1, [r3, #31]
 8002f10:	4311      	orrs	r1, r2
 8002f12:	6822      	ldr	r2, [r4, #0]
 8002f14:	324c      	adds	r2, #76	; 0x4c
 8002f16:	8011      	strh	r1, [r2, #0]
 8002f18:	77d8      	strb	r0, [r3, #31]
 8002f1a:	6820      	ldr	r0, [r4, #0]
 8002f1c:	1d82      	adds	r2, r0, #6
 8002f1e:	8fd3      	ldrh	r3, [r2, #62]	; 0x3e
 8002f20:	b21b      	sxth	r3, r3
 8002f22:	2b00      	cmp	r3, #0
 8002f24:	dbc5      	blt.n	8002eb2 <HAL_PCD_IRQHandler+0x15e>
 8002f26:	e71e      	b.n	8002d66 <HAL_PCD_IRQHandler+0x12>
 8002f28:	2680      	movs	r6, #128	; 0x80
 8002f2a:	b29b      	uxth	r3, r3
 8002f2c:	0136      	lsls	r6, r6, #4
 8002f2e:	401e      	ands	r6, r3
 8002f30:	d021      	beq.n	8002f76 <HAL_PCD_IRQHandler+0x222>
 8002f32:	0003      	movs	r3, r0
 8002f34:	3350      	adds	r3, #80	; 0x50
 8002f36:	881a      	ldrh	r2, [r3, #0]
 8002f38:	2394      	movs	r3, #148	; 0x94
 8002f3a:	005b      	lsls	r3, r3, #1
 8002f3c:	5ce3      	ldrb	r3, [r4, r3]
 8002f3e:	218c      	movs	r1, #140	; 0x8c
 8002f40:	00db      	lsls	r3, r3, #3
 8002f42:	18c3      	adds	r3, r0, r3
 8002f44:	189b      	adds	r3, r3, r2
 8002f46:	4a40      	ldr	r2, [pc, #256]	; (8003048 <HAL_PCD_IRQHandler+0x2f4>)
 8002f48:	0089      	lsls	r1, r1, #2
 8002f4a:	189b      	adds	r3, r3, r2
 8002f4c:	0022      	movs	r2, r4
 8002f4e:	881b      	ldrh	r3, [r3, #0]
 8002f50:	3229      	adds	r2, #41	; 0x29
 8002f52:	059b      	lsls	r3, r3, #22
 8002f54:	0d9b      	lsrs	r3, r3, #22
 8002f56:	32ff      	adds	r2, #255	; 0xff
 8002f58:	61d3      	str	r3, [r2, #28]
 8002f5a:	1861      	adds	r1, r4, r1
 8002f5c:	88d2      	ldrh	r2, [r2, #6]
 8002f5e:	f001 f823 	bl	8003fa8 <USB_ReadPMA>
 8002f62:	6822      	ldr	r2, [r4, #0]
 8002f64:	4939      	ldr	r1, [pc, #228]	; (800304c <HAL_PCD_IRQHandler+0x2f8>)
 8002f66:	8813      	ldrh	r3, [r2, #0]
 8002f68:	0020      	movs	r0, r4
 8002f6a:	400b      	ands	r3, r1
 8002f6c:	433b      	orrs	r3, r7
 8002f6e:	8013      	strh	r3, [r2, #0]
 8002f70:	f002 f82a 	bl	8004fc8 <HAL_PCD_SetupStageCallback>
 8002f74:	e7d1      	b.n	8002f1a <HAL_PCD_IRQHandler+0x1c6>
 8002f76:	b21b      	sxth	r3, r3
 8002f78:	2b00      	cmp	r3, #0
 8002f7a:	dace      	bge.n	8002f1a <HAL_PCD_IRQHandler+0x1c6>
 8002f7c:	8803      	ldrh	r3, [r0, #0]
 8002f7e:	4a33      	ldr	r2, [pc, #204]	; (800304c <HAL_PCD_IRQHandler+0x2f8>)
 8002f80:	0025      	movs	r5, r4
 8002f82:	4013      	ands	r3, r2
 8002f84:	433b      	orrs	r3, r7
 8002f86:	8003      	strh	r3, [r0, #0]
 8002f88:	0003      	movs	r3, r0
 8002f8a:	3350      	adds	r3, #80	; 0x50
 8002f8c:	881a      	ldrh	r2, [r3, #0]
 8002f8e:	2394      	movs	r3, #148	; 0x94
 8002f90:	005b      	lsls	r3, r3, #1
 8002f92:	5ce3      	ldrb	r3, [r4, r3]
 8002f94:	3529      	adds	r5, #41	; 0x29
 8002f96:	00db      	lsls	r3, r3, #3
 8002f98:	18c3      	adds	r3, r0, r3
 8002f9a:	189b      	adds	r3, r3, r2
 8002f9c:	4a2a      	ldr	r2, [pc, #168]	; (8003048 <HAL_PCD_IRQHandler+0x2f4>)
 8002f9e:	35ff      	adds	r5, #255	; 0xff
 8002fa0:	189b      	adds	r3, r3, r2
 8002fa2:	881b      	ldrh	r3, [r3, #0]
 8002fa4:	059b      	lsls	r3, r3, #22
 8002fa6:	0d9b      	lsrs	r3, r3, #22
 8002fa8:	61eb      	str	r3, [r5, #28]
 8002faa:	d00d      	beq.n	8002fc8 <HAL_PCD_IRQHandler+0x274>
 8002fac:	6969      	ldr	r1, [r5, #20]
 8002fae:	2900      	cmp	r1, #0
 8002fb0:	d00a      	beq.n	8002fc8 <HAL_PCD_IRQHandler+0x274>
 8002fb2:	88ea      	ldrh	r2, [r5, #6]
 8002fb4:	f000 fff8 	bl	8003fa8 <USB_ReadPMA>
 8002fb8:	696b      	ldr	r3, [r5, #20]
 8002fba:	69ea      	ldr	r2, [r5, #28]
 8002fbc:	0031      	movs	r1, r6
 8002fbe:	189b      	adds	r3, r3, r2
 8002fc0:	616b      	str	r3, [r5, #20]
 8002fc2:	0020      	movs	r0, r4
 8002fc4:	f002 f809 	bl	8004fda <HAL_PCD_DataOutStageCallback>
 8002fc8:	6821      	ldr	r1, [r4, #0]
 8002fca:	4a1f      	ldr	r2, [pc, #124]	; (8003048 <HAL_PCD_IRQHandler+0x2f4>)
 8002fcc:	000b      	movs	r3, r1
 8002fce:	3350      	adds	r3, #80	; 0x50
 8002fd0:	881b      	ldrh	r3, [r3, #0]
 8002fd2:	188a      	adds	r2, r1, r2
 8002fd4:	18d2      	adds	r2, r2, r3
 8002fd6:	692b      	ldr	r3, [r5, #16]
 8002fd8:	2b00      	cmp	r3, #0
 8002fda:	d10f      	bne.n	8002ffc <HAL_PCD_IRQHandler+0x2a8>
 8002fdc:	8813      	ldrh	r3, [r2, #0]
 8002fde:	481c      	ldr	r0, [pc, #112]	; (8003050 <HAL_PCD_IRQHandler+0x2fc>)
 8002fe0:	4018      	ands	r0, r3
 8002fe2:	4b1c      	ldr	r3, [pc, #112]	; (8003054 <HAL_PCD_IRQHandler+0x300>)
 8002fe4:	4303      	orrs	r3, r0
 8002fe6:	8013      	strh	r3, [r2, #0]
 8002fe8:	880b      	ldrh	r3, [r1, #0]
 8002fea:	4a1b      	ldr	r2, [pc, #108]	; (8003058 <HAL_PCD_IRQHandler+0x304>)
 8002fec:	401a      	ands	r2, r3
 8002fee:	23c0      	movs	r3, #192	; 0xc0
 8002ff0:	019b      	lsls	r3, r3, #6
 8002ff2:	4053      	eors	r3, r2
 8002ff4:	4a19      	ldr	r2, [pc, #100]	; (800305c <HAL_PCD_IRQHandler+0x308>)
 8002ff6:	4313      	orrs	r3, r2
 8002ff8:	800b      	strh	r3, [r1, #0]
 8002ffa:	e78e      	b.n	8002f1a <HAL_PCD_IRQHandler+0x1c6>
 8002ffc:	2b3e      	cmp	r3, #62	; 0x3e
 8002ffe:	d806      	bhi.n	800300e <HAL_PCD_IRQHandler+0x2ba>
 8003000:	2501      	movs	r5, #1
 8003002:	0858      	lsrs	r0, r3, #1
 8003004:	402b      	ands	r3, r5
 8003006:	18c0      	adds	r0, r0, r3
 8003008:	0280      	lsls	r0, r0, #10
 800300a:	8010      	strh	r0, [r2, #0]
 800300c:	e7ec      	b.n	8002fe8 <HAL_PCD_IRQHandler+0x294>
 800300e:	251f      	movs	r5, #31
 8003010:	0958      	lsrs	r0, r3, #5
 8003012:	402b      	ands	r3, r5
 8003014:	425d      	negs	r5, r3
 8003016:	416b      	adcs	r3, r5
 8003018:	1ac0      	subs	r0, r0, r3
 800301a:	4b0e      	ldr	r3, [pc, #56]	; (8003054 <HAL_PCD_IRQHandler+0x300>)
 800301c:	0280      	lsls	r0, r0, #10
 800301e:	4318      	orrs	r0, r3
 8003020:	e7f3      	b.n	800300a <HAL_PCD_IRQHandler+0x2b6>
 8003022:	46c0      	nop			; (mov r8, r8)
 8003024:	fffffbff 	.word	0xfffffbff
 8003028:	ffffbfff 	.word	0xffffbfff
 800302c:	ffffdfff 	.word	0xffffdfff
 8003030:	ffffefff 	.word	0xffffefff
 8003034:	fffff7ff 	.word	0xfffff7ff
 8003038:	fffffdff 	.word	0xfffffdff
 800303c:	fffffeff 	.word	0xfffffeff
 8003040:	ffff8f0f 	.word	0xffff8f0f
 8003044:	00000402 	.word	0x00000402
 8003048:	00000406 	.word	0x00000406
 800304c:	00000f8f 	.word	0x00000f8f
 8003050:	ffff83ff 	.word	0xffff83ff
 8003054:	ffff8000 	.word	0xffff8000
 8003058:	ffffbf8f 	.word	0xffffbf8f
 800305c:	00008080 	.word	0x00008080
 8003060:	00b3      	lsls	r3, r6, #2
 8003062:	18c2      	adds	r2, r0, r3
 8003064:	9300      	str	r3, [sp, #0]
 8003066:	8813      	ldrh	r3, [r2, #0]
 8003068:	b29b      	uxth	r3, r3
 800306a:	9300      	str	r3, [sp, #0]
 800306c:	466b      	mov	r3, sp
 800306e:	2100      	movs	r1, #0
 8003070:	5e5b      	ldrsh	r3, [r3, r1]
 8003072:	2b00      	cmp	r3, #0
 8003074:	da3c      	bge.n	80030f0 <HAL_PCD_IRQHandler+0x39c>
 8003076:	8813      	ldrh	r3, [r2, #0]
 8003078:	4956      	ldr	r1, [pc, #344]	; (80031d4 <HAL_PCD_IRQHandler+0x480>)
 800307a:	0005      	movs	r5, r0
 800307c:	400b      	ands	r3, r1
 800307e:	433b      	orrs	r3, r7
 8003080:	8013      	strh	r3, [r2, #0]
 8003082:	0173      	lsls	r3, r6, #5
 8003084:	18e3      	adds	r3, r4, r3
 8003086:	001a      	movs	r2, r3
 8003088:	3235      	adds	r2, #53	; 0x35
 800308a:	32ff      	adds	r2, #255	; 0xff
 800308c:	7811      	ldrb	r1, [r2, #0]
 800308e:	3550      	adds	r5, #80	; 0x50
 8003090:	3a0c      	subs	r2, #12
 8003092:	2900      	cmp	r1, #0
 8003094:	d156      	bne.n	8003144 <HAL_PCD_IRQHandler+0x3f0>
 8003096:	7812      	ldrb	r2, [r2, #0]
 8003098:	8829      	ldrh	r1, [r5, #0]
 800309a:	00d2      	lsls	r2, r2, #3
 800309c:	1852      	adds	r2, r2, r1
 800309e:	494e      	ldr	r1, [pc, #312]	; (80031d8 <HAL_PCD_IRQHandler+0x484>)
 80030a0:	1812      	adds	r2, r2, r0
 80030a2:	1852      	adds	r2, r2, r1
 80030a4:	8815      	ldrh	r5, [r2, #0]
 80030a6:	05ad      	lsls	r5, r5, #22
 80030a8:	0dad      	lsrs	r5, r5, #22
 80030aa:	d008      	beq.n	80030be <HAL_PCD_IRQHandler+0x36a>
 80030ac:	001a      	movs	r2, r3
 80030ae:	33fc      	adds	r3, #252	; 0xfc
 80030b0:	0019      	movs	r1, r3
 80030b2:	32fe      	adds	r2, #254	; 0xfe
 80030b4:	8e12      	ldrh	r2, [r2, #48]	; 0x30
 80030b6:	002b      	movs	r3, r5
 80030b8:	6c09      	ldr	r1, [r1, #64]	; 0x40
 80030ba:	f000 ff75 	bl	8003fa8 <USB_ReadPMA>
 80030be:	0171      	lsls	r1, r6, #5
 80030c0:	1863      	adds	r3, r4, r1
 80030c2:	0018      	movs	r0, r3
 80030c4:	30fc      	adds	r0, #252	; 0xfc
 80030c6:	6c82      	ldr	r2, [r0, #72]	; 0x48
 80030c8:	9301      	str	r3, [sp, #4]
 80030ca:	1952      	adds	r2, r2, r5
 80030cc:	6482      	str	r2, [r0, #72]	; 0x48
 80030ce:	6c02      	ldr	r2, [r0, #64]	; 0x40
 80030d0:	6c43      	ldr	r3, [r0, #68]	; 0x44
 80030d2:	1952      	adds	r2, r2, r5
 80030d4:	6402      	str	r2, [r0, #64]	; 0x40
 80030d6:	469c      	mov	ip, r3
 80030d8:	2b00      	cmp	r3, #0
 80030da:	d002      	beq.n	80030e2 <HAL_PCD_IRQHandler+0x38e>
 80030dc:	6bc0      	ldr	r0, [r0, #60]	; 0x3c
 80030de:	4285      	cmp	r5, r0
 80030e0:	d267      	bcs.n	80031b2 <HAL_PCD_IRQHandler+0x45e>
 80030e2:	1861      	adds	r1, r4, r1
 80030e4:	3129      	adds	r1, #41	; 0x29
 80030e6:	31ff      	adds	r1, #255	; 0xff
 80030e8:	7809      	ldrb	r1, [r1, #0]
 80030ea:	0020      	movs	r0, r4
 80030ec:	f001 ff75 	bl	8004fda <HAL_PCD_DataOutStageCallback>
 80030f0:	9b00      	ldr	r3, [sp, #0]
 80030f2:	423b      	tst	r3, r7
 80030f4:	d100      	bne.n	80030f8 <HAL_PCD_IRQHandler+0x3a4>
 80030f6:	e710      	b.n	8002f1a <HAL_PCD_IRQHandler+0x1c6>
 80030f8:	6823      	ldr	r3, [r4, #0]
 80030fa:	00b2      	lsls	r2, r6, #2
 80030fc:	1899      	adds	r1, r3, r2
 80030fe:	880a      	ldrh	r2, [r1, #0]
 8003100:	4836      	ldr	r0, [pc, #216]	; (80031dc <HAL_PCD_IRQHandler+0x488>)
 8003102:	0176      	lsls	r6, r6, #5
 8003104:	4002      	ands	r2, r0
 8003106:	2080      	movs	r0, #128	; 0x80
 8003108:	0200      	lsls	r0, r0, #8
 800310a:	19a6      	adds	r6, r4, r6
 800310c:	4302      	orrs	r2, r0
 800310e:	800a      	strh	r2, [r1, #0]
 8003110:	0031      	movs	r1, r6
 8003112:	001a      	movs	r2, r3
 8003114:	3128      	adds	r1, #40	; 0x28
 8003116:	7808      	ldrb	r0, [r1, #0]
 8003118:	3250      	adds	r2, #80	; 0x50
 800311a:	8812      	ldrh	r2, [r2, #0]
 800311c:	00c0      	lsls	r0, r0, #3
 800311e:	181b      	adds	r3, r3, r0
 8003120:	189b      	adds	r3, r3, r2
 8003122:	4a2f      	ldr	r2, [pc, #188]	; (80031e0 <HAL_PCD_IRQHandler+0x48c>)
 8003124:	0020      	movs	r0, r4
 8003126:	189b      	adds	r3, r3, r2
 8003128:	881a      	ldrh	r2, [r3, #0]
 800312a:	6bf3      	ldr	r3, [r6, #60]	; 0x3c
 800312c:	0592      	lsls	r2, r2, #22
 800312e:	0d92      	lsrs	r2, r2, #22
 8003130:	6472      	str	r2, [r6, #68]	; 0x44
 8003132:	189a      	adds	r2, r3, r2
 8003134:	6c33      	ldr	r3, [r6, #64]	; 0x40
 8003136:	63f2      	str	r2, [r6, #60]	; 0x3c
 8003138:	7809      	ldrb	r1, [r1, #0]
 800313a:	2b00      	cmp	r3, #0
 800313c:	d142      	bne.n	80031c4 <HAL_PCD_IRQHandler+0x470>
 800313e:	f001 ff57 	bl	8004ff0 <HAL_PCD_DataInStageCallback>
 8003142:	e6ea      	b.n	8002f1a <HAL_PCD_IRQHandler+0x1c6>
 8003144:	7812      	ldrb	r2, [r2, #0]
 8003146:	0091      	lsls	r1, r2, #2
 8003148:	1841      	adds	r1, r0, r1
 800314a:	8809      	ldrh	r1, [r1, #0]
 800314c:	468c      	mov	ip, r1
 800314e:	00d1      	lsls	r1, r2, #3
 8003150:	4662      	mov	r2, ip
 8003152:	0452      	lsls	r2, r2, #17
 8003154:	d520      	bpl.n	8003198 <HAL_PCD_IRQHandler+0x444>
 8003156:	882a      	ldrh	r2, [r5, #0]
 8003158:	1882      	adds	r2, r0, r2
 800315a:	1852      	adds	r2, r2, r1
 800315c:	4920      	ldr	r1, [pc, #128]	; (80031e0 <HAL_PCD_IRQHandler+0x48c>)
 800315e:	1852      	adds	r2, r2, r1
 8003160:	8815      	ldrh	r5, [r2, #0]
 8003162:	05ad      	lsls	r5, r5, #22
 8003164:	0dad      	lsrs	r5, r5, #22
 8003166:	d008      	beq.n	800317a <HAL_PCD_IRQHandler+0x426>
 8003168:	001a      	movs	r2, r3
 800316a:	32fe      	adds	r2, #254	; 0xfe
 800316c:	8e52      	ldrh	r2, [r2, #50]	; 0x32
 800316e:	33fc      	adds	r3, #252	; 0xfc
 8003170:	0019      	movs	r1, r3
 8003172:	002b      	movs	r3, r5
 8003174:	6c09      	ldr	r1, [r1, #64]	; 0x40
 8003176:	f000 ff17 	bl	8003fa8 <USB_ReadPMA>
 800317a:	0173      	lsls	r3, r6, #5
 800317c:	18e3      	adds	r3, r4, r3
 800317e:	3329      	adds	r3, #41	; 0x29
 8003180:	33ff      	adds	r3, #255	; 0xff
 8003182:	781a      	ldrb	r2, [r3, #0]
 8003184:	6823      	ldr	r3, [r4, #0]
 8003186:	0092      	lsls	r2, r2, #2
 8003188:	189a      	adds	r2, r3, r2
 800318a:	8813      	ldrh	r3, [r2, #0]
 800318c:	4915      	ldr	r1, [pc, #84]	; (80031e4 <HAL_PCD_IRQHandler+0x490>)
 800318e:	400b      	ands	r3, r1
 8003190:	4915      	ldr	r1, [pc, #84]	; (80031e8 <HAL_PCD_IRQHandler+0x494>)
 8003192:	430b      	orrs	r3, r1
 8003194:	8013      	strh	r3, [r2, #0]
 8003196:	e792      	b.n	80030be <HAL_PCD_IRQHandler+0x36a>
 8003198:	882a      	ldrh	r2, [r5, #0]
 800319a:	1882      	adds	r2, r0, r2
 800319c:	1852      	adds	r2, r2, r1
 800319e:	490e      	ldr	r1, [pc, #56]	; (80031d8 <HAL_PCD_IRQHandler+0x484>)
 80031a0:	1852      	adds	r2, r2, r1
 80031a2:	8815      	ldrh	r5, [r2, #0]
 80031a4:	05ad      	lsls	r5, r5, #22
 80031a6:	0dad      	lsrs	r5, r5, #22
 80031a8:	d0e7      	beq.n	800317a <HAL_PCD_IRQHandler+0x426>
 80031aa:	001a      	movs	r2, r3
 80031ac:	32fe      	adds	r2, #254	; 0xfe
 80031ae:	8e92      	ldrh	r2, [r2, #52]	; 0x34
 80031b0:	e7dd      	b.n	800316e <HAL_PCD_IRQHandler+0x41a>
 80031b2:	9b01      	ldr	r3, [sp, #4]
 80031b4:	0020      	movs	r0, r4
 80031b6:	3329      	adds	r3, #41	; 0x29
 80031b8:	33ff      	adds	r3, #255	; 0xff
 80031ba:	7819      	ldrb	r1, [r3, #0]
 80031bc:	4663      	mov	r3, ip
 80031be:	f7ff fd8f 	bl	8002ce0 <HAL_PCD_EP_Receive>
 80031c2:	e795      	b.n	80030f0 <HAL_PCD_IRQHandler+0x39c>
 80031c4:	f7ff fdae 	bl	8002d24 <HAL_PCD_EP_Transmit>
 80031c8:	e6a7      	b.n	8002f1a <HAL_PCD_IRQHandler+0x1c6>
 80031ca:	0020      	movs	r0, r4
 80031cc:	f001 ff32 	bl	8005034 <HAL_PCD_SuspendCallback>
 80031d0:	e655      	b.n	8002e7e <HAL_PCD_IRQHandler+0x12a>
 80031d2:	46c0      	nop			; (mov r8, r8)
 80031d4:	00000f8f 	.word	0x00000f8f
 80031d8:	00000406 	.word	0x00000406
 80031dc:	ffff8f0f 	.word	0xffff8f0f
 80031e0:	00000402 	.word	0x00000402
 80031e4:	ffff8f8f 	.word	0xffff8f8f
 80031e8:	000080c0 	.word	0x000080c0

080031ec <HAL_PCD_EP_SetStall>:
 80031ec:	b570      	push	{r4, r5, r6, lr}
 80031ee:	0004      	movs	r4, r0
 80031f0:	2507      	movs	r5, #7
 80031f2:	6863      	ldr	r3, [r4, #4]
 80031f4:	400d      	ands	r5, r1
 80031f6:	2001      	movs	r0, #1
 80031f8:	429d      	cmp	r5, r3
 80031fa:	d820      	bhi.n	800323e <HAL_PCD_EP_SetStall+0x52>
 80031fc:	b24b      	sxtb	r3, r1
 80031fe:	2b00      	cmp	r3, #0
 8003200:	da1e      	bge.n	8003240 <HAL_PCD_EP_SetStall+0x54>
 8003202:	016b      	lsls	r3, r5, #5
 8003204:	0019      	movs	r1, r3
 8003206:	18e3      	adds	r3, r4, r3
 8003208:	3128      	adds	r1, #40	; 0x28
 800320a:	3329      	adds	r3, #41	; 0x29
 800320c:	1861      	adds	r1, r4, r1
 800320e:	7018      	strb	r0, [r3, #0]
 8003210:	2301      	movs	r3, #1
 8003212:	268a      	movs	r6, #138	; 0x8a
 8003214:	708b      	strb	r3, [r1, #2]
 8003216:	700d      	strb	r5, [r1, #0]
 8003218:	00b6      	lsls	r6, r6, #2
 800321a:	5da2      	ldrb	r2, [r4, r6]
 800321c:	2002      	movs	r0, #2
 800321e:	429a      	cmp	r2, r3
 8003220:	d00d      	beq.n	800323e <HAL_PCD_EP_SetStall+0x52>
 8003222:	55a3      	strb	r3, [r4, r6]
 8003224:	6820      	ldr	r0, [r4, #0]
 8003226:	f000 fd3d 	bl	8003ca4 <USB_EPSetStall>
 800322a:	2d00      	cmp	r5, #0
 800322c:	d105      	bne.n	800323a <HAL_PCD_EP_SetStall+0x4e>
 800322e:	238c      	movs	r3, #140	; 0x8c
 8003230:	009b      	lsls	r3, r3, #2
 8003232:	18e1      	adds	r1, r4, r3
 8003234:	6820      	ldr	r0, [r4, #0]
 8003236:	f000 fdb8 	bl	8003daa <USB_EP0_OutStart>
 800323a:	2000      	movs	r0, #0
 800323c:	55a0      	strb	r0, [r4, r6]
 800323e:	bd70      	pop	{r4, r5, r6, pc}
 8003240:	014b      	lsls	r3, r1, #5
 8003242:	0019      	movs	r1, r3
 8003244:	2200      	movs	r2, #0
 8003246:	18e3      	adds	r3, r4, r3
 8003248:	3129      	adds	r1, #41	; 0x29
 800324a:	332a      	adds	r3, #42	; 0x2a
 800324c:	31ff      	adds	r1, #255	; 0xff
 800324e:	33ff      	adds	r3, #255	; 0xff
 8003250:	1861      	adds	r1, r4, r1
 8003252:	701a      	strb	r2, [r3, #0]
 8003254:	e7dc      	b.n	8003210 <HAL_PCD_EP_SetStall+0x24>

08003256 <HAL_PCD_EP_ClrStall>:
 8003256:	b570      	push	{r4, r5, r6, lr}
 8003258:	0004      	movs	r4, r0
 800325a:	230f      	movs	r3, #15
 800325c:	6862      	ldr	r2, [r4, #4]
 800325e:	400b      	ands	r3, r1
 8003260:	2001      	movs	r0, #1
 8003262:	4293      	cmp	r3, r2
 8003264:	d81a      	bhi.n	800329c <HAL_PCD_EP_ClrStall+0x46>
 8003266:	2507      	movs	r5, #7
 8003268:	400d      	ands	r5, r1
 800326a:	016b      	lsls	r3, r5, #5
 800326c:	b249      	sxtb	r1, r1
 800326e:	18e2      	adds	r2, r4, r3
 8003270:	2900      	cmp	r1, #0
 8003272:	da14      	bge.n	800329e <HAL_PCD_EP_ClrStall+0x48>
 8003274:	3328      	adds	r3, #40	; 0x28
 8003276:	3229      	adds	r2, #41	; 0x29
 8003278:	18e1      	adds	r1, r4, r3
 800327a:	7010      	strb	r0, [r2, #0]
 800327c:	700d      	strb	r5, [r1, #0]
 800327e:	2600      	movs	r6, #0
 8003280:	258a      	movs	r5, #138	; 0x8a
 8003282:	708e      	strb	r6, [r1, #2]
 8003284:	00ad      	lsls	r5, r5, #2
 8003286:	5d63      	ldrb	r3, [r4, r5]
 8003288:	2002      	movs	r0, #2
 800328a:	2b01      	cmp	r3, #1
 800328c:	d006      	beq.n	800329c <HAL_PCD_EP_ClrStall+0x46>
 800328e:	2301      	movs	r3, #1
 8003290:	6820      	ldr	r0, [r4, #0]
 8003292:	5563      	strb	r3, [r4, r5]
 8003294:	f000 fd24 	bl	8003ce0 <USB_EPClearStall>
 8003298:	0030      	movs	r0, r6
 800329a:	5566      	strb	r6, [r4, r5]
 800329c:	bd70      	pop	{r4, r5, r6, pc}
 800329e:	3329      	adds	r3, #41	; 0x29
 80032a0:	33ff      	adds	r3, #255	; 0xff
 80032a2:	18e1      	adds	r1, r4, r3
 80032a4:	2300      	movs	r3, #0
 80032a6:	322a      	adds	r2, #42	; 0x2a
 80032a8:	32ff      	adds	r2, #255	; 0xff
 80032aa:	7013      	strb	r3, [r2, #0]
 80032ac:	e7e6      	b.n	800327c <HAL_PCD_EP_ClrStall+0x26>

080032ae <HAL_PCDEx_PMAConfig>:
 80032ae:	b510      	push	{r4, lr}
 80032b0:	060c      	lsls	r4, r1, #24
 80032b2:	d50b      	bpl.n	80032cc <HAL_PCDEx_PMAConfig+0x1e>
 80032b4:	2407      	movs	r4, #7
 80032b6:	4021      	ands	r1, r4
 80032b8:	0149      	lsls	r1, r1, #5
 80032ba:	3128      	adds	r1, #40	; 0x28
 80032bc:	1841      	adds	r1, r0, r1
 80032be:	b298      	uxth	r0, r3
 80032c0:	2a00      	cmp	r2, #0
 80032c2:	d107      	bne.n	80032d4 <HAL_PCDEx_PMAConfig+0x26>
 80032c4:	730a      	strb	r2, [r1, #12]
 80032c6:	80c8      	strh	r0, [r1, #6]
 80032c8:	2000      	movs	r0, #0
 80032ca:	bd10      	pop	{r4, pc}
 80032cc:	0149      	lsls	r1, r1, #5
 80032ce:	3129      	adds	r1, #41	; 0x29
 80032d0:	31ff      	adds	r1, #255	; 0xff
 80032d2:	e7f3      	b.n	80032bc <HAL_PCDEx_PMAConfig+0xe>
 80032d4:	2201      	movs	r2, #1
 80032d6:	0c1b      	lsrs	r3, r3, #16
 80032d8:	730a      	strb	r2, [r1, #12]
 80032da:	8108      	strh	r0, [r1, #8]
 80032dc:	814b      	strh	r3, [r1, #10]
 80032de:	e7f3      	b.n	80032c8 <HAL_PCDEx_PMAConfig+0x1a>

080032e0 <HAL_PCDEx_ActivateLPM>:
 80032e0:	6803      	ldr	r3, [r0, #0]
 80032e2:	0001      	movs	r1, r0
 80032e4:	209a      	movs	r0, #154	; 0x9a
 80032e6:	2201      	movs	r2, #1
 80032e8:	b510      	push	{r4, lr}
 80032ea:	0080      	lsls	r0, r0, #2
 80032ec:	2498      	movs	r4, #152	; 0x98
 80032ee:	500a      	str	r2, [r1, r0]
 80032f0:	2000      	movs	r0, #0
 80032f2:	00a4      	lsls	r4, r4, #2
 80032f4:	5508      	strb	r0, [r1, r4]
 80032f6:	3354      	adds	r3, #84	; 0x54
 80032f8:	8819      	ldrh	r1, [r3, #0]
 80032fa:	430a      	orrs	r2, r1
 80032fc:	801a      	strh	r2, [r3, #0]
 80032fe:	2202      	movs	r2, #2
 8003300:	8819      	ldrh	r1, [r3, #0]
 8003302:	430a      	orrs	r2, r1
 8003304:	801a      	strh	r2, [r3, #0]
 8003306:	bd10      	pop	{r4, pc}

08003308 <HAL_PCDEx_LPM_Callback>:
 8003308:	4770      	bx	lr

0800330a <HAL_TIM_Base_Start_IT>:
 800330a:	2201      	movs	r2, #1
 800330c:	6803      	ldr	r3, [r0, #0]
 800330e:	2007      	movs	r0, #7
 8003310:	68d9      	ldr	r1, [r3, #12]
 8003312:	4311      	orrs	r1, r2
 8003314:	60d9      	str	r1, [r3, #12]
 8003316:	6899      	ldr	r1, [r3, #8]
 8003318:	4001      	ands	r1, r0
 800331a:	2906      	cmp	r1, #6
 800331c:	d002      	beq.n	8003324 <HAL_TIM_Base_Start_IT+0x1a>
 800331e:	6819      	ldr	r1, [r3, #0]
 8003320:	430a      	orrs	r2, r1
 8003322:	601a      	str	r2, [r3, #0]
 8003324:	2000      	movs	r0, #0
 8003326:	4770      	bx	lr

08003328 <HAL_TIM_OC_DelayElapsedCallback>:
 8003328:	4770      	bx	lr

0800332a <HAL_TIM_IC_CaptureCallback>:
 800332a:	4770      	bx	lr

0800332c <HAL_TIM_PWM_PulseFinishedCallback>:
 800332c:	4770      	bx	lr

0800332e <HAL_TIM_TriggerCallback>:
 800332e:	4770      	bx	lr

08003330 <HAL_TIM_IRQHandler>:
 8003330:	2202      	movs	r2, #2
 8003332:	6803      	ldr	r3, [r0, #0]
 8003334:	b510      	push	{r4, lr}
 8003336:	6919      	ldr	r1, [r3, #16]
 8003338:	0004      	movs	r4, r0
 800333a:	4211      	tst	r1, r2
 800333c:	d00e      	beq.n	800335c <HAL_TIM_IRQHandler+0x2c>
 800333e:	68d9      	ldr	r1, [r3, #12]
 8003340:	4211      	tst	r1, r2
 8003342:	d00b      	beq.n	800335c <HAL_TIM_IRQHandler+0x2c>
 8003344:	3a05      	subs	r2, #5
 8003346:	611a      	str	r2, [r3, #16]
 8003348:	699b      	ldr	r3, [r3, #24]
 800334a:	3204      	adds	r2, #4
 800334c:	7702      	strb	r2, [r0, #28]
 800334e:	079b      	lsls	r3, r3, #30
 8003350:	d100      	bne.n	8003354 <HAL_TIM_IRQHandler+0x24>
 8003352:	e079      	b.n	8003448 <HAL_TIM_IRQHandler+0x118>
 8003354:	f7ff ffe9 	bl	800332a <HAL_TIM_IC_CaptureCallback>
 8003358:	2300      	movs	r3, #0
 800335a:	7723      	strb	r3, [r4, #28]
 800335c:	2204      	movs	r2, #4
 800335e:	6823      	ldr	r3, [r4, #0]
 8003360:	6919      	ldr	r1, [r3, #16]
 8003362:	4211      	tst	r1, r2
 8003364:	d010      	beq.n	8003388 <HAL_TIM_IRQHandler+0x58>
 8003366:	68d9      	ldr	r1, [r3, #12]
 8003368:	4211      	tst	r1, r2
 800336a:	d00d      	beq.n	8003388 <HAL_TIM_IRQHandler+0x58>
 800336c:	3a09      	subs	r2, #9
 800336e:	611a      	str	r2, [r3, #16]
 8003370:	3207      	adds	r2, #7
 8003372:	7722      	strb	r2, [r4, #28]
 8003374:	699a      	ldr	r2, [r3, #24]
 8003376:	23c0      	movs	r3, #192	; 0xc0
 8003378:	009b      	lsls	r3, r3, #2
 800337a:	0020      	movs	r0, r4
 800337c:	421a      	tst	r2, r3
 800337e:	d069      	beq.n	8003454 <HAL_TIM_IRQHandler+0x124>
 8003380:	f7ff ffd3 	bl	800332a <HAL_TIM_IC_CaptureCallback>
 8003384:	2300      	movs	r3, #0
 8003386:	7723      	strb	r3, [r4, #28]
 8003388:	2208      	movs	r2, #8
 800338a:	6823      	ldr	r3, [r4, #0]
 800338c:	6919      	ldr	r1, [r3, #16]
 800338e:	4211      	tst	r1, r2
 8003390:	d00e      	beq.n	80033b0 <HAL_TIM_IRQHandler+0x80>
 8003392:	68d9      	ldr	r1, [r3, #12]
 8003394:	4211      	tst	r1, r2
 8003396:	d00b      	beq.n	80033b0 <HAL_TIM_IRQHandler+0x80>
 8003398:	3a11      	subs	r2, #17
 800339a:	611a      	str	r2, [r3, #16]
 800339c:	69db      	ldr	r3, [r3, #28]
 800339e:	320d      	adds	r2, #13
 80033a0:	7722      	strb	r2, [r4, #28]
 80033a2:	0020      	movs	r0, r4
 80033a4:	079b      	lsls	r3, r3, #30
 80033a6:	d05b      	beq.n	8003460 <HAL_TIM_IRQHandler+0x130>
 80033a8:	f7ff ffbf 	bl	800332a <HAL_TIM_IC_CaptureCallback>
 80033ac:	2300      	movs	r3, #0
 80033ae:	7723      	strb	r3, [r4, #28]
 80033b0:	2210      	movs	r2, #16
 80033b2:	6823      	ldr	r3, [r4, #0]
 80033b4:	6919      	ldr	r1, [r3, #16]
 80033b6:	4211      	tst	r1, r2
 80033b8:	d010      	beq.n	80033dc <HAL_TIM_IRQHandler+0xac>
 80033ba:	68d9      	ldr	r1, [r3, #12]
 80033bc:	4211      	tst	r1, r2
 80033be:	d00d      	beq.n	80033dc <HAL_TIM_IRQHandler+0xac>
 80033c0:	3a21      	subs	r2, #33	; 0x21
 80033c2:	611a      	str	r2, [r3, #16]
 80033c4:	3219      	adds	r2, #25
 80033c6:	7722      	strb	r2, [r4, #28]
 80033c8:	69da      	ldr	r2, [r3, #28]
 80033ca:	23c0      	movs	r3, #192	; 0xc0
 80033cc:	009b      	lsls	r3, r3, #2
 80033ce:	0020      	movs	r0, r4
 80033d0:	421a      	tst	r2, r3
 80033d2:	d04b      	beq.n	800346c <HAL_TIM_IRQHandler+0x13c>
 80033d4:	f7ff ffa9 	bl	800332a <HAL_TIM_IC_CaptureCallback>
 80033d8:	2300      	movs	r3, #0
 80033da:	7723      	strb	r3, [r4, #28]
 80033dc:	2201      	movs	r2, #1
 80033de:	6823      	ldr	r3, [r4, #0]
 80033e0:	6919      	ldr	r1, [r3, #16]
 80033e2:	4211      	tst	r1, r2
 80033e4:	d007      	beq.n	80033f6 <HAL_TIM_IRQHandler+0xc6>
 80033e6:	68d9      	ldr	r1, [r3, #12]
 80033e8:	4211      	tst	r1, r2
 80033ea:	d004      	beq.n	80033f6 <HAL_TIM_IRQHandler+0xc6>
 80033ec:	3a03      	subs	r2, #3
 80033ee:	611a      	str	r2, [r3, #16]
 80033f0:	0020      	movs	r0, r4
 80033f2:	f7fe f97f 	bl	80016f4 <HAL_TIM_PeriodElapsedCallback>
 80033f6:	2280      	movs	r2, #128	; 0x80
 80033f8:	6823      	ldr	r3, [r4, #0]
 80033fa:	6919      	ldr	r1, [r3, #16]
 80033fc:	4211      	tst	r1, r2
 80033fe:	d008      	beq.n	8003412 <HAL_TIM_IRQHandler+0xe2>
 8003400:	68d9      	ldr	r1, [r3, #12]
 8003402:	4211      	tst	r1, r2
 8003404:	d005      	beq.n	8003412 <HAL_TIM_IRQHandler+0xe2>
 8003406:	3a02      	subs	r2, #2
 8003408:	3aff      	subs	r2, #255	; 0xff
 800340a:	611a      	str	r2, [r3, #16]
 800340c:	0020      	movs	r0, r4
 800340e:	f000 f968 	bl	80036e2 <HAL_TIMEx_BreakCallback>
 8003412:	2240      	movs	r2, #64	; 0x40
 8003414:	6823      	ldr	r3, [r4, #0]
 8003416:	6919      	ldr	r1, [r3, #16]
 8003418:	4211      	tst	r1, r2
 800341a:	d007      	beq.n	800342c <HAL_TIM_IRQHandler+0xfc>
 800341c:	68d9      	ldr	r1, [r3, #12]
 800341e:	4211      	tst	r1, r2
 8003420:	d004      	beq.n	800342c <HAL_TIM_IRQHandler+0xfc>
 8003422:	3a81      	subs	r2, #129	; 0x81
 8003424:	611a      	str	r2, [r3, #16]
 8003426:	0020      	movs	r0, r4
 8003428:	f7ff ff81 	bl	800332e <HAL_TIM_TriggerCallback>
 800342c:	2220      	movs	r2, #32
 800342e:	6823      	ldr	r3, [r4, #0]
 8003430:	6919      	ldr	r1, [r3, #16]
 8003432:	4211      	tst	r1, r2
 8003434:	d007      	beq.n	8003446 <HAL_TIM_IRQHandler+0x116>
 8003436:	68d9      	ldr	r1, [r3, #12]
 8003438:	4211      	tst	r1, r2
 800343a:	d004      	beq.n	8003446 <HAL_TIM_IRQHandler+0x116>
 800343c:	3a41      	subs	r2, #65	; 0x41
 800343e:	611a      	str	r2, [r3, #16]
 8003440:	0020      	movs	r0, r4
 8003442:	f000 f94d 	bl	80036e0 <HAL_TIMEx_CommutCallback>
 8003446:	bd10      	pop	{r4, pc}
 8003448:	f7ff ff6e 	bl	8003328 <HAL_TIM_OC_DelayElapsedCallback>
 800344c:	0020      	movs	r0, r4
 800344e:	f7ff ff6d 	bl	800332c <HAL_TIM_PWM_PulseFinishedCallback>
 8003452:	e781      	b.n	8003358 <HAL_TIM_IRQHandler+0x28>
 8003454:	f7ff ff68 	bl	8003328 <HAL_TIM_OC_DelayElapsedCallback>
 8003458:	0020      	movs	r0, r4
 800345a:	f7ff ff67 	bl	800332c <HAL_TIM_PWM_PulseFinishedCallback>
 800345e:	e791      	b.n	8003384 <HAL_TIM_IRQHandler+0x54>
 8003460:	f7ff ff62 	bl	8003328 <HAL_TIM_OC_DelayElapsedCallback>
 8003464:	0020      	movs	r0, r4
 8003466:	f7ff ff61 	bl	800332c <HAL_TIM_PWM_PulseFinishedCallback>
 800346a:	e79f      	b.n	80033ac <HAL_TIM_IRQHandler+0x7c>
 800346c:	f7ff ff5c 	bl	8003328 <HAL_TIM_OC_DelayElapsedCallback>
 8003470:	0020      	movs	r0, r4
 8003472:	f7ff ff5b 	bl	800332c <HAL_TIM_PWM_PulseFinishedCallback>
 8003476:	e7af      	b.n	80033d8 <HAL_TIM_IRQHandler+0xa8>

08003478 <TIM_Base_SetConfig>:
 8003478:	4a1d      	ldr	r2, [pc, #116]	; (80034f0 <TIM_Base_SetConfig+0x78>)
 800347a:	b510      	push	{r4, lr}
 800347c:	6803      	ldr	r3, [r0, #0]
 800347e:	4290      	cmp	r0, r2
 8003480:	d006      	beq.n	8003490 <TIM_Base_SetConfig+0x18>
 8003482:	2480      	movs	r4, #128	; 0x80
 8003484:	05e4      	lsls	r4, r4, #23
 8003486:	42a0      	cmp	r0, r4
 8003488:	d002      	beq.n	8003490 <TIM_Base_SetConfig+0x18>
 800348a:	4c1a      	ldr	r4, [pc, #104]	; (80034f4 <TIM_Base_SetConfig+0x7c>)
 800348c:	42a0      	cmp	r0, r4
 800348e:	d10c      	bne.n	80034aa <TIM_Base_SetConfig+0x32>
 8003490:	2470      	movs	r4, #112	; 0x70
 8003492:	43a3      	bics	r3, r4
 8003494:	684c      	ldr	r4, [r1, #4]
 8003496:	4323      	orrs	r3, r4
 8003498:	4290      	cmp	r0, r2
 800349a:	d00f      	beq.n	80034bc <TIM_Base_SetConfig+0x44>
 800349c:	2480      	movs	r4, #128	; 0x80
 800349e:	05e4      	lsls	r4, r4, #23
 80034a0:	42a0      	cmp	r0, r4
 80034a2:	d00b      	beq.n	80034bc <TIM_Base_SetConfig+0x44>
 80034a4:	4c13      	ldr	r4, [pc, #76]	; (80034f4 <TIM_Base_SetConfig+0x7c>)
 80034a6:	42a0      	cmp	r0, r4
 80034a8:	d008      	beq.n	80034bc <TIM_Base_SetConfig+0x44>
 80034aa:	4c13      	ldr	r4, [pc, #76]	; (80034f8 <TIM_Base_SetConfig+0x80>)
 80034ac:	42a0      	cmp	r0, r4
 80034ae:	d005      	beq.n	80034bc <TIM_Base_SetConfig+0x44>
 80034b0:	4c12      	ldr	r4, [pc, #72]	; (80034fc <TIM_Base_SetConfig+0x84>)
 80034b2:	42a0      	cmp	r0, r4
 80034b4:	d002      	beq.n	80034bc <TIM_Base_SetConfig+0x44>
 80034b6:	4c12      	ldr	r4, [pc, #72]	; (8003500 <TIM_Base_SetConfig+0x88>)
 80034b8:	42a0      	cmp	r0, r4
 80034ba:	d103      	bne.n	80034c4 <TIM_Base_SetConfig+0x4c>
 80034bc:	4c11      	ldr	r4, [pc, #68]	; (8003504 <TIM_Base_SetConfig+0x8c>)
 80034be:	4023      	ands	r3, r4
 80034c0:	68cc      	ldr	r4, [r1, #12]
 80034c2:	4323      	orrs	r3, r4
 80034c4:	2480      	movs	r4, #128	; 0x80
 80034c6:	43a3      	bics	r3, r4
 80034c8:	694c      	ldr	r4, [r1, #20]
 80034ca:	4323      	orrs	r3, r4
 80034cc:	6003      	str	r3, [r0, #0]
 80034ce:	688b      	ldr	r3, [r1, #8]
 80034d0:	62c3      	str	r3, [r0, #44]	; 0x2c
 80034d2:	680b      	ldr	r3, [r1, #0]
 80034d4:	6283      	str	r3, [r0, #40]	; 0x28
 80034d6:	4290      	cmp	r0, r2
 80034d8:	d005      	beq.n	80034e6 <TIM_Base_SetConfig+0x6e>
 80034da:	4b08      	ldr	r3, [pc, #32]	; (80034fc <TIM_Base_SetConfig+0x84>)
 80034dc:	4298      	cmp	r0, r3
 80034de:	d002      	beq.n	80034e6 <TIM_Base_SetConfig+0x6e>
 80034e0:	4b07      	ldr	r3, [pc, #28]	; (8003500 <TIM_Base_SetConfig+0x88>)
 80034e2:	4298      	cmp	r0, r3
 80034e4:	d101      	bne.n	80034ea <TIM_Base_SetConfig+0x72>
 80034e6:	690b      	ldr	r3, [r1, #16]
 80034e8:	6303      	str	r3, [r0, #48]	; 0x30
 80034ea:	2301      	movs	r3, #1
 80034ec:	6143      	str	r3, [r0, #20]
 80034ee:	bd10      	pop	{r4, pc}
 80034f0:	40012c00 	.word	0x40012c00
 80034f4:	40000400 	.word	0x40000400
 80034f8:	40002000 	.word	0x40002000
 80034fc:	40014400 	.word	0x40014400
 8003500:	40014800 	.word	0x40014800
 8003504:	fffffcff 	.word	0xfffffcff

08003508 <HAL_TIM_Base_Init>:
 8003508:	b570      	push	{r4, r5, r6, lr}
 800350a:	0004      	movs	r4, r0
 800350c:	2001      	movs	r0, #1
 800350e:	2c00      	cmp	r4, #0
 8003510:	d014      	beq.n	800353c <HAL_TIM_Base_Init+0x34>
 8003512:	0025      	movs	r5, r4
 8003514:	353d      	adds	r5, #61	; 0x3d
 8003516:	782b      	ldrb	r3, [r5, #0]
 8003518:	b2db      	uxtb	r3, r3
 800351a:	2b00      	cmp	r3, #0
 800351c:	d105      	bne.n	800352a <HAL_TIM_Base_Init+0x22>
 800351e:	0022      	movs	r2, r4
 8003520:	323c      	adds	r2, #60	; 0x3c
 8003522:	7013      	strb	r3, [r2, #0]
 8003524:	0020      	movs	r0, r4
 8003526:	f7fe fc99 	bl	8001e5c <HAL_TIM_Base_MspInit>
 800352a:	2302      	movs	r3, #2
 800352c:	6820      	ldr	r0, [r4, #0]
 800352e:	702b      	strb	r3, [r5, #0]
 8003530:	1d21      	adds	r1, r4, #4
 8003532:	f7ff ffa1 	bl	8003478 <TIM_Base_SetConfig>
 8003536:	2301      	movs	r3, #1
 8003538:	2000      	movs	r0, #0
 800353a:	702b      	strb	r3, [r5, #0]
 800353c:	bd70      	pop	{r4, r5, r6, pc}
	...

08003540 <TIM_ETR_SetConfig>:
 8003540:	b530      	push	{r4, r5, lr}
 8003542:	6884      	ldr	r4, [r0, #8]
 8003544:	4d03      	ldr	r5, [pc, #12]	; (8003554 <TIM_ETR_SetConfig+0x14>)
 8003546:	430a      	orrs	r2, r1
 8003548:	021b      	lsls	r3, r3, #8
 800354a:	402c      	ands	r4, r5
 800354c:	4313      	orrs	r3, r2
 800354e:	4323      	orrs	r3, r4
 8003550:	6083      	str	r3, [r0, #8]
 8003552:	bd30      	pop	{r4, r5, pc}
 8003554:	ffff00ff 	.word	0xffff00ff

08003558 <HAL_TIM_ConfigClockSource>:
 8003558:	b5f8      	push	{r3, r4, r5, r6, r7, lr}
 800355a:	0005      	movs	r5, r0
 800355c:	2302      	movs	r3, #2
 800355e:	353c      	adds	r5, #60	; 0x3c
 8003560:	782a      	ldrb	r2, [r5, #0]
 8003562:	0004      	movs	r4, r0
 8003564:	0018      	movs	r0, r3
 8003566:	2a01      	cmp	r2, #1
 8003568:	d016      	beq.n	8003598 <HAL_TIM_ConfigClockSource+0x40>
 800356a:	0026      	movs	r6, r4
 800356c:	2701      	movs	r7, #1
 800356e:	6820      	ldr	r0, [r4, #0]
 8003570:	363d      	adds	r6, #61	; 0x3d
 8003572:	702f      	strb	r7, [r5, #0]
 8003574:	7033      	strb	r3, [r6, #0]
 8003576:	6883      	ldr	r3, [r0, #8]
 8003578:	4a40      	ldr	r2, [pc, #256]	; (800367c <HAL_TIM_ConfigClockSource+0x124>)
 800357a:	4013      	ands	r3, r2
 800357c:	6083      	str	r3, [r0, #8]
 800357e:	680b      	ldr	r3, [r1, #0]
 8003580:	2b40      	cmp	r3, #64	; 0x40
 8003582:	d065      	beq.n	8003650 <HAL_TIM_ConfigClockSource+0xf8>
 8003584:	d814      	bhi.n	80035b0 <HAL_TIM_ConfigClockSource+0x58>
 8003586:	2b10      	cmp	r3, #16
 8003588:	d00b      	beq.n	80035a2 <HAL_TIM_ConfigClockSource+0x4a>
 800358a:	d806      	bhi.n	800359a <HAL_TIM_ConfigClockSource+0x42>
 800358c:	2b00      	cmp	r3, #0
 800358e:	d008      	beq.n	80035a2 <HAL_TIM_ConfigClockSource+0x4a>
 8003590:	2301      	movs	r3, #1
 8003592:	2000      	movs	r0, #0
 8003594:	7033      	strb	r3, [r6, #0]
 8003596:	7028      	strb	r0, [r5, #0]
 8003598:	bdf8      	pop	{r3, r4, r5, r6, r7, pc}
 800359a:	2b20      	cmp	r3, #32
 800359c:	d001      	beq.n	80035a2 <HAL_TIM_ConfigClockSource+0x4a>
 800359e:	2b30      	cmp	r3, #48	; 0x30
 80035a0:	d1f6      	bne.n	8003590 <HAL_TIM_ConfigClockSource+0x38>
 80035a2:	2270      	movs	r2, #112	; 0x70
 80035a4:	6881      	ldr	r1, [r0, #8]
 80035a6:	4391      	bics	r1, r2
 80035a8:	3a69      	subs	r2, #105	; 0x69
 80035aa:	4313      	orrs	r3, r2
 80035ac:	430b      	orrs	r3, r1
 80035ae:	e01a      	b.n	80035e6 <HAL_TIM_ConfigClockSource+0x8e>
 80035b0:	2b60      	cmp	r3, #96	; 0x60
 80035b2:	d035      	beq.n	8003620 <HAL_TIM_ConfigClockSource+0xc8>
 80035b4:	d819      	bhi.n	80035ea <HAL_TIM_ConfigClockSource+0x92>
 80035b6:	2b50      	cmp	r3, #80	; 0x50
 80035b8:	d1ea      	bne.n	8003590 <HAL_TIM_ConfigClockSource+0x38>
 80035ba:	684a      	ldr	r2, [r1, #4]
 80035bc:	68cb      	ldr	r3, [r1, #12]
 80035be:	6a01      	ldr	r1, [r0, #32]
 80035c0:	6a04      	ldr	r4, [r0, #32]
 80035c2:	011b      	lsls	r3, r3, #4
 80035c4:	43bc      	bics	r4, r7
 80035c6:	27f0      	movs	r7, #240	; 0xf0
 80035c8:	6204      	str	r4, [r0, #32]
 80035ca:	6984      	ldr	r4, [r0, #24]
 80035cc:	43bc      	bics	r4, r7
 80035ce:	4323      	orrs	r3, r4
 80035d0:	240a      	movs	r4, #10
 80035d2:	43a1      	bics	r1, r4
 80035d4:	430a      	orrs	r2, r1
 80035d6:	6183      	str	r3, [r0, #24]
 80035d8:	6202      	str	r2, [r0, #32]
 80035da:	2270      	movs	r2, #112	; 0x70
 80035dc:	6883      	ldr	r3, [r0, #8]
 80035de:	4393      	bics	r3, r2
 80035e0:	001a      	movs	r2, r3
 80035e2:	2357      	movs	r3, #87	; 0x57
 80035e4:	4313      	orrs	r3, r2
 80035e6:	6083      	str	r3, [r0, #8]
 80035e8:	e7d2      	b.n	8003590 <HAL_TIM_ConfigClockSource+0x38>
 80035ea:	2b70      	cmp	r3, #112	; 0x70
 80035ec:	d00d      	beq.n	800360a <HAL_TIM_ConfigClockSource+0xb2>
 80035ee:	2280      	movs	r2, #128	; 0x80
 80035f0:	0192      	lsls	r2, r2, #6
 80035f2:	4293      	cmp	r3, r2
 80035f4:	d1cc      	bne.n	8003590 <HAL_TIM_ConfigClockSource+0x38>
 80035f6:	68cb      	ldr	r3, [r1, #12]
 80035f8:	684a      	ldr	r2, [r1, #4]
 80035fa:	6889      	ldr	r1, [r1, #8]
 80035fc:	f7ff ffa0 	bl	8003540 <TIM_ETR_SetConfig>
 8003600:	2380      	movs	r3, #128	; 0x80
 8003602:	6822      	ldr	r2, [r4, #0]
 8003604:	01db      	lsls	r3, r3, #7
 8003606:	6891      	ldr	r1, [r2, #8]
 8003608:	e007      	b.n	800361a <HAL_TIM_ConfigClockSource+0xc2>
 800360a:	68cb      	ldr	r3, [r1, #12]
 800360c:	684a      	ldr	r2, [r1, #4]
 800360e:	6889      	ldr	r1, [r1, #8]
 8003610:	f7ff ff96 	bl	8003540 <TIM_ETR_SetConfig>
 8003614:	2377      	movs	r3, #119	; 0x77
 8003616:	6822      	ldr	r2, [r4, #0]
 8003618:	6891      	ldr	r1, [r2, #8]
 800361a:	430b      	orrs	r3, r1
 800361c:	6093      	str	r3, [r2, #8]
 800361e:	e7b7      	b.n	8003590 <HAL_TIM_ConfigClockSource+0x38>
 8003620:	2410      	movs	r4, #16
 8003622:	684b      	ldr	r3, [r1, #4]
 8003624:	68ca      	ldr	r2, [r1, #12]
 8003626:	6a01      	ldr	r1, [r0, #32]
 8003628:	4f15      	ldr	r7, [pc, #84]	; (8003680 <HAL_TIM_ConfigClockSource+0x128>)
 800362a:	43a1      	bics	r1, r4
 800362c:	6201      	str	r1, [r0, #32]
 800362e:	6984      	ldr	r4, [r0, #24]
 8003630:	0312      	lsls	r2, r2, #12
 8003632:	403c      	ands	r4, r7
 8003634:	4322      	orrs	r2, r4
 8003636:	24a0      	movs	r4, #160	; 0xa0
 8003638:	6a01      	ldr	r1, [r0, #32]
 800363a:	6182      	str	r2, [r0, #24]
 800363c:	2270      	movs	r2, #112	; 0x70
 800363e:	43a1      	bics	r1, r4
 8003640:	011b      	lsls	r3, r3, #4
 8003642:	430b      	orrs	r3, r1
 8003644:	6203      	str	r3, [r0, #32]
 8003646:	6883      	ldr	r3, [r0, #8]
 8003648:	4393      	bics	r3, r2
 800364a:	001a      	movs	r2, r3
 800364c:	2367      	movs	r3, #103	; 0x67
 800364e:	e7c9      	b.n	80035e4 <HAL_TIM_ConfigClockSource+0x8c>
 8003650:	684a      	ldr	r2, [r1, #4]
 8003652:	68cb      	ldr	r3, [r1, #12]
 8003654:	6a01      	ldr	r1, [r0, #32]
 8003656:	6a04      	ldr	r4, [r0, #32]
 8003658:	011b      	lsls	r3, r3, #4
 800365a:	43bc      	bics	r4, r7
 800365c:	27f0      	movs	r7, #240	; 0xf0
 800365e:	6204      	str	r4, [r0, #32]
 8003660:	6984      	ldr	r4, [r0, #24]
 8003662:	43bc      	bics	r4, r7
 8003664:	4323      	orrs	r3, r4
 8003666:	240a      	movs	r4, #10
 8003668:	43a1      	bics	r1, r4
 800366a:	430a      	orrs	r2, r1
 800366c:	6183      	str	r3, [r0, #24]
 800366e:	6202      	str	r2, [r0, #32]
 8003670:	2270      	movs	r2, #112	; 0x70
 8003672:	6883      	ldr	r3, [r0, #8]
 8003674:	4393      	bics	r3, r2
 8003676:	001a      	movs	r2, r3
 8003678:	2347      	movs	r3, #71	; 0x47
 800367a:	e7b3      	b.n	80035e4 <HAL_TIM_ConfigClockSource+0x8c>
 800367c:	ffff0088 	.word	0xffff0088
 8003680:	ffff0fff 	.word	0xffff0fff

08003684 <HAL_TIMEx_MasterConfigSynchronization>:
 8003684:	b570      	push	{r4, r5, r6, lr}
 8003686:	0004      	movs	r4, r0
 8003688:	2202      	movs	r2, #2
 800368a:	343c      	adds	r4, #60	; 0x3c
 800368c:	7825      	ldrb	r5, [r4, #0]
 800368e:	0003      	movs	r3, r0
 8003690:	0010      	movs	r0, r2
 8003692:	2d01      	cmp	r5, #1
 8003694:	d01f      	beq.n	80036d6 <HAL_TIMEx_MasterConfigSynchronization+0x52>
 8003696:	001d      	movs	r5, r3
 8003698:	2670      	movs	r6, #112	; 0x70
 800369a:	681b      	ldr	r3, [r3, #0]
 800369c:	3801      	subs	r0, #1
 800369e:	353d      	adds	r5, #61	; 0x3d
 80036a0:	7020      	strb	r0, [r4, #0]
 80036a2:	702a      	strb	r2, [r5, #0]
 80036a4:	6858      	ldr	r0, [r3, #4]
 80036a6:	689a      	ldr	r2, [r3, #8]
 80036a8:	43b0      	bics	r0, r6
 80036aa:	680e      	ldr	r6, [r1, #0]
 80036ac:	4330      	orrs	r0, r6
 80036ae:	6058      	str	r0, [r3, #4]
 80036b0:	4809      	ldr	r0, [pc, #36]	; (80036d8 <HAL_TIMEx_MasterConfigSynchronization+0x54>)
 80036b2:	4283      	cmp	r3, r0
 80036b4:	d006      	beq.n	80036c4 <HAL_TIMEx_MasterConfigSynchronization+0x40>
 80036b6:	2080      	movs	r0, #128	; 0x80
 80036b8:	05c0      	lsls	r0, r0, #23
 80036ba:	4283      	cmp	r3, r0
 80036bc:	d002      	beq.n	80036c4 <HAL_TIMEx_MasterConfigSynchronization+0x40>
 80036be:	4807      	ldr	r0, [pc, #28]	; (80036dc <HAL_TIMEx_MasterConfigSynchronization+0x58>)
 80036c0:	4283      	cmp	r3, r0
 80036c2:	d104      	bne.n	80036ce <HAL_TIMEx_MasterConfigSynchronization+0x4a>
 80036c4:	2080      	movs	r0, #128	; 0x80
 80036c6:	6849      	ldr	r1, [r1, #4]
 80036c8:	4382      	bics	r2, r0
 80036ca:	430a      	orrs	r2, r1
 80036cc:	609a      	str	r2, [r3, #8]
 80036ce:	2301      	movs	r3, #1
 80036d0:	2000      	movs	r0, #0
 80036d2:	702b      	strb	r3, [r5, #0]
 80036d4:	7020      	strb	r0, [r4, #0]
 80036d6:	bd70      	pop	{r4, r5, r6, pc}
 80036d8:	40012c00 	.word	0x40012c00
 80036dc:	40000400 	.word	0x40000400

080036e0 <HAL_TIMEx_CommutCallback>:
 80036e0:	4770      	bx	lr

080036e2 <HAL_TIMEx_BreakCallback>:
 80036e2:	4770      	bx	lr

080036e4 <LL_ADC_Init>:
 80036e4:	b530      	push	{r4, r5, lr}
 80036e6:	0002      	movs	r2, r0
 80036e8:	6884      	ldr	r4, [r0, #8]
 80036ea:	2001      	movs	r0, #1
 80036ec:	4004      	ands	r4, r0
 80036ee:	d110      	bne.n	8003712 <LL_ADC_Init+0x2e>
 80036f0:	688d      	ldr	r5, [r1, #8]
 80036f2:	684b      	ldr	r3, [r1, #4]
 80036f4:	68d0      	ldr	r0, [r2, #12]
 80036f6:	432b      	orrs	r3, r5
 80036f8:	68cd      	ldr	r5, [r1, #12]
 80036fa:	6809      	ldr	r1, [r1, #0]
 80036fc:	432b      	orrs	r3, r5
 80036fe:	4d05      	ldr	r5, [pc, #20]	; (8003714 <LL_ADC_Init+0x30>)
 8003700:	4028      	ands	r0, r5
 8003702:	4303      	orrs	r3, r0
 8003704:	0020      	movs	r0, r4
 8003706:	60d3      	str	r3, [r2, #12]
 8003708:	6913      	ldr	r3, [r2, #16]
 800370a:	009b      	lsls	r3, r3, #2
 800370c:	089b      	lsrs	r3, r3, #2
 800370e:	430b      	orrs	r3, r1
 8003710:	6113      	str	r3, [r2, #16]
 8003712:	bd30      	pop	{r4, r5, pc}
 8003714:	ffff3fc7 	.word	0xffff3fc7

08003718 <LL_ADC_REG_Init>:
 8003718:	b530      	push	{r4, r5, lr}
 800371a:	0002      	movs	r2, r0
 800371c:	6884      	ldr	r4, [r0, #8]
 800371e:	2001      	movs	r0, #1
 8003720:	4004      	ands	r4, r0
 8003722:	d10e      	bne.n	8003742 <LL_ADC_REG_Init+0x2a>
 8003724:	684d      	ldr	r5, [r1, #4]
 8003726:	680b      	ldr	r3, [r1, #0]
 8003728:	68d0      	ldr	r0, [r2, #12]
 800372a:	432b      	orrs	r3, r5
 800372c:	688d      	ldr	r5, [r1, #8]
 800372e:	432b      	orrs	r3, r5
 8003730:	68cd      	ldr	r5, [r1, #12]
 8003732:	6909      	ldr	r1, [r1, #16]
 8003734:	432b      	orrs	r3, r5
 8003736:	430b      	orrs	r3, r1
 8003738:	4902      	ldr	r1, [pc, #8]	; (8003744 <LL_ADC_REG_Init+0x2c>)
 800373a:	4001      	ands	r1, r0
 800373c:	0020      	movs	r0, r4
 800373e:	430b      	orrs	r3, r1
 8003740:	60d3      	str	r3, [r2, #12]
 8003742:	bd30      	pop	{r4, r5, pc}
 8003744:	fffec23c 	.word	0xfffec23c

08003748 <LL_EXTI_Init>:
 8003748:	b510      	push	{r4, lr}
 800374a:	0002      	movs	r2, r0
 800374c:	6803      	ldr	r3, [r0, #0]
 800374e:	7900      	ldrb	r0, [r0, #4]
 8003750:	2800      	cmp	r0, #0
 8003752:	d03b      	beq.n	80037cc <LL_EXTI_Init+0x84>
 8003754:	2000      	movs	r0, #0
 8003756:	4283      	cmp	r3, r0
 8003758:	d01f      	beq.n	800379a <LL_EXTI_Init+0x52>
 800375a:	7951      	ldrb	r1, [r2, #5]
 800375c:	2901      	cmp	r1, #1
 800375e:	d01d      	beq.n	800379c <LL_EXTI_Init+0x54>
 8003760:	4281      	cmp	r1, r0
 8003762:	d003      	beq.n	800376c <LL_EXTI_Init+0x24>
 8003764:	2902      	cmp	r1, #2
 8003766:	d021      	beq.n	80037ac <LL_EXTI_Init+0x64>
 8003768:	2001      	movs	r0, #1
 800376a:	e006      	b.n	800377a <LL_EXTI_Init+0x32>
 800376c:	491d      	ldr	r1, [pc, #116]	; (80037e4 <LL_EXTI_Init+0x9c>)
 800376e:	684c      	ldr	r4, [r1, #4]
 8003770:	439c      	bics	r4, r3
 8003772:	604c      	str	r4, [r1, #4]
 8003774:	680c      	ldr	r4, [r1, #0]
 8003776:	431c      	orrs	r4, r3
 8003778:	600c      	str	r4, [r1, #0]
 800377a:	7992      	ldrb	r2, [r2, #6]
 800377c:	2a00      	cmp	r2, #0
 800377e:	d00c      	beq.n	800379a <LL_EXTI_Init+0x52>
 8003780:	2a02      	cmp	r2, #2
 8003782:	d017      	beq.n	80037b4 <LL_EXTI_Init+0x6c>
 8003784:	2a03      	cmp	r2, #3
 8003786:	d01d      	beq.n	80037c4 <LL_EXTI_Init+0x7c>
 8003788:	2a01      	cmp	r2, #1
 800378a:	d128      	bne.n	80037de <LL_EXTI_Init+0x96>
 800378c:	4a15      	ldr	r2, [pc, #84]	; (80037e4 <LL_EXTI_Init+0x9c>)
 800378e:	68d1      	ldr	r1, [r2, #12]
 8003790:	4399      	bics	r1, r3
 8003792:	60d1      	str	r1, [r2, #12]
 8003794:	6891      	ldr	r1, [r2, #8]
 8003796:	430b      	orrs	r3, r1
 8003798:	6093      	str	r3, [r2, #8]
 800379a:	bd10      	pop	{r4, pc}
 800379c:	4911      	ldr	r1, [pc, #68]	; (80037e4 <LL_EXTI_Init+0x9c>)
 800379e:	680c      	ldr	r4, [r1, #0]
 80037a0:	439c      	bics	r4, r3
 80037a2:	600c      	str	r4, [r1, #0]
 80037a4:	684c      	ldr	r4, [r1, #4]
 80037a6:	431c      	orrs	r4, r3
 80037a8:	604c      	str	r4, [r1, #4]
 80037aa:	e7e6      	b.n	800377a <LL_EXTI_Init+0x32>
 80037ac:	490d      	ldr	r1, [pc, #52]	; (80037e4 <LL_EXTI_Init+0x9c>)
 80037ae:	680c      	ldr	r4, [r1, #0]
 80037b0:	431c      	orrs	r4, r3
 80037b2:	e7f6      	b.n	80037a2 <LL_EXTI_Init+0x5a>
 80037b4:	4a0b      	ldr	r2, [pc, #44]	; (80037e4 <LL_EXTI_Init+0x9c>)
 80037b6:	6891      	ldr	r1, [r2, #8]
 80037b8:	4399      	bics	r1, r3
 80037ba:	6091      	str	r1, [r2, #8]
 80037bc:	68d1      	ldr	r1, [r2, #12]
 80037be:	430b      	orrs	r3, r1
 80037c0:	60d3      	str	r3, [r2, #12]
 80037c2:	e7ea      	b.n	800379a <LL_EXTI_Init+0x52>
 80037c4:	4a07      	ldr	r2, [pc, #28]	; (80037e4 <LL_EXTI_Init+0x9c>)
 80037c6:	6891      	ldr	r1, [r2, #8]
 80037c8:	4319      	orrs	r1, r3
 80037ca:	e7f6      	b.n	80037ba <LL_EXTI_Init+0x72>
 80037cc:	43db      	mvns	r3, r3
 80037ce:	4a05      	ldr	r2, [pc, #20]	; (80037e4 <LL_EXTI_Init+0x9c>)
 80037d0:	6811      	ldr	r1, [r2, #0]
 80037d2:	4019      	ands	r1, r3
 80037d4:	6011      	str	r1, [r2, #0]
 80037d6:	6851      	ldr	r1, [r2, #4]
 80037d8:	400b      	ands	r3, r1
 80037da:	6053      	str	r3, [r2, #4]
 80037dc:	e7dd      	b.n	800379a <LL_EXTI_Init+0x52>
 80037de:	2001      	movs	r0, #1
 80037e0:	e7db      	b.n	800379a <LL_EXTI_Init+0x52>
 80037e2:	46c0      	nop			; (mov r8, r8)
 80037e4:	40010400 	.word	0x40010400

080037e8 <LL_GPIO_Init>:
 80037e8:	b5f0      	push	{r4, r5, r6, r7, lr}
 80037ea:	2700      	movs	r7, #0
 80037ec:	684b      	ldr	r3, [r1, #4]
 80037ee:	b085      	sub	sp, #20
 80037f0:	9301      	str	r3, [sp, #4]
 80037f2:	680e      	ldr	r6, [r1, #0]
 80037f4:	3b01      	subs	r3, #1
 80037f6:	9302      	str	r3, [sp, #8]
 80037f8:	0033      	movs	r3, r6
 80037fa:	40fb      	lsrs	r3, r7
 80037fc:	d10b      	bne.n	8003816 <LL_GPIO_Init+0x2e>
 80037fe:	9b02      	ldr	r3, [sp, #8]
 8003800:	2b01      	cmp	r3, #1
 8003802:	d805      	bhi.n	8003810 <LL_GPIO_Init+0x28>
 8003804:	6843      	ldr	r3, [r0, #4]
 8003806:	68ca      	ldr	r2, [r1, #12]
 8003808:	43b3      	bics	r3, r6
 800380a:	4356      	muls	r6, r2
 800380c:	431e      	orrs	r6, r3
 800380e:	6046      	str	r6, [r0, #4]
 8003810:	2000      	movs	r0, #0
 8003812:	b005      	add	sp, #20
 8003814:	bdf0      	pop	{r4, r5, r6, r7, pc}
 8003816:	2301      	movs	r3, #1
 8003818:	40bb      	lsls	r3, r7
 800381a:	4033      	ands	r3, r6
 800381c:	d033      	beq.n	8003886 <LL_GPIO_Init+0x9e>
 800381e:	001a      	movs	r2, r3
 8003820:	2503      	movs	r5, #3
 8003822:	435a      	muls	r2, r3
 8003824:	4355      	muls	r5, r2
 8003826:	43ed      	mvns	r5, r5
 8003828:	6804      	ldr	r4, [r0, #0]
 800382a:	9500      	str	r5, [sp, #0]
 800382c:	402c      	ands	r4, r5
 800382e:	9d01      	ldr	r5, [sp, #4]
 8003830:	4355      	muls	r5, r2
 8003832:	432c      	orrs	r4, r5
 8003834:	6004      	str	r4, [r0, #0]
 8003836:	9c02      	ldr	r4, [sp, #8]
 8003838:	2c01      	cmp	r4, #1
 800383a:	d80a      	bhi.n	8003852 <LL_GPIO_Init+0x6a>
 800383c:	6884      	ldr	r4, [r0, #8]
 800383e:	46a4      	mov	ip, r4
 8003840:	4665      	mov	r5, ip
 8003842:	688c      	ldr	r4, [r1, #8]
 8003844:	4354      	muls	r4, r2
 8003846:	9403      	str	r4, [sp, #12]
 8003848:	9c00      	ldr	r4, [sp, #0]
 800384a:	4025      	ands	r5, r4
 800384c:	9c03      	ldr	r4, [sp, #12]
 800384e:	432c      	orrs	r4, r5
 8003850:	6084      	str	r4, [r0, #8]
 8003852:	68c4      	ldr	r4, [r0, #12]
 8003854:	46a4      	mov	ip, r4
 8003856:	4665      	mov	r5, ip
 8003858:	690c      	ldr	r4, [r1, #16]
 800385a:	4354      	muls	r4, r2
 800385c:	9403      	str	r4, [sp, #12]
 800385e:	9c00      	ldr	r4, [sp, #0]
 8003860:	402c      	ands	r4, r5
 8003862:	0025      	movs	r5, r4
 8003864:	9c03      	ldr	r4, [sp, #12]
 8003866:	4325      	orrs	r5, r4
 8003868:	9c01      	ldr	r4, [sp, #4]
 800386a:	60c5      	str	r5, [r0, #12]
 800386c:	2c02      	cmp	r4, #2
 800386e:	d10a      	bne.n	8003886 <LL_GPIO_Init+0x9e>
 8003870:	694c      	ldr	r4, [r1, #20]
 8003872:	2bff      	cmp	r3, #255	; 0xff
 8003874:	d809      	bhi.n	800388a <LL_GPIO_Init+0xa2>
 8003876:	250f      	movs	r5, #15
 8003878:	4352      	muls	r2, r2
 800387a:	4355      	muls	r5, r2
 800387c:	4362      	muls	r2, r4
 800387e:	6a03      	ldr	r3, [r0, #32]
 8003880:	43ab      	bics	r3, r5
 8003882:	4313      	orrs	r3, r2
 8003884:	6203      	str	r3, [r0, #32]
 8003886:	3701      	adds	r7, #1
 8003888:	e7b6      	b.n	80037f8 <LL_GPIO_Init+0x10>
 800388a:	220f      	movs	r2, #15
 800388c:	0a1b      	lsrs	r3, r3, #8
 800388e:	435b      	muls	r3, r3
 8003890:	435b      	muls	r3, r3
 8003892:	435a      	muls	r2, r3
 8003894:	4363      	muls	r3, r4
 8003896:	6a45      	ldr	r5, [r0, #36]	; 0x24
 8003898:	4395      	bics	r5, r2
 800389a:	431d      	orrs	r5, r3
 800389c:	6245      	str	r5, [r0, #36]	; 0x24
 800389e:	e7f2      	b.n	8003886 <LL_GPIO_Init+0x9e>

080038a0 <USB_EnableGlobalInt>:
 80038a0:	3002      	adds	r0, #2
 80038a2:	8fc3      	ldrh	r3, [r0, #62]	; 0x3e
 80038a4:	4a02      	ldr	r2, [pc, #8]	; (80038b0 <USB_EnableGlobalInt+0x10>)
 80038a6:	4313      	orrs	r3, r2
 80038a8:	87c3      	strh	r3, [r0, #62]	; 0x3e
 80038aa:	2000      	movs	r0, #0
 80038ac:	4770      	bx	lr
 80038ae:	46c0      	nop			; (mov r8, r8)
 80038b0:	0000bf80 	.word	0x0000bf80

080038b4 <USB_DisableGlobalInt>:
 80038b4:	3002      	adds	r0, #2
 80038b6:	8fc3      	ldrh	r3, [r0, #62]	; 0x3e
 80038b8:	4a02      	ldr	r2, [pc, #8]	; (80038c4 <USB_DisableGlobalInt+0x10>)
 80038ba:	4013      	ands	r3, r2
 80038bc:	87c3      	strh	r3, [r0, #62]	; 0x3e
 80038be:	2000      	movs	r0, #0
 80038c0:	4770      	bx	lr
 80038c2:	46c0      	nop			; (mov r8, r8)
 80038c4:	0000407f 	.word	0x0000407f

080038c8 <USB_DevInit>:
 80038c8:	b084      	sub	sp, #16
 80038ca:	9303      	str	r3, [sp, #12]
 80038cc:	2301      	movs	r3, #1
 80038ce:	9202      	str	r2, [sp, #8]
 80038d0:	2200      	movs	r2, #0
 80038d2:	9101      	str	r1, [sp, #4]
 80038d4:	1c81      	adds	r1, r0, #2
 80038d6:	87cb      	strh	r3, [r1, #62]	; 0x3e
 80038d8:	1d83      	adds	r3, r0, #6
 80038da:	3050      	adds	r0, #80	; 0x50
 80038dc:	87ca      	strh	r2, [r1, #62]	; 0x3e
 80038de:	87da      	strh	r2, [r3, #62]	; 0x3e
 80038e0:	8002      	strh	r2, [r0, #0]
 80038e2:	8fcb      	ldrh	r3, [r1, #62]	; 0x3e
 80038e4:	4802      	ldr	r0, [pc, #8]	; (80038f0 <USB_DevInit+0x28>)
 80038e6:	4303      	orrs	r3, r0
 80038e8:	87cb      	strh	r3, [r1, #62]	; 0x3e
 80038ea:	0010      	movs	r0, r2
 80038ec:	b004      	add	sp, #16
 80038ee:	4770      	bx	lr
 80038f0:	0000bf80 	.word	0x0000bf80

080038f4 <USB_ActivateEndpoint>:
 80038f4:	b5f7      	push	{r0, r1, r2, r4, r5, r6, r7, lr}
 80038f6:	780d      	ldrb	r5, [r1, #0]
 80038f8:	4a91      	ldr	r2, [pc, #580]	; (8003b40 <USB_ActivateEndpoint+0x24c>)
 80038fa:	00ad      	lsls	r5, r5, #2
 80038fc:	1945      	adds	r5, r0, r5
 80038fe:	882c      	ldrh	r4, [r5, #0]
 8003900:	0003      	movs	r3, r0
 8003902:	4014      	ands	r4, r2
 8003904:	2201      	movs	r2, #1
 8003906:	78c8      	ldrb	r0, [r1, #3]
 8003908:	9200      	str	r2, [sp, #0]
 800390a:	2803      	cmp	r0, #3
 800390c:	d808      	bhi.n	8003920 <USB_ActivateEndpoint+0x2c>
 800390e:	f7fc fc03 	bl	8000118 <__gnu_thumb1_case_uqi>
 8003912:	4b02      	.short	0x4b02
 8003914:	4805      	.short	0x4805
 8003916:	2280      	movs	r2, #128	; 0x80
 8003918:	0092      	lsls	r2, r2, #2
 800391a:	4314      	orrs	r4, r2
 800391c:	2200      	movs	r2, #0
 800391e:	9200      	str	r2, [sp, #0]
 8003920:	001e      	movs	r6, r3
 8003922:	4a88      	ldr	r2, [pc, #544]	; (8003b44 <USB_ActivateEndpoint+0x250>)
 8003924:	4f88      	ldr	r7, [pc, #544]	; (8003b48 <USB_ActivateEndpoint+0x254>)
 8003926:	4314      	orrs	r4, r2
 8003928:	b2a4      	uxth	r4, r4
 800392a:	802c      	strh	r4, [r5, #0]
 800392c:	780d      	ldrb	r5, [r1, #0]
 800392e:	3650      	adds	r6, #80	; 0x50
 8003930:	00ac      	lsls	r4, r5, #2
 8003932:	191c      	adds	r4, r3, r4
 8003934:	8820      	ldrh	r0, [r4, #0]
 8003936:	4038      	ands	r0, r7
 8003938:	4328      	orrs	r0, r5
 800393a:	4310      	orrs	r0, r2
 800393c:	b280      	uxth	r0, r0
 800393e:	8020      	strh	r0, [r4, #0]
 8003940:	7b0d      	ldrb	r5, [r1, #12]
 8003942:	7808      	ldrb	r0, [r1, #0]
 8003944:	003c      	movs	r4, r7
 8003946:	2d00      	cmp	r5, #0
 8003948:	d000      	beq.n	800394c <USB_ActivateEndpoint+0x58>
 800394a:	e06f      	b.n	8003a2c <USB_ActivateEndpoint+0x138>
 800394c:	00c0      	lsls	r0, r0, #3
 800394e:	18c0      	adds	r0, r0, r3
 8003950:	88cd      	ldrh	r5, [r1, #6]
 8003952:	9001      	str	r0, [sp, #4]
 8003954:	7848      	ldrb	r0, [r1, #1]
 8003956:	086d      	lsrs	r5, r5, #1
 8003958:	006d      	lsls	r5, r5, #1
 800395a:	2800      	cmp	r0, #0
 800395c:	d029      	beq.n	80039b2 <USB_ActivateEndpoint+0xbe>
 800395e:	8834      	ldrh	r4, [r6, #0]
 8003960:	9801      	ldr	r0, [sp, #4]
 8003962:	1820      	adds	r0, r4, r0
 8003964:	2480      	movs	r4, #128	; 0x80
 8003966:	00e4      	lsls	r4, r4, #3
 8003968:	1900      	adds	r0, r0, r4
 800396a:	8005      	strh	r5, [r0, #0]
 800396c:	7808      	ldrb	r0, [r1, #0]
 800396e:	0080      	lsls	r0, r0, #2
 8003970:	1818      	adds	r0, r3, r0
 8003972:	8804      	ldrh	r4, [r0, #0]
 8003974:	0664      	lsls	r4, r4, #25
 8003976:	d504      	bpl.n	8003982 <USB_ActivateEndpoint+0x8e>
 8003978:	8804      	ldrh	r4, [r0, #0]
 800397a:	4027      	ands	r7, r4
 800397c:	4c73      	ldr	r4, [pc, #460]	; (8003b4c <USB_ActivateEndpoint+0x258>)
 800397e:	4327      	orrs	r7, r4
 8003980:	8007      	strh	r7, [r0, #0]
 8003982:	7808      	ldrb	r0, [r1, #0]
 8003984:	78c9      	ldrb	r1, [r1, #3]
 8003986:	0080      	lsls	r0, r0, #2
 8003988:	181b      	adds	r3, r3, r0
 800398a:	4871      	ldr	r0, [pc, #452]	; (8003b50 <USB_ActivateEndpoint+0x25c>)
 800398c:	2901      	cmp	r1, #1
 800398e:	d00d      	beq.n	80039ac <USB_ActivateEndpoint+0xb8>
 8003990:	8819      	ldrh	r1, [r3, #0]
 8003992:	4008      	ands	r0, r1
 8003994:	2120      	movs	r1, #32
 8003996:	4041      	eors	r1, r0
 8003998:	430a      	orrs	r2, r1
 800399a:	b292      	uxth	r2, r2
 800399c:	9800      	ldr	r0, [sp, #0]
 800399e:	801a      	strh	r2, [r3, #0]
 80039a0:	bdfe      	pop	{r1, r2, r3, r4, r5, r6, r7, pc}
 80039a2:	22c0      	movs	r2, #192	; 0xc0
 80039a4:	00d2      	lsls	r2, r2, #3
 80039a6:	e7b8      	b.n	800391a <USB_ActivateEndpoint+0x26>
 80039a8:	2280      	movs	r2, #128	; 0x80
 80039aa:	e7fb      	b.n	80039a4 <USB_ActivateEndpoint+0xb0>
 80039ac:	8819      	ldrh	r1, [r3, #0]
 80039ae:	4001      	ands	r1, r0
 80039b0:	e7f2      	b.n	8003998 <USB_ActivateEndpoint+0xa4>
 80039b2:	8837      	ldrh	r7, [r6, #0]
 80039b4:	9801      	ldr	r0, [sp, #4]
 80039b6:	1838      	adds	r0, r7, r0
 80039b8:	4f66      	ldr	r7, [pc, #408]	; (8003b54 <USB_ActivateEndpoint+0x260>)
 80039ba:	19c0      	adds	r0, r0, r7
 80039bc:	8005      	strh	r5, [r0, #0]
 80039be:	7808      	ldrb	r0, [r1, #0]
 80039c0:	8835      	ldrh	r5, [r6, #0]
 80039c2:	00c0      	lsls	r0, r0, #3
 80039c4:	4e64      	ldr	r6, [pc, #400]	; (8003b58 <USB_ActivateEndpoint+0x264>)
 80039c6:	18c0      	adds	r0, r0, r3
 80039c8:	1980      	adds	r0, r0, r6
 80039ca:	1940      	adds	r0, r0, r5
 80039cc:	690d      	ldr	r5, [r1, #16]
 80039ce:	2d00      	cmp	r5, #0
 80039d0:	d119      	bne.n	8003a06 <USB_ActivateEndpoint+0x112>
 80039d2:	8805      	ldrh	r5, [r0, #0]
 80039d4:	4e61      	ldr	r6, [pc, #388]	; (8003b5c <USB_ActivateEndpoint+0x268>)
 80039d6:	402e      	ands	r6, r5
 80039d8:	4d61      	ldr	r5, [pc, #388]	; (8003b60 <USB_ActivateEndpoint+0x26c>)
 80039da:	4335      	orrs	r5, r6
 80039dc:	8005      	strh	r5, [r0, #0]
 80039de:	7808      	ldrb	r0, [r1, #0]
 80039e0:	0080      	lsls	r0, r0, #2
 80039e2:	1818      	adds	r0, r3, r0
 80039e4:	8805      	ldrh	r5, [r0, #0]
 80039e6:	046d      	lsls	r5, r5, #17
 80039e8:	d504      	bpl.n	80039f4 <USB_ActivateEndpoint+0x100>
 80039ea:	8805      	ldrh	r5, [r0, #0]
 80039ec:	402c      	ands	r4, r5
 80039ee:	4d5d      	ldr	r5, [pc, #372]	; (8003b64 <USB_ActivateEndpoint+0x270>)
 80039f0:	432c      	orrs	r4, r5
 80039f2:	8004      	strh	r4, [r0, #0]
 80039f4:	7809      	ldrb	r1, [r1, #0]
 80039f6:	485c      	ldr	r0, [pc, #368]	; (8003b68 <USB_ActivateEndpoint+0x274>)
 80039f8:	0089      	lsls	r1, r1, #2
 80039fa:	185b      	adds	r3, r3, r1
 80039fc:	8819      	ldrh	r1, [r3, #0]
 80039fe:	4008      	ands	r0, r1
 8003a00:	21c0      	movs	r1, #192	; 0xc0
 8003a02:	0189      	lsls	r1, r1, #6
 8003a04:	e7c7      	b.n	8003996 <USB_ActivateEndpoint+0xa2>
 8003a06:	2d3e      	cmp	r5, #62	; 0x3e
 8003a08:	d806      	bhi.n	8003a18 <USB_ActivateEndpoint+0x124>
 8003a0a:	2701      	movs	r7, #1
 8003a0c:	086e      	lsrs	r6, r5, #1
 8003a0e:	403d      	ands	r5, r7
 8003a10:	1976      	adds	r6, r6, r5
 8003a12:	02b6      	lsls	r6, r6, #10
 8003a14:	8006      	strh	r6, [r0, #0]
 8003a16:	e7e2      	b.n	80039de <USB_ActivateEndpoint+0xea>
 8003a18:	271f      	movs	r7, #31
 8003a1a:	096e      	lsrs	r6, r5, #5
 8003a1c:	403d      	ands	r5, r7
 8003a1e:	426f      	negs	r7, r5
 8003a20:	417d      	adcs	r5, r7
 8003a22:	1b76      	subs	r6, r6, r5
 8003a24:	4d4e      	ldr	r5, [pc, #312]	; (8003b60 <USB_ActivateEndpoint+0x26c>)
 8003a26:	02b6      	lsls	r6, r6, #10
 8003a28:	432e      	orrs	r6, r5
 8003a2a:	e7f3      	b.n	8003a14 <USB_ActivateEndpoint+0x120>
 8003a2c:	0080      	lsls	r0, r0, #2
 8003a2e:	1818      	adds	r0, r3, r0
 8003a30:	8805      	ldrh	r5, [r0, #0]
 8003a32:	403d      	ands	r5, r7
 8003a34:	4f4d      	ldr	r7, [pc, #308]	; (8003b6c <USB_ActivateEndpoint+0x278>)
 8003a36:	433d      	orrs	r5, r7
 8003a38:	8005      	strh	r5, [r0, #0]
 8003a3a:	7808      	ldrb	r0, [r1, #0]
 8003a3c:	8835      	ldrh	r5, [r6, #0]
 8003a3e:	00c0      	lsls	r0, r0, #3
 8003a40:	1940      	adds	r0, r0, r5
 8003a42:	2580      	movs	r5, #128	; 0x80
 8003a44:	18c0      	adds	r0, r0, r3
 8003a46:	00ed      	lsls	r5, r5, #3
 8003a48:	1940      	adds	r0, r0, r5
 8003a4a:	890d      	ldrh	r5, [r1, #8]
 8003a4c:	086d      	lsrs	r5, r5, #1
 8003a4e:	006d      	lsls	r5, r5, #1
 8003a50:	8005      	strh	r5, [r0, #0]
 8003a52:	8835      	ldrh	r5, [r6, #0]
 8003a54:	4e3e      	ldr	r6, [pc, #248]	; (8003b50 <USB_ActivateEndpoint+0x25c>)
 8003a56:	7808      	ldrb	r0, [r1, #0]
 8003a58:	46b4      	mov	ip, r6
 8003a5a:	2680      	movs	r6, #128	; 0x80
 8003a5c:	00c0      	lsls	r0, r0, #3
 8003a5e:	1940      	adds	r0, r0, r5
 8003a60:	4d3c      	ldr	r5, [pc, #240]	; (8003b54 <USB_ActivateEndpoint+0x260>)
 8003a62:	18c0      	adds	r0, r0, r3
 8003a64:	1940      	adds	r0, r0, r5
 8003a66:	894d      	ldrh	r5, [r1, #10]
 8003a68:	01f6      	lsls	r6, r6, #7
 8003a6a:	086d      	lsrs	r5, r5, #1
 8003a6c:	006d      	lsls	r5, r5, #1
 8003a6e:	8005      	strh	r5, [r0, #0]
 8003a70:	7808      	ldrb	r0, [r1, #0]
 8003a72:	784d      	ldrb	r5, [r1, #1]
 8003a74:	0080      	lsls	r0, r0, #2
 8003a76:	1818      	adds	r0, r3, r0
 8003a78:	2d00      	cmp	r5, #0
 8003a7a:	d12d      	bne.n	8003ad8 <USB_ActivateEndpoint+0x1e4>
 8003a7c:	8805      	ldrh	r5, [r0, #0]
 8003a7e:	4235      	tst	r5, r6
 8003a80:	d004      	beq.n	8003a8c <USB_ActivateEndpoint+0x198>
 8003a82:	8805      	ldrh	r5, [r0, #0]
 8003a84:	4e37      	ldr	r6, [pc, #220]	; (8003b64 <USB_ActivateEndpoint+0x270>)
 8003a86:	4025      	ands	r5, r4
 8003a88:	4335      	orrs	r5, r6
 8003a8a:	8005      	strh	r5, [r0, #0]
 8003a8c:	7808      	ldrb	r0, [r1, #0]
 8003a8e:	4e38      	ldr	r6, [pc, #224]	; (8003b70 <USB_ActivateEndpoint+0x27c>)
 8003a90:	0080      	lsls	r0, r0, #2
 8003a92:	1818      	adds	r0, r3, r0
 8003a94:	8805      	ldrh	r5, [r0, #0]
 8003a96:	066d      	lsls	r5, r5, #25
 8003a98:	d504      	bpl.n	8003aa4 <USB_ActivateEndpoint+0x1b0>
 8003a9a:	8805      	ldrh	r5, [r0, #0]
 8003a9c:	4025      	ands	r5, r4
 8003a9e:	4335      	orrs	r5, r6
 8003aa0:	b2ad      	uxth	r5, r5
 8003aa2:	8005      	strh	r5, [r0, #0]
 8003aa4:	7808      	ldrb	r0, [r1, #0]
 8003aa6:	0080      	lsls	r0, r0, #2
 8003aa8:	1818      	adds	r0, r3, r0
 8003aaa:	8805      	ldrh	r5, [r0, #0]
 8003aac:	402c      	ands	r4, r5
 8003aae:	4326      	orrs	r6, r4
 8003ab0:	b2b6      	uxth	r6, r6
 8003ab2:	8006      	strh	r6, [r0, #0]
 8003ab4:	780c      	ldrb	r4, [r1, #0]
 8003ab6:	482c      	ldr	r0, [pc, #176]	; (8003b68 <USB_ActivateEndpoint+0x274>)
 8003ab8:	00a4      	lsls	r4, r4, #2
 8003aba:	191c      	adds	r4, r3, r4
 8003abc:	8825      	ldrh	r5, [r4, #0]
 8003abe:	4005      	ands	r5, r0
 8003ac0:	20c0      	movs	r0, #192	; 0xc0
 8003ac2:	0180      	lsls	r0, r0, #6
 8003ac4:	4068      	eors	r0, r5
 8003ac6:	4310      	orrs	r0, r2
 8003ac8:	b280      	uxth	r0, r0
 8003aca:	8020      	strh	r0, [r4, #0]
 8003acc:	7809      	ldrb	r1, [r1, #0]
 8003ace:	4660      	mov	r0, ip
 8003ad0:	0089      	lsls	r1, r1, #2
 8003ad2:	185b      	adds	r3, r3, r1
 8003ad4:	8819      	ldrh	r1, [r3, #0]
 8003ad6:	e76a      	b.n	80039ae <USB_ActivateEndpoint+0xba>
 8003ad8:	8807      	ldrh	r7, [r0, #0]
 8003ada:	4d26      	ldr	r5, [pc, #152]	; (8003b74 <USB_ActivateEndpoint+0x280>)
 8003adc:	4237      	tst	r7, r6
 8003ade:	d004      	beq.n	8003aea <USB_ActivateEndpoint+0x1f6>
 8003ae0:	8806      	ldrh	r6, [r0, #0]
 8003ae2:	4026      	ands	r6, r4
 8003ae4:	432e      	orrs	r6, r5
 8003ae6:	b2b6      	uxth	r6, r6
 8003ae8:	8006      	strh	r6, [r0, #0]
 8003aea:	7808      	ldrb	r0, [r1, #0]
 8003aec:	0080      	lsls	r0, r0, #2
 8003aee:	1818      	adds	r0, r3, r0
 8003af0:	8806      	ldrh	r6, [r0, #0]
 8003af2:	0676      	lsls	r6, r6, #25
 8003af4:	d504      	bpl.n	8003b00 <USB_ActivateEndpoint+0x20c>
 8003af6:	8806      	ldrh	r6, [r0, #0]
 8003af8:	4f14      	ldr	r7, [pc, #80]	; (8003b4c <USB_ActivateEndpoint+0x258>)
 8003afa:	4026      	ands	r6, r4
 8003afc:	433e      	orrs	r6, r7
 8003afe:	8006      	strh	r6, [r0, #0]
 8003b00:	7808      	ldrb	r0, [r1, #0]
 8003b02:	0080      	lsls	r0, r0, #2
 8003b04:	1818      	adds	r0, r3, r0
 8003b06:	8806      	ldrh	r6, [r0, #0]
 8003b08:	4034      	ands	r4, r6
 8003b0a:	4325      	orrs	r5, r4
 8003b0c:	b2ad      	uxth	r5, r5
 8003b0e:	8005      	strh	r5, [r0, #0]
 8003b10:	7808      	ldrb	r0, [r1, #0]
 8003b12:	78cc      	ldrb	r4, [r1, #3]
 8003b14:	0080      	lsls	r0, r0, #2
 8003b16:	1818      	adds	r0, r3, r0
 8003b18:	2c01      	cmp	r4, #1
 8003b1a:	d00d      	beq.n	8003b38 <USB_ActivateEndpoint+0x244>
 8003b1c:	4664      	mov	r4, ip
 8003b1e:	8805      	ldrh	r5, [r0, #0]
 8003b20:	4025      	ands	r5, r4
 8003b22:	2420      	movs	r4, #32
 8003b24:	406c      	eors	r4, r5
 8003b26:	4314      	orrs	r4, r2
 8003b28:	b2a4      	uxth	r4, r4
 8003b2a:	8004      	strh	r4, [r0, #0]
 8003b2c:	7809      	ldrb	r1, [r1, #0]
 8003b2e:	480e      	ldr	r0, [pc, #56]	; (8003b68 <USB_ActivateEndpoint+0x274>)
 8003b30:	0089      	lsls	r1, r1, #2
 8003b32:	185b      	adds	r3, r3, r1
 8003b34:	8819      	ldrh	r1, [r3, #0]
 8003b36:	e73a      	b.n	80039ae <USB_ActivateEndpoint+0xba>
 8003b38:	4665      	mov	r5, ip
 8003b3a:	8804      	ldrh	r4, [r0, #0]
 8003b3c:	402c      	ands	r4, r5
 8003b3e:	e7f2      	b.n	8003b26 <USB_ActivateEndpoint+0x232>
 8003b40:	ffff898f 	.word	0xffff898f
 8003b44:	ffff8080 	.word	0xffff8080
 8003b48:	ffff8f8f 	.word	0xffff8f8f
 8003b4c:	000080c0 	.word	0x000080c0
 8003b50:	ffff8fbf 	.word	0xffff8fbf
 8003b54:	00000404 	.word	0x00000404
 8003b58:	00000406 	.word	0x00000406
 8003b5c:	ffff83ff 	.word	0xffff83ff
 8003b60:	ffff8000 	.word	0xffff8000
 8003b64:	0000c080 	.word	0x0000c080
 8003b68:	ffffbf8f 	.word	0xffffbf8f
 8003b6c:	00008180 	.word	0x00008180
 8003b70:	ffff80c0 	.word	0xffff80c0
 8003b74:	ffffc080 	.word	0xffffc080

08003b78 <USB_DeactivateEndpoint>:
 8003b78:	b5f0      	push	{r4, r5, r6, r7, lr}
 8003b7a:	780b      	ldrb	r3, [r1, #0]
 8003b7c:	7b0d      	ldrb	r5, [r1, #12]
 8003b7e:	009b      	lsls	r3, r3, #2
 8003b80:	784c      	ldrb	r4, [r1, #1]
 8003b82:	18c3      	adds	r3, r0, r3
 8003b84:	4a3f      	ldr	r2, [pc, #252]	; (8003c84 <USB_DeactivateEndpoint+0x10c>)
 8003b86:	2d00      	cmp	r5, #0
 8003b88:	d121      	bne.n	8003bce <USB_DeactivateEndpoint+0x56>
 8003b8a:	2c00      	cmp	r4, #0
 8003b8c:	d010      	beq.n	8003bb0 <USB_DeactivateEndpoint+0x38>
 8003b8e:	881c      	ldrh	r4, [r3, #0]
 8003b90:	0664      	lsls	r4, r4, #25
 8003b92:	d505      	bpl.n	8003ba0 <USB_DeactivateEndpoint+0x28>
 8003b94:	881c      	ldrh	r4, [r3, #0]
 8003b96:	4d3c      	ldr	r5, [pc, #240]	; (8003c88 <USB_DeactivateEndpoint+0x110>)
 8003b98:	402c      	ands	r4, r5
 8003b9a:	4d3c      	ldr	r5, [pc, #240]	; (8003c8c <USB_DeactivateEndpoint+0x114>)
 8003b9c:	432c      	orrs	r4, r5
 8003b9e:	801c      	strh	r4, [r3, #0]
 8003ba0:	780b      	ldrb	r3, [r1, #0]
 8003ba2:	493b      	ldr	r1, [pc, #236]	; (8003c90 <USB_DeactivateEndpoint+0x118>)
 8003ba4:	009b      	lsls	r3, r3, #2
 8003ba6:	18c0      	adds	r0, r0, r3
 8003ba8:	8803      	ldrh	r3, [r0, #0]
 8003baa:	400b      	ands	r3, r1
 8003bac:	431a      	orrs	r2, r3
 8003bae:	e03f      	b.n	8003c30 <USB_DeactivateEndpoint+0xb8>
 8003bb0:	881c      	ldrh	r4, [r3, #0]
 8003bb2:	0464      	lsls	r4, r4, #17
 8003bb4:	d505      	bpl.n	8003bc2 <USB_DeactivateEndpoint+0x4a>
 8003bb6:	881c      	ldrh	r4, [r3, #0]
 8003bb8:	4d33      	ldr	r5, [pc, #204]	; (8003c88 <USB_DeactivateEndpoint+0x110>)
 8003bba:	402c      	ands	r4, r5
 8003bbc:	4d35      	ldr	r5, [pc, #212]	; (8003c94 <USB_DeactivateEndpoint+0x11c>)
 8003bbe:	432c      	orrs	r4, r5
 8003bc0:	801c      	strh	r4, [r3, #0]
 8003bc2:	780b      	ldrb	r3, [r1, #0]
 8003bc4:	4934      	ldr	r1, [pc, #208]	; (8003c98 <USB_DeactivateEndpoint+0x120>)
 8003bc6:	009b      	lsls	r3, r3, #2
 8003bc8:	18c0      	adds	r0, r0, r3
 8003bca:	8803      	ldrh	r3, [r0, #0]
 8003bcc:	e7ed      	b.n	8003baa <USB_DeactivateEndpoint+0x32>
 8003bce:	2680      	movs	r6, #128	; 0x80
 8003bd0:	4d2d      	ldr	r5, [pc, #180]	; (8003c88 <USB_DeactivateEndpoint+0x110>)
 8003bd2:	4f2f      	ldr	r7, [pc, #188]	; (8003c90 <USB_DeactivateEndpoint+0x118>)
 8003bd4:	01f6      	lsls	r6, r6, #7
 8003bd6:	2c00      	cmp	r4, #0
 8003bd8:	d12e      	bne.n	8003c38 <USB_DeactivateEndpoint+0xc0>
 8003bda:	881c      	ldrh	r4, [r3, #0]
 8003bdc:	4234      	tst	r4, r6
 8003bde:	d004      	beq.n	8003bea <USB_DeactivateEndpoint+0x72>
 8003be0:	881c      	ldrh	r4, [r3, #0]
 8003be2:	4e2c      	ldr	r6, [pc, #176]	; (8003c94 <USB_DeactivateEndpoint+0x11c>)
 8003be4:	402c      	ands	r4, r5
 8003be6:	4334      	orrs	r4, r6
 8003be8:	801c      	strh	r4, [r3, #0]
 8003bea:	780b      	ldrb	r3, [r1, #0]
 8003bec:	4c2b      	ldr	r4, [pc, #172]	; (8003c9c <USB_DeactivateEndpoint+0x124>)
 8003bee:	009b      	lsls	r3, r3, #2
 8003bf0:	18c3      	adds	r3, r0, r3
 8003bf2:	881e      	ldrh	r6, [r3, #0]
 8003bf4:	0676      	lsls	r6, r6, #25
 8003bf6:	d504      	bpl.n	8003c02 <USB_DeactivateEndpoint+0x8a>
 8003bf8:	881e      	ldrh	r6, [r3, #0]
 8003bfa:	402e      	ands	r6, r5
 8003bfc:	4326      	orrs	r6, r4
 8003bfe:	b2b6      	uxth	r6, r6
 8003c00:	801e      	strh	r6, [r3, #0]
 8003c02:	780b      	ldrb	r3, [r1, #0]
 8003c04:	009b      	lsls	r3, r3, #2
 8003c06:	18c3      	adds	r3, r0, r3
 8003c08:	881e      	ldrh	r6, [r3, #0]
 8003c0a:	4035      	ands	r5, r6
 8003c0c:	432c      	orrs	r4, r5
 8003c0e:	b2a4      	uxth	r4, r4
 8003c10:	801c      	strh	r4, [r3, #0]
 8003c12:	780c      	ldrb	r4, [r1, #0]
 8003c14:	4d20      	ldr	r5, [pc, #128]	; (8003c98 <USB_DeactivateEndpoint+0x120>)
 8003c16:	00a4      	lsls	r4, r4, #2
 8003c18:	1904      	adds	r4, r0, r4
 8003c1a:	8823      	ldrh	r3, [r4, #0]
 8003c1c:	402b      	ands	r3, r5
 8003c1e:	4313      	orrs	r3, r2
 8003c20:	b29b      	uxth	r3, r3
 8003c22:	8023      	strh	r3, [r4, #0]
 8003c24:	780b      	ldrb	r3, [r1, #0]
 8003c26:	009b      	lsls	r3, r3, #2
 8003c28:	18c0      	adds	r0, r0, r3
 8003c2a:	8803      	ldrh	r3, [r0, #0]
 8003c2c:	401f      	ands	r7, r3
 8003c2e:	433a      	orrs	r2, r7
 8003c30:	b292      	uxth	r2, r2
 8003c32:	8002      	strh	r2, [r0, #0]
 8003c34:	2000      	movs	r0, #0
 8003c36:	bdf0      	pop	{r4, r5, r6, r7, pc}
 8003c38:	881c      	ldrh	r4, [r3, #0]
 8003c3a:	4234      	tst	r4, r6
 8003c3c:	d005      	beq.n	8003c4a <USB_DeactivateEndpoint+0xd2>
 8003c3e:	881e      	ldrh	r6, [r3, #0]
 8003c40:	4c17      	ldr	r4, [pc, #92]	; (8003ca0 <USB_DeactivateEndpoint+0x128>)
 8003c42:	402e      	ands	r6, r5
 8003c44:	4326      	orrs	r6, r4
 8003c46:	b2b6      	uxth	r6, r6
 8003c48:	801e      	strh	r6, [r3, #0]
 8003c4a:	780b      	ldrb	r3, [r1, #0]
 8003c4c:	009b      	lsls	r3, r3, #2
 8003c4e:	18c3      	adds	r3, r0, r3
 8003c50:	881e      	ldrh	r6, [r3, #0]
 8003c52:	0674      	lsls	r4, r6, #25
 8003c54:	d504      	bpl.n	8003c60 <USB_DeactivateEndpoint+0xe8>
 8003c56:	881e      	ldrh	r6, [r3, #0]
 8003c58:	4c0c      	ldr	r4, [pc, #48]	; (8003c8c <USB_DeactivateEndpoint+0x114>)
 8003c5a:	402e      	ands	r6, r5
 8003c5c:	4326      	orrs	r6, r4
 8003c5e:	801e      	strh	r6, [r3, #0]
 8003c60:	780b      	ldrb	r3, [r1, #0]
 8003c62:	4c0f      	ldr	r4, [pc, #60]	; (8003ca0 <USB_DeactivateEndpoint+0x128>)
 8003c64:	009b      	lsls	r3, r3, #2
 8003c66:	18c3      	adds	r3, r0, r3
 8003c68:	881e      	ldrh	r6, [r3, #0]
 8003c6a:	4035      	ands	r5, r6
 8003c6c:	432c      	orrs	r4, r5
 8003c6e:	b2a4      	uxth	r4, r4
 8003c70:	801c      	strh	r4, [r3, #0]
 8003c72:	780b      	ldrb	r3, [r1, #0]
 8003c74:	009b      	lsls	r3, r3, #2
 8003c76:	18c3      	adds	r3, r0, r3
 8003c78:	881c      	ldrh	r4, [r3, #0]
 8003c7a:	4027      	ands	r7, r4
 8003c7c:	4317      	orrs	r7, r2
 8003c7e:	b2bf      	uxth	r7, r7
 8003c80:	801f      	strh	r7, [r3, #0]
 8003c82:	e79e      	b.n	8003bc2 <USB_DeactivateEndpoint+0x4a>
 8003c84:	ffff8080 	.word	0xffff8080
 8003c88:	ffff8f8f 	.word	0xffff8f8f
 8003c8c:	000080c0 	.word	0x000080c0
 8003c90:	ffff8fbf 	.word	0xffff8fbf
 8003c94:	0000c080 	.word	0x0000c080
 8003c98:	ffffbf8f 	.word	0xffffbf8f
 8003c9c:	ffff80c0 	.word	0xffff80c0
 8003ca0:	ffffc080 	.word	0xffffc080

08003ca4 <USB_EPSetStall>:
 8003ca4:	780b      	ldrb	r3, [r1, #0]
 8003ca6:	4a0b      	ldr	r2, [pc, #44]	; (8003cd4 <USB_EPSetStall+0x30>)
 8003ca8:	009b      	lsls	r3, r3, #2
 8003caa:	18c0      	adds	r0, r0, r3
 8003cac:	784b      	ldrb	r3, [r1, #1]
 8003cae:	2b00      	cmp	r3, #0
 8003cb0:	d009      	beq.n	8003cc6 <USB_EPSetStall+0x22>
 8003cb2:	8803      	ldrh	r3, [r0, #0]
 8003cb4:	4908      	ldr	r1, [pc, #32]	; (8003cd8 <USB_EPSetStall+0x34>)
 8003cb6:	4019      	ands	r1, r3
 8003cb8:	2310      	movs	r3, #16
 8003cba:	404b      	eors	r3, r1
 8003cbc:	4313      	orrs	r3, r2
 8003cbe:	b29b      	uxth	r3, r3
 8003cc0:	8003      	strh	r3, [r0, #0]
 8003cc2:	2000      	movs	r0, #0
 8003cc4:	4770      	bx	lr
 8003cc6:	8803      	ldrh	r3, [r0, #0]
 8003cc8:	4904      	ldr	r1, [pc, #16]	; (8003cdc <USB_EPSetStall+0x38>)
 8003cca:	4019      	ands	r1, r3
 8003ccc:	2380      	movs	r3, #128	; 0x80
 8003cce:	015b      	lsls	r3, r3, #5
 8003cd0:	e7f3      	b.n	8003cba <USB_EPSetStall+0x16>
 8003cd2:	46c0      	nop			; (mov r8, r8)
 8003cd4:	ffff8080 	.word	0xffff8080
 8003cd8:	ffff8fbf 	.word	0xffff8fbf
 8003cdc:	ffffbf8f 	.word	0xffffbf8f

08003ce0 <USB_EPClearStall>:
 8003ce0:	7b0b      	ldrb	r3, [r1, #12]
 8003ce2:	b510      	push	{r4, lr}
 8003ce4:	2b00      	cmp	r3, #0
 8003ce6:	d11c      	bne.n	8003d22 <USB_EPClearStall+0x42>
 8003ce8:	780b      	ldrb	r3, [r1, #0]
 8003cea:	784a      	ldrb	r2, [r1, #1]
 8003cec:	009b      	lsls	r3, r3, #2
 8003cee:	18c3      	adds	r3, r0, r3
 8003cf0:	2a00      	cmp	r2, #0
 8003cf2:	d018      	beq.n	8003d26 <USB_EPClearStall+0x46>
 8003cf4:	881a      	ldrh	r2, [r3, #0]
 8003cf6:	0652      	lsls	r2, r2, #25
 8003cf8:	d505      	bpl.n	8003d06 <USB_EPClearStall+0x26>
 8003cfa:	881a      	ldrh	r2, [r3, #0]
 8003cfc:	4c13      	ldr	r4, [pc, #76]	; (8003d4c <USB_EPClearStall+0x6c>)
 8003cfe:	4022      	ands	r2, r4
 8003d00:	4c13      	ldr	r4, [pc, #76]	; (8003d50 <USB_EPClearStall+0x70>)
 8003d02:	4322      	orrs	r2, r4
 8003d04:	801a      	strh	r2, [r3, #0]
 8003d06:	78cb      	ldrb	r3, [r1, #3]
 8003d08:	2b01      	cmp	r3, #1
 8003d0a:	d00a      	beq.n	8003d22 <USB_EPClearStall+0x42>
 8003d0c:	780b      	ldrb	r3, [r1, #0]
 8003d0e:	4a11      	ldr	r2, [pc, #68]	; (8003d54 <USB_EPClearStall+0x74>)
 8003d10:	009b      	lsls	r3, r3, #2
 8003d12:	18c0      	adds	r0, r0, r3
 8003d14:	8803      	ldrh	r3, [r0, #0]
 8003d16:	401a      	ands	r2, r3
 8003d18:	2320      	movs	r3, #32
 8003d1a:	4053      	eors	r3, r2
 8003d1c:	4a0e      	ldr	r2, [pc, #56]	; (8003d58 <USB_EPClearStall+0x78>)
 8003d1e:	4313      	orrs	r3, r2
 8003d20:	8003      	strh	r3, [r0, #0]
 8003d22:	2000      	movs	r0, #0
 8003d24:	bd10      	pop	{r4, pc}
 8003d26:	881a      	ldrh	r2, [r3, #0]
 8003d28:	0452      	lsls	r2, r2, #17
 8003d2a:	d505      	bpl.n	8003d38 <USB_EPClearStall+0x58>
 8003d2c:	881a      	ldrh	r2, [r3, #0]
 8003d2e:	4c07      	ldr	r4, [pc, #28]	; (8003d4c <USB_EPClearStall+0x6c>)
 8003d30:	4022      	ands	r2, r4
 8003d32:	4c0a      	ldr	r4, [pc, #40]	; (8003d5c <USB_EPClearStall+0x7c>)
 8003d34:	4322      	orrs	r2, r4
 8003d36:	801a      	strh	r2, [r3, #0]
 8003d38:	780b      	ldrb	r3, [r1, #0]
 8003d3a:	4a09      	ldr	r2, [pc, #36]	; (8003d60 <USB_EPClearStall+0x80>)
 8003d3c:	009b      	lsls	r3, r3, #2
 8003d3e:	18c0      	adds	r0, r0, r3
 8003d40:	8803      	ldrh	r3, [r0, #0]
 8003d42:	401a      	ands	r2, r3
 8003d44:	23c0      	movs	r3, #192	; 0xc0
 8003d46:	019b      	lsls	r3, r3, #6
 8003d48:	e7e7      	b.n	8003d1a <USB_EPClearStall+0x3a>
 8003d4a:	46c0      	nop			; (mov r8, r8)
 8003d4c:	ffff8f8f 	.word	0xffff8f8f
 8003d50:	000080c0 	.word	0x000080c0
 8003d54:	ffff8fbf 	.word	0xffff8fbf
 8003d58:	00008080 	.word	0x00008080
 8003d5c:	0000c080 	.word	0x0000c080
 8003d60:	ffffbf8f 	.word	0xffffbf8f

08003d64 <USB_StopDevice>:
 8003d64:	2301      	movs	r3, #1
 8003d66:	1c82      	adds	r2, r0, #2
 8003d68:	87d3      	strh	r3, [r2, #62]	; 0x3e
 8003d6a:	1d83      	adds	r3, r0, #6
 8003d6c:	2000      	movs	r0, #0
 8003d6e:	87d8      	strh	r0, [r3, #62]	; 0x3e
 8003d70:	2303      	movs	r3, #3
 8003d72:	87d3      	strh	r3, [r2, #62]	; 0x3e
 8003d74:	4770      	bx	lr

08003d76 <USB_SetDevAddress>:
 8003d76:	2900      	cmp	r1, #0
 8003d78:	d102      	bne.n	8003d80 <USB_SetDevAddress+0xa>
 8003d7a:	2380      	movs	r3, #128	; 0x80
 8003d7c:	304c      	adds	r0, #76	; 0x4c
 8003d7e:	8003      	strh	r3, [r0, #0]
 8003d80:	2000      	movs	r0, #0
 8003d82:	4770      	bx	lr

08003d84 <USB_DevConnect>:
 8003d84:	2280      	movs	r2, #128	; 0x80
 8003d86:	3058      	adds	r0, #88	; 0x58
 8003d88:	8803      	ldrh	r3, [r0, #0]
 8003d8a:	0212      	lsls	r2, r2, #8
 8003d8c:	4313      	orrs	r3, r2
 8003d8e:	8003      	strh	r3, [r0, #0]
 8003d90:	2000      	movs	r0, #0
 8003d92:	4770      	bx	lr

08003d94 <USB_DevDisconnect>:
 8003d94:	3058      	adds	r0, #88	; 0x58
 8003d96:	8803      	ldrh	r3, [r0, #0]
 8003d98:	045b      	lsls	r3, r3, #17
 8003d9a:	0c5b      	lsrs	r3, r3, #17
 8003d9c:	8003      	strh	r3, [r0, #0]
 8003d9e:	2000      	movs	r0, #0
 8003da0:	4770      	bx	lr

08003da2 <USB_ReadInterrupts>:
 8003da2:	3006      	adds	r0, #6
 8003da4:	8fc0      	ldrh	r0, [r0, #62]	; 0x3e
 8003da6:	b280      	uxth	r0, r0
 8003da8:	4770      	bx	lr

08003daa <USB_EP0_OutStart>:
 8003daa:	2000      	movs	r0, #0
 8003dac:	4770      	bx	lr

08003dae <USB_WritePMA>:
 8003dae:	b530      	push	{r4, r5, lr}
 8003db0:	2480      	movs	r4, #128	; 0x80
 8003db2:	00e4      	lsls	r4, r4, #3
 8003db4:	1912      	adds	r2, r2, r4
 8003db6:	3301      	adds	r3, #1
 8003db8:	1880      	adds	r0, r0, r2
 8003dba:	085b      	lsrs	r3, r3, #1
 8003dbc:	1a40      	subs	r0, r0, r1
 8003dbe:	1844      	adds	r4, r0, r1
 8003dc0:	2b00      	cmp	r3, #0
 8003dc2:	d100      	bne.n	8003dc6 <USB_WritePMA+0x18>
 8003dc4:	bd30      	pop	{r4, r5, pc}
 8003dc6:	784a      	ldrb	r2, [r1, #1]
 8003dc8:	780d      	ldrb	r5, [r1, #0]
 8003dca:	0212      	lsls	r2, r2, #8
 8003dcc:	432a      	orrs	r2, r5
 8003dce:	8022      	strh	r2, [r4, #0]
 8003dd0:	3b01      	subs	r3, #1
 8003dd2:	3102      	adds	r1, #2
 8003dd4:	e7f3      	b.n	8003dbe <USB_WritePMA+0x10>
	...

08003dd8 <USB_EPStartXfer>:
 8003dd8:	b5f8      	push	{r3, r4, r5, r6, r7, lr}
 8003dda:	784c      	ldrb	r4, [r1, #1]
 8003ddc:	0005      	movs	r5, r0
 8003dde:	000e      	movs	r6, r1
 8003de0:	698a      	ldr	r2, [r1, #24]
 8003de2:	690b      	ldr	r3, [r1, #16]
 8003de4:	7b08      	ldrb	r0, [r1, #12]
 8003de6:	2c01      	cmp	r4, #1
 8003de8:	d158      	bne.n	8003e9c <USB_EPStartXfer+0xc4>
 8003dea:	429a      	cmp	r2, r3
 8003dec:	d922      	bls.n	8003e34 <USB_EPStartXfer+0x5c>
 8003dee:	1ad2      	subs	r2, r2, r3
 8003df0:	618a      	str	r2, [r1, #24]
 8003df2:	002f      	movs	r7, r5
 8003df4:	6971      	ldr	r1, [r6, #20]
 8003df6:	b29c      	uxth	r4, r3
 8003df8:	3750      	adds	r7, #80	; 0x50
 8003dfa:	2800      	cmp	r0, #0
 8003dfc:	d11e      	bne.n	8003e3c <USB_EPStartXfer+0x64>
 8003dfe:	88f2      	ldrh	r2, [r6, #6]
 8003e00:	0023      	movs	r3, r4
 8003e02:	0028      	movs	r0, r5
 8003e04:	f7ff ffd3 	bl	8003dae <USB_WritePMA>
 8003e08:	7833      	ldrb	r3, [r6, #0]
 8003e0a:	883a      	ldrh	r2, [r7, #0]
 8003e0c:	00db      	lsls	r3, r3, #3
 8003e0e:	189b      	adds	r3, r3, r2
 8003e10:	4a5b      	ldr	r2, [pc, #364]	; (8003f80 <USB_EPStartXfer+0x1a8>)
 8003e12:	18eb      	adds	r3, r5, r3
 8003e14:	189b      	adds	r3, r3, r2
 8003e16:	801c      	strh	r4, [r3, #0]
 8003e18:	7833      	ldrb	r3, [r6, #0]
 8003e1a:	4a5a      	ldr	r2, [pc, #360]	; (8003f84 <USB_EPStartXfer+0x1ac>)
 8003e1c:	009b      	lsls	r3, r3, #2
 8003e1e:	18ed      	adds	r5, r5, r3
 8003e20:	882b      	ldrh	r3, [r5, #0]
 8003e22:	401a      	ands	r2, r3
 8003e24:	2330      	movs	r3, #48	; 0x30
 8003e26:	4053      	eors	r3, r2
 8003e28:	4a57      	ldr	r2, [pc, #348]	; (8003f88 <USB_EPStartXfer+0x1b0>)
 8003e2a:	2000      	movs	r0, #0
 8003e2c:	4313      	orrs	r3, r2
 8003e2e:	b29b      	uxth	r3, r3
 8003e30:	802b      	strh	r3, [r5, #0]
 8003e32:	bdf8      	pop	{r3, r4, r5, r6, r7, pc}
 8003e34:	2300      	movs	r3, #0
 8003e36:	618b      	str	r3, [r1, #24]
 8003e38:	0013      	movs	r3, r2
 8003e3a:	e7da      	b.n	8003df2 <USB_EPStartXfer+0x1a>
 8003e3c:	7833      	ldrb	r3, [r6, #0]
 8003e3e:	009a      	lsls	r2, r3, #2
 8003e40:	18aa      	adds	r2, r5, r2
 8003e42:	8810      	ldrh	r0, [r2, #0]
 8003e44:	00da      	lsls	r2, r3, #3
 8003e46:	0643      	lsls	r3, r0, #25
 8003e48:	d517      	bpl.n	8003e7a <USB_EPStartXfer+0xa2>
 8003e4a:	883b      	ldrh	r3, [r7, #0]
 8003e4c:	189b      	adds	r3, r3, r2
 8003e4e:	4a4f      	ldr	r2, [pc, #316]	; (8003f8c <USB_EPStartXfer+0x1b4>)
 8003e50:	195b      	adds	r3, r3, r5
 8003e52:	189b      	adds	r3, r3, r2
 8003e54:	801c      	strh	r4, [r3, #0]
 8003e56:	8972      	ldrh	r2, [r6, #10]
 8003e58:	0023      	movs	r3, r4
 8003e5a:	0028      	movs	r0, r5
 8003e5c:	f7ff ffa7 	bl	8003dae <USB_WritePMA>
 8003e60:	7872      	ldrb	r2, [r6, #1]
 8003e62:	7833      	ldrb	r3, [r6, #0]
 8003e64:	2a00      	cmp	r2, #0
 8003e66:	d110      	bne.n	8003e8a <USB_EPStartXfer+0xb2>
 8003e68:	009b      	lsls	r3, r3, #2
 8003e6a:	18eb      	adds	r3, r5, r3
 8003e6c:	4948      	ldr	r1, [pc, #288]	; (8003f90 <USB_EPStartXfer+0x1b8>)
 8003e6e:	881a      	ldrh	r2, [r3, #0]
 8003e70:	400a      	ands	r2, r1
 8003e72:	4948      	ldr	r1, [pc, #288]	; (8003f94 <USB_EPStartXfer+0x1bc>)
 8003e74:	430a      	orrs	r2, r1
 8003e76:	801a      	strh	r2, [r3, #0]
 8003e78:	e7ce      	b.n	8003e18 <USB_EPStartXfer+0x40>
 8003e7a:	883b      	ldrh	r3, [r7, #0]
 8003e7c:	189b      	adds	r3, r3, r2
 8003e7e:	4a40      	ldr	r2, [pc, #256]	; (8003f80 <USB_EPStartXfer+0x1a8>)
 8003e80:	195b      	adds	r3, r3, r5
 8003e82:	189b      	adds	r3, r3, r2
 8003e84:	801c      	strh	r4, [r3, #0]
 8003e86:	8932      	ldrh	r2, [r6, #8]
 8003e88:	e7e6      	b.n	8003e58 <USB_EPStartXfer+0x80>
 8003e8a:	2a01      	cmp	r2, #1
 8003e8c:	d1c4      	bne.n	8003e18 <USB_EPStartXfer+0x40>
 8003e8e:	009b      	lsls	r3, r3, #2
 8003e90:	18eb      	adds	r3, r5, r3
 8003e92:	493f      	ldr	r1, [pc, #252]	; (8003f90 <USB_EPStartXfer+0x1b8>)
 8003e94:	881a      	ldrh	r2, [r3, #0]
 8003e96:	400a      	ands	r2, r1
 8003e98:	493f      	ldr	r1, [pc, #252]	; (8003f98 <USB_EPStartXfer+0x1c0>)
 8003e9a:	e7eb      	b.n	8003e74 <USB_EPStartXfer+0x9c>
 8003e9c:	429a      	cmp	r2, r3
 8003e9e:	d915      	bls.n	8003ecc <USB_EPStartXfer+0xf4>
 8003ea0:	1ad2      	subs	r2, r2, r3
 8003ea2:	618a      	str	r2, [r1, #24]
 8003ea4:	7831      	ldrb	r1, [r6, #0]
 8003ea6:	2800      	cmp	r0, #0
 8003ea8:	d114      	bne.n	8003ed4 <USB_EPStartXfer+0xfc>
 8003eaa:	002a      	movs	r2, r5
 8003eac:	3250      	adds	r2, #80	; 0x50
 8003eae:	8810      	ldrh	r0, [r2, #0]
 8003eb0:	4a36      	ldr	r2, [pc, #216]	; (8003f8c <USB_EPStartXfer+0x1b4>)
 8003eb2:	00c9      	lsls	r1, r1, #3
 8003eb4:	18aa      	adds	r2, r5, r2
 8003eb6:	1812      	adds	r2, r2, r0
 8003eb8:	188a      	adds	r2, r1, r2
 8003eba:	2b00      	cmp	r3, #0
 8003ebc:	d139      	bne.n	8003f32 <USB_EPStartXfer+0x15a>
 8003ebe:	8813      	ldrh	r3, [r2, #0]
 8003ec0:	4936      	ldr	r1, [pc, #216]	; (8003f9c <USB_EPStartXfer+0x1c4>)
 8003ec2:	4019      	ands	r1, r3
 8003ec4:	4b36      	ldr	r3, [pc, #216]	; (8003fa0 <USB_EPStartXfer+0x1c8>)
 8003ec6:	430b      	orrs	r3, r1
 8003ec8:	8013      	strh	r3, [r2, #0]
 8003eca:	e03a      	b.n	8003f42 <USB_EPStartXfer+0x16a>
 8003ecc:	2300      	movs	r3, #0
 8003ece:	618b      	str	r3, [r1, #24]
 8003ed0:	0013      	movs	r3, r2
 8003ed2:	e7e7      	b.n	8003ea4 <USB_EPStartXfer+0xcc>
 8003ed4:	2c00      	cmp	r4, #0
 8003ed6:	d117      	bne.n	8003f08 <USB_EPStartXfer+0x130>
 8003ed8:	002a      	movs	r2, r5
 8003eda:	3250      	adds	r2, #80	; 0x50
 8003edc:	8810      	ldrh	r0, [r2, #0]
 8003ede:	4a28      	ldr	r2, [pc, #160]	; (8003f80 <USB_EPStartXfer+0x1a8>)
 8003ee0:	00c9      	lsls	r1, r1, #3
 8003ee2:	18aa      	adds	r2, r5, r2
 8003ee4:	1812      	adds	r2, r2, r0
 8003ee6:	1852      	adds	r2, r2, r1
 8003ee8:	2b00      	cmp	r3, #0
 8003eea:	d105      	bne.n	8003ef8 <USB_EPStartXfer+0x120>
 8003eec:	8811      	ldrh	r1, [r2, #0]
 8003eee:	482b      	ldr	r0, [pc, #172]	; (8003f9c <USB_EPStartXfer+0x1c4>)
 8003ef0:	4008      	ands	r0, r1
 8003ef2:	492b      	ldr	r1, [pc, #172]	; (8003fa0 <USB_EPStartXfer+0x1c8>)
 8003ef4:	4301      	orrs	r1, r0
 8003ef6:	e006      	b.n	8003f06 <USB_EPStartXfer+0x12e>
 8003ef8:	2b3e      	cmp	r3, #62	; 0x3e
 8003efa:	d811      	bhi.n	8003f20 <USB_EPStartXfer+0x148>
 8003efc:	2001      	movs	r0, #1
 8003efe:	0859      	lsrs	r1, r3, #1
 8003f00:	4018      	ands	r0, r3
 8003f02:	1809      	adds	r1, r1, r0
 8003f04:	0289      	lsls	r1, r1, #10
 8003f06:	8011      	strh	r1, [r2, #0]
 8003f08:	7871      	ldrb	r1, [r6, #1]
 8003f0a:	7832      	ldrb	r2, [r6, #0]
 8003f0c:	2900      	cmp	r1, #0
 8003f0e:	d12b      	bne.n	8003f68 <USB_EPStartXfer+0x190>
 8003f10:	0029      	movs	r1, r5
 8003f12:	3150      	adds	r1, #80	; 0x50
 8003f14:	8808      	ldrh	r0, [r1, #0]
 8003f16:	491d      	ldr	r1, [pc, #116]	; (8003f8c <USB_EPStartXfer+0x1b4>)
 8003f18:	00d2      	lsls	r2, r2, #3
 8003f1a:	1869      	adds	r1, r5, r1
 8003f1c:	1809      	adds	r1, r1, r0
 8003f1e:	e7cb      	b.n	8003eb8 <USB_EPStartXfer+0xe0>
 8003f20:	201f      	movs	r0, #31
 8003f22:	4018      	ands	r0, r3
 8003f24:	4244      	negs	r4, r0
 8003f26:	4160      	adcs	r0, r4
 8003f28:	0959      	lsrs	r1, r3, #5
 8003f2a:	1a09      	subs	r1, r1, r0
 8003f2c:	0289      	lsls	r1, r1, #10
 8003f2e:	481c      	ldr	r0, [pc, #112]	; (8003fa0 <USB_EPStartXfer+0x1c8>)
 8003f30:	e7e0      	b.n	8003ef4 <USB_EPStartXfer+0x11c>
 8003f32:	2b3e      	cmp	r3, #62	; 0x3e
 8003f34:	d80e      	bhi.n	8003f54 <USB_EPStartXfer+0x17c>
 8003f36:	2401      	movs	r4, #1
 8003f38:	0859      	lsrs	r1, r3, #1
 8003f3a:	401c      	ands	r4, r3
 8003f3c:	1909      	adds	r1, r1, r4
 8003f3e:	0289      	lsls	r1, r1, #10
 8003f40:	8011      	strh	r1, [r2, #0]
 8003f42:	7833      	ldrb	r3, [r6, #0]
 8003f44:	4a17      	ldr	r2, [pc, #92]	; (8003fa4 <USB_EPStartXfer+0x1cc>)
 8003f46:	009b      	lsls	r3, r3, #2
 8003f48:	18ed      	adds	r5, r5, r3
 8003f4a:	882b      	ldrh	r3, [r5, #0]
 8003f4c:	401a      	ands	r2, r3
 8003f4e:	23c0      	movs	r3, #192	; 0xc0
 8003f50:	019b      	lsls	r3, r3, #6
 8003f52:	e768      	b.n	8003e26 <USB_EPStartXfer+0x4e>
 8003f54:	241f      	movs	r4, #31
 8003f56:	401c      	ands	r4, r3
 8003f58:	0959      	lsrs	r1, r3, #5
 8003f5a:	4263      	negs	r3, r4
 8003f5c:	415c      	adcs	r4, r3
 8003f5e:	4b10      	ldr	r3, [pc, #64]	; (8003fa0 <USB_EPStartXfer+0x1c8>)
 8003f60:	1b09      	subs	r1, r1, r4
 8003f62:	0289      	lsls	r1, r1, #10
 8003f64:	4319      	orrs	r1, r3
 8003f66:	e7eb      	b.n	8003f40 <USB_EPStartXfer+0x168>
 8003f68:	2901      	cmp	r1, #1
 8003f6a:	d1ea      	bne.n	8003f42 <USB_EPStartXfer+0x16a>
 8003f6c:	0029      	movs	r1, r5
 8003f6e:	3150      	adds	r1, #80	; 0x50
 8003f70:	8809      	ldrh	r1, [r1, #0]
 8003f72:	00d2      	lsls	r2, r2, #3
 8003f74:	1852      	adds	r2, r2, r1
 8003f76:	4905      	ldr	r1, [pc, #20]	; (8003f8c <USB_EPStartXfer+0x1b4>)
 8003f78:	18aa      	adds	r2, r5, r2
 8003f7a:	1852      	adds	r2, r2, r1
 8003f7c:	e7a4      	b.n	8003ec8 <USB_EPStartXfer+0xf0>
 8003f7e:	46c0      	nop			; (mov r8, r8)
 8003f80:	00000402 	.word	0x00000402
 8003f84:	ffff8fbf 	.word	0xffff8fbf
 8003f88:	ffff8080 	.word	0xffff8080
 8003f8c:	00000406 	.word	0x00000406
 8003f90:	ffff8f8f 	.word	0xffff8f8f
 8003f94:	000080c0 	.word	0x000080c0
 8003f98:	0000c080 	.word	0x0000c080
 8003f9c:	ffff83ff 	.word	0xffff83ff
 8003fa0:	ffff8000 	.word	0xffff8000
 8003fa4:	ffffbf8f 	.word	0xffffbf8f

08003fa8 <USB_ReadPMA>:
 8003fa8:	b5f0      	push	{r4, r5, r6, r7, lr}
 8003faa:	2580      	movs	r5, #128	; 0x80
 8003fac:	085c      	lsrs	r4, r3, #1
 8003fae:	00ed      	lsls	r5, r5, #3
 8003fb0:	1952      	adds	r2, r2, r5
 8003fb2:	0026      	movs	r6, r4
 8003fb4:	000d      	movs	r5, r1
 8003fb6:	1880      	adds	r0, r0, r2
 8003fb8:	1a47      	subs	r7, r0, r1
 8003fba:	197a      	adds	r2, r7, r5
 8003fbc:	2e00      	cmp	r6, #0
 8003fbe:	d107      	bne.n	8003fd0 <USB_ReadPMA+0x28>
 8003fc0:	0064      	lsls	r4, r4, #1
 8003fc2:	1900      	adds	r0, r0, r4
 8003fc4:	1909      	adds	r1, r1, r4
 8003fc6:	07db      	lsls	r3, r3, #31
 8003fc8:	d501      	bpl.n	8003fce <USB_ReadPMA+0x26>
 8003fca:	8803      	ldrh	r3, [r0, #0]
 8003fcc:	700b      	strb	r3, [r1, #0]
 8003fce:	bdf0      	pop	{r4, r5, r6, r7, pc}
 8003fd0:	8812      	ldrh	r2, [r2, #0]
 8003fd2:	3e01      	subs	r6, #1
 8003fd4:	b292      	uxth	r2, r2
 8003fd6:	702a      	strb	r2, [r5, #0]
 8003fd8:	0a12      	lsrs	r2, r2, #8
 8003fda:	706a      	strb	r2, [r5, #1]
 8003fdc:	3502      	adds	r5, #2
 8003fde:	e7ec      	b.n	8003fba <USB_ReadPMA+0x12>

08003fe0 <LL_SetSystemCoreClock>:
 8003fe0:	4b01      	ldr	r3, [pc, #4]	; (8003fe8 <LL_SetSystemCoreClock+0x8>)
 8003fe2:	6018      	str	r0, [r3, #0]
 8003fe4:	4770      	bx	lr
 8003fe6:	46c0      	nop			; (mov r8, r8)
 8003fe8:	20000004 	.word	0x20000004

08003fec <USBD_CDC_EP0_RxReady>:
  */
static uint8_t  USBD_CDC_EP0_RxReady(USBD_HandleTypeDef *pdev)
{
  USBD_CDC_HandleTypeDef   *hcdc = (USBD_CDC_HandleTypeDef *) pdev->pClassData;

  if ((pdev->pUserData != NULL) && (hcdc->CmdOpCode != 0xFFU))
 8003fec:	23af      	movs	r3, #175	; 0xaf
 8003fee:	009b      	lsls	r3, r3, #2
 8003ff0:	58c3      	ldr	r3, [r0, r3]
{
 8003ff2:	b570      	push	{r4, r5, r6, lr}
  if ((pdev->pUserData != NULL) && (hcdc->CmdOpCode != 0xFFU))
 8003ff4:	2b00      	cmp	r3, #0
 8003ff6:	d00e      	beq.n	8004016 <USBD_CDC_EP0_RxReady+0x2a>
  USBD_CDC_HandleTypeDef   *hcdc = (USBD_CDC_HandleTypeDef *) pdev->pClassData;
 8003ff8:	22ae      	movs	r2, #174	; 0xae
  if ((pdev->pUserData != NULL) && (hcdc->CmdOpCode != 0xFFU))
 8003ffa:	2580      	movs	r5, #128	; 0x80
  USBD_CDC_HandleTypeDef   *hcdc = (USBD_CDC_HandleTypeDef *) pdev->pClassData;
 8003ffc:	0092      	lsls	r2, r2, #2
 8003ffe:	5884      	ldr	r4, [r0, r2]
  if ((pdev->pUserData != NULL) && (hcdc->CmdOpCode != 0xFFU))
 8004000:	00ad      	lsls	r5, r5, #2
 8004002:	5d60      	ldrb	r0, [r4, r5]
 8004004:	28ff      	cmp	r0, #255	; 0xff
 8004006:	d006      	beq.n	8004016 <USBD_CDC_EP0_RxReady+0x2a>
  {
    ((USBD_CDC_ItfTypeDef *)pdev->pUserData)->Control(hcdc->CmdOpCode,
 8004008:	4a04      	ldr	r2, [pc, #16]	; (800401c <USBD_CDC_EP0_RxReady+0x30>)
 800400a:	689b      	ldr	r3, [r3, #8]
 800400c:	5ca2      	ldrb	r2, [r4, r2]
 800400e:	0021      	movs	r1, r4
 8004010:	4798      	blx	r3
                                                      (uint8_t *)(void *)hcdc->data,
                                                      (uint16_t)hcdc->CmdLength);
    hcdc->CmdOpCode = 0xFFU;
 8004012:	23ff      	movs	r3, #255	; 0xff
 8004014:	5563      	strb	r3, [r4, r5]

  }
  return USBD_OK;
}
 8004016:	2000      	movs	r0, #0
 8004018:	bd70      	pop	{r4, r5, r6, pc}
 800401a:	46c0      	nop			; (mov r8, r8)
 800401c:	00000201 	.word	0x00000201

08004020 <USBD_CDC_GetFSCfgDesc>:
  * @param  length : pointer data length
  * @retval pointer to descriptor buffer
  */
static uint8_t  *USBD_CDC_GetFSCfgDesc(uint16_t *length)
{
  *length = sizeof(USBD_CDC_CfgFSDesc);
 8004020:	2343      	movs	r3, #67	; 0x43
 8004022:	8003      	strh	r3, [r0, #0]
  return USBD_CDC_CfgFSDesc;
}
 8004024:	4800      	ldr	r0, [pc, #0]	; (8004028 <USBD_CDC_GetFSCfgDesc+0x8>)
 8004026:	4770      	bx	lr
 8004028:	20000048 	.word	0x20000048

0800402c <USBD_CDC_GetHSCfgDesc>:
  * @param  length : pointer data length
  * @retval pointer to descriptor buffer
  */
static uint8_t  *USBD_CDC_GetHSCfgDesc(uint16_t *length)
{
  *length = sizeof(USBD_CDC_CfgHSDesc);
 800402c:	2343      	movs	r3, #67	; 0x43
 800402e:	8003      	strh	r3, [r0, #0]
  return USBD_CDC_CfgHSDesc;
}
 8004030:	4800      	ldr	r0, [pc, #0]	; (8004034 <USBD_CDC_GetHSCfgDesc+0x8>)
 8004032:	4770      	bx	lr
 8004034:	2000008c 	.word	0x2000008c

08004038 <USBD_CDC_GetOtherSpeedCfgDesc>:
  * @param  length : pointer data length
  * @retval pointer to descriptor buffer
  */
static uint8_t  *USBD_CDC_GetOtherSpeedCfgDesc(uint16_t *length)
{
  *length = sizeof(USBD_CDC_OtherSpeedCfgDesc);
 8004038:	2343      	movs	r3, #67	; 0x43
 800403a:	8003      	strh	r3, [r0, #0]
  return USBD_CDC_OtherSpeedCfgDesc;
}
 800403c:	4800      	ldr	r0, [pc, #0]	; (8004040 <USBD_CDC_GetOtherSpeedCfgDesc+0x8>)
 800403e:	4770      	bx	lr
 8004040:	200000dc 	.word	0x200000dc

08004044 <USBD_CDC_GetDeviceQualifierDescriptor>:
* @param  length : pointer data length
* @retval pointer to descriptor buffer
*/
uint8_t  *USBD_CDC_GetDeviceQualifierDescriptor(uint16_t *length)
{
  *length = sizeof(USBD_CDC_DeviceQualifierDesc);
 8004044:	230a      	movs	r3, #10
 8004046:	8003      	strh	r3, [r0, #0]
  return USBD_CDC_DeviceQualifierDesc;
}
 8004048:	4800      	ldr	r0, [pc, #0]	; (800404c <USBD_CDC_GetDeviceQualifierDescriptor+0x8>)
 800404a:	4770      	bx	lr
 800404c:	200000d0 	.word	0x200000d0

08004050 <USBD_CDC_DataOut>:
{
 8004050:	b570      	push	{r4, r5, r6, lr}
  USBD_CDC_HandleTypeDef   *hcdc = (USBD_CDC_HandleTypeDef *) pdev->pClassData;
 8004052:	26ae      	movs	r6, #174	; 0xae
 8004054:	00b6      	lsls	r6, r6, #2
{
 8004056:	0004      	movs	r4, r0
  USBD_CDC_HandleTypeDef   *hcdc = (USBD_CDC_HandleTypeDef *) pdev->pClassData;
 8004058:	5985      	ldr	r5, [r0, r6]
  hcdc->RxLength = USBD_LL_GetRxDataSize(pdev, epnum);
 800405a:	f001 f905 	bl	8005268 <USBD_LL_GetRxDataSize>
 800405e:	2383      	movs	r3, #131	; 0x83
 8004060:	009b      	lsls	r3, r3, #2
 8004062:	50e8      	str	r0, [r5, r3]
  if (pdev->pClassData != NULL)
 8004064:	59a3      	ldr	r3, [r4, r6]
    return USBD_FAIL;
 8004066:	2002      	movs	r0, #2
  if (pdev->pClassData != NULL)
 8004068:	2b00      	cmp	r3, #0
 800406a:	d00a      	beq.n	8004082 <USBD_CDC_DataOut+0x32>
    ((USBD_CDC_ItfTypeDef *)pdev->pUserData)->Receive(hcdc->RxBuffer, &hcdc->RxLength);
 800406c:	2383      	movs	r3, #131	; 0x83
 800406e:	2281      	movs	r2, #129	; 0x81
 8004070:	009b      	lsls	r3, r3, #2
 8004072:	18e9      	adds	r1, r5, r3
 8004074:	33b0      	adds	r3, #176	; 0xb0
 8004076:	58e3      	ldr	r3, [r4, r3]
 8004078:	0092      	lsls	r2, r2, #2
 800407a:	68db      	ldr	r3, [r3, #12]
 800407c:	58a8      	ldr	r0, [r5, r2]
 800407e:	4798      	blx	r3
    return USBD_OK;
 8004080:	2000      	movs	r0, #0
}
 8004082:	bd70      	pop	{r4, r5, r6, pc}

08004084 <USBD_CDC_DataIn>:
  USBD_CDC_HandleTypeDef *hcdc = (USBD_CDC_HandleTypeDef *)pdev->pClassData;
 8004084:	23ae      	movs	r3, #174	; 0xae
{
 8004086:	b5f7      	push	{r0, r1, r2, r4, r5, r6, r7, lr}
  USBD_CDC_HandleTypeDef *hcdc = (USBD_CDC_HandleTypeDef *)pdev->pClassData;
 8004088:	009b      	lsls	r3, r3, #2
 800408a:	58c3      	ldr	r3, [r0, r3]
{
 800408c:	0006      	movs	r6, r0
 800408e:	000f      	movs	r7, r1
  USBD_CDC_HandleTypeDef *hcdc = (USBD_CDC_HandleTypeDef *)pdev->pClassData;
 8004090:	9301      	str	r3, [sp, #4]
    return USBD_FAIL;
 8004092:	2002      	movs	r0, #2
  if (pdev->pClassData != NULL)
 8004094:	2b00      	cmp	r3, #0
 8004096:	d017      	beq.n	80040c8 <USBD_CDC_DataIn+0x44>
    if ((pdev->ep_in[epnum].total_length > 0U) && ((pdev->ep_in[epnum].total_length % hpcd->IN_ep[epnum].maxpacket) == 0U))
 8004098:	2514      	movs	r5, #20
 800409a:	434d      	muls	r5, r1
 800409c:	1975      	adds	r5, r6, r5
 800409e:	69e8      	ldr	r0, [r5, #28]
 80040a0:	2800      	cmp	r0, #0
 80040a2:	d012      	beq.n	80040ca <USBD_CDC_DataIn+0x46>
 80040a4:	23b0      	movs	r3, #176	; 0xb0
 80040a6:	009b      	lsls	r3, r3, #2
 80040a8:	58f3      	ldr	r3, [r6, r3]
 80040aa:	014a      	lsls	r2, r1, #5
 80040ac:	189b      	adds	r3, r3, r2
 80040ae:	6b99      	ldr	r1, [r3, #56]	; 0x38
 80040b0:	f7fc f8cc 	bl	800024c <__aeabi_uidivmod>
 80040b4:	1e0c      	subs	r4, r1, #0
 80040b6:	d108      	bne.n	80040ca <USBD_CDC_DataIn+0x46>
      pdev->ep_in[epnum].total_length = 0U;
 80040b8:	61e9      	str	r1, [r5, #28]
      USBD_LL_Transmit(pdev, epnum, NULL, 0U);
 80040ba:	000b      	movs	r3, r1
 80040bc:	000a      	movs	r2, r1
 80040be:	0030      	movs	r0, r6
 80040c0:	0039      	movs	r1, r7
 80040c2:	f001 f8b1 	bl	8005228 <USBD_LL_Transmit>
    return USBD_OK;
 80040c6:	0020      	movs	r0, r4
}
 80040c8:	bdfe      	pop	{r1, r2, r3, r4, r5, r6, r7, pc}
      hcdc->TxState = 0U;
 80040ca:	2385      	movs	r3, #133	; 0x85
 80040cc:	2000      	movs	r0, #0
 80040ce:	9a01      	ldr	r2, [sp, #4]
 80040d0:	009b      	lsls	r3, r3, #2
 80040d2:	50d0      	str	r0, [r2, r3]
 80040d4:	e7f8      	b.n	80040c8 <USBD_CDC_DataIn+0x44>
	...

080040d8 <USBD_CDC_Setup>:
  USBD_CDC_HandleTypeDef   *hcdc = (USBD_CDC_HandleTypeDef *) pdev->pClassData;
 80040d8:	23ae      	movs	r3, #174	; 0xae
{
 80040da:	b5f7      	push	{r0, r1, r2, r4, r5, r6, r7, lr}
  USBD_CDC_HandleTypeDef   *hcdc = (USBD_CDC_HandleTypeDef *) pdev->pClassData;
 80040dc:	009b      	lsls	r3, r3, #2
 80040de:	58c7      	ldr	r7, [r0, r3]
  uint8_t ifalt = 0U;
 80040e0:	466b      	mov	r3, sp
  uint16_t status_info = 0U;
 80040e2:	466a      	mov	r2, sp
{
 80040e4:	000e      	movs	r6, r1
  uint8_t ifalt = 0U;
 80040e6:	1d59      	adds	r1, r3, #5
 80040e8:	2300      	movs	r3, #0
  switch (req->bmRequest & USB_REQ_TYPE_MASK)
 80040ea:	2460      	movs	r4, #96	; 0x60
{
 80040ec:	0005      	movs	r5, r0
  uint16_t status_info = 0U;
 80040ee:	1d90      	adds	r0, r2, #6
  uint8_t ifalt = 0U;
 80040f0:	700b      	strb	r3, [r1, #0]
  uint16_t status_info = 0U;
 80040f2:	8003      	strh	r3, [r0, #0]
  switch (req->bmRequest & USB_REQ_TYPE_MASK)
 80040f4:	7833      	ldrb	r3, [r6, #0]
 80040f6:	401c      	ands	r4, r3
 80040f8:	d029      	beq.n	800414e <USBD_CDC_Setup+0x76>
 80040fa:	2c20      	cmp	r4, #32
 80040fc:	d142      	bne.n	8004184 <USBD_CDC_Setup+0xac>
      if (req->wLength)
 80040fe:	88f4      	ldrh	r4, [r6, #6]
 8004100:	7870      	ldrb	r0, [r6, #1]
 8004102:	2c00      	cmp	r4, #0
 8004104:	d01b      	beq.n	800413e <USBD_CDC_Setup+0x66>
        if (req->bmRequest & 0x80U)
 8004106:	b25b      	sxtb	r3, r3
 8004108:	2b00      	cmp	r3, #0
 800410a:	da0c      	bge.n	8004126 <USBD_CDC_Setup+0x4e>
          ((USBD_CDC_ItfTypeDef *)pdev->pUserData)->Control(req->bRequest,
 800410c:	23af      	movs	r3, #175	; 0xaf
 800410e:	009b      	lsls	r3, r3, #2
 8004110:	58eb      	ldr	r3, [r5, r3]
 8004112:	0022      	movs	r2, r4
 8004114:	0039      	movs	r1, r7
 8004116:	689b      	ldr	r3, [r3, #8]
 8004118:	4798      	blx	r3
          USBD_CtlSendData(pdev, (uint8_t *)(void *)hcdc->data, req->wLength);
 800411a:	0039      	movs	r1, r7
 800411c:	88f2      	ldrh	r2, [r6, #6]
            USBD_CtlSendData(pdev, &ifalt, 1U);
 800411e:	0028      	movs	r0, r5
 8004120:	f000 fcc2 	bl	8004aa8 <USBD_CtlSendData>
 8004124:	e009      	b.n	800413a <USBD_CDC_Setup+0x62>
          hcdc->CmdOpCode = req->bRequest;
 8004126:	2380      	movs	r3, #128	; 0x80
 8004128:	009b      	lsls	r3, r3, #2
 800412a:	54f8      	strb	r0, [r7, r3]
          hcdc->CmdLength = (uint8_t)req->wLength;
 800412c:	4b18      	ldr	r3, [pc, #96]	; (8004190 <USBD_CDC_Setup+0xb8>)
          USBD_CtlPrepareRx(pdev, (uint8_t *)(void *)hcdc->data, req->wLength);
 800412e:	0022      	movs	r2, r4
          hcdc->CmdLength = (uint8_t)req->wLength;
 8004130:	54fc      	strb	r4, [r7, r3]
          USBD_CtlPrepareRx(pdev, (uint8_t *)(void *)hcdc->data, req->wLength);
 8004132:	0039      	movs	r1, r7
 8004134:	0028      	movs	r0, r5
 8004136:	f000 fccd 	bl	8004ad4 <USBD_CtlPrepareRx>
  uint8_t ret = USBD_OK;
 800413a:	2000      	movs	r0, #0
}
 800413c:	bdfe      	pop	{r1, r2, r3, r4, r5, r6, r7, pc}
        ((USBD_CDC_ItfTypeDef *)pdev->pUserData)->Control(req->bRequest,
 800413e:	23af      	movs	r3, #175	; 0xaf
 8004140:	009b      	lsls	r3, r3, #2
 8004142:	58eb      	ldr	r3, [r5, r3]
 8004144:	0022      	movs	r2, r4
 8004146:	689b      	ldr	r3, [r3, #8]
 8004148:	0031      	movs	r1, r6
 800414a:	4798      	blx	r3
 800414c:	e7f5      	b.n	800413a <USBD_CDC_Setup+0x62>
      switch (req->bRequest)
 800414e:	7877      	ldrb	r7, [r6, #1]
 8004150:	2f0a      	cmp	r7, #10
 8004152:	d00b      	beq.n	800416c <USBD_CDC_Setup+0x94>
 8004154:	2f0b      	cmp	r7, #11
 8004156:	d010      	beq.n	800417a <USBD_CDC_Setup+0xa2>
 8004158:	2f00      	cmp	r7, #0
 800415a:	d113      	bne.n	8004184 <USBD_CDC_Setup+0xac>
          if (pdev->dev_state == USBD_STATE_CONFIGURED)
 800415c:	23a7      	movs	r3, #167	; 0xa7
 800415e:	009b      	lsls	r3, r3, #2
 8004160:	5ceb      	ldrb	r3, [r5, r3]
 8004162:	2b03      	cmp	r3, #3
 8004164:	d10e      	bne.n	8004184 <USBD_CDC_Setup+0xac>
            USBD_CtlSendData(pdev, (uint8_t *)(void *)&status_info, 2U);
 8004166:	2202      	movs	r2, #2
 8004168:	0001      	movs	r1, r0
 800416a:	e7d8      	b.n	800411e <USBD_CDC_Setup+0x46>
          if (pdev->dev_state == USBD_STATE_CONFIGURED)
 800416c:	23a7      	movs	r3, #167	; 0xa7
 800416e:	009b      	lsls	r3, r3, #2
 8004170:	5ceb      	ldrb	r3, [r5, r3]
 8004172:	2b03      	cmp	r3, #3
 8004174:	d106      	bne.n	8004184 <USBD_CDC_Setup+0xac>
            USBD_CtlSendData(pdev, &ifalt, 1U);
 8004176:	2201      	movs	r2, #1
 8004178:	e7d1      	b.n	800411e <USBD_CDC_Setup+0x46>
          if (pdev->dev_state != USBD_STATE_CONFIGURED)
 800417a:	23a7      	movs	r3, #167	; 0xa7
 800417c:	009b      	lsls	r3, r3, #2
 800417e:	5ceb      	ldrb	r3, [r5, r3]
 8004180:	2b03      	cmp	r3, #3
 8004182:	d0da      	beq.n	800413a <USBD_CDC_Setup+0x62>
          USBD_CtlError(pdev, req);
 8004184:	0028      	movs	r0, r5
 8004186:	0031      	movs	r1, r6
 8004188:	f000 fc67 	bl	8004a5a <USBD_CtlError>
          ret = USBD_FAIL;
 800418c:	2002      	movs	r0, #2
          break;
 800418e:	e7d5      	b.n	800413c <USBD_CDC_Setup+0x64>
 8004190:	00000201 	.word	0x00000201

08004194 <USBD_CDC_DeInit>:
{
 8004194:	b570      	push	{r4, r5, r6, lr}
 8004196:	0004      	movs	r4, r0
  pdev->ep_in[CDC_IN_EP & 0xFU].is_used = 0U;
 8004198:	2500      	movs	r5, #0
  USBD_LL_CloseEP(pdev, CDC_IN_EP);
 800419a:	2181      	movs	r1, #129	; 0x81
 800419c:	f000 fff2 	bl	8005184 <USBD_LL_CloseEP>
  USBD_LL_CloseEP(pdev, CDC_OUT_EP);
 80041a0:	2101      	movs	r1, #1
  pdev->ep_in[CDC_IN_EP & 0xFU].is_used = 0U;
 80041a2:	62e5      	str	r5, [r4, #44]	; 0x2c
  USBD_LL_CloseEP(pdev, CDC_OUT_EP);
 80041a4:	0020      	movs	r0, r4
 80041a6:	f000 ffed 	bl	8005184 <USBD_LL_CloseEP>
  pdev->ep_out[CDC_OUT_EP & 0xFU].is_used = 0U;
 80041aa:	0023      	movs	r3, r4
  if (pdev->pClassData != NULL)
 80041ac:	26ae      	movs	r6, #174	; 0xae
  pdev->ep_out[CDC_OUT_EP & 0xFU].is_used = 0U;
 80041ae:	33fc      	adds	r3, #252	; 0xfc
 80041b0:	671d      	str	r5, [r3, #112]	; 0x70
  USBD_LL_CloseEP(pdev, CDC_CMD_EP);
 80041b2:	2182      	movs	r1, #130	; 0x82
 80041b4:	0020      	movs	r0, r4
  if (pdev->pClassData != NULL)
 80041b6:	00b6      	lsls	r6, r6, #2
  USBD_LL_CloseEP(pdev, CDC_CMD_EP);
 80041b8:	f000 ffe4 	bl	8005184 <USBD_LL_CloseEP>
  if (pdev->pClassData != NULL)
 80041bc:	59a3      	ldr	r3, [r4, r6]
  pdev->ep_in[CDC_CMD_EP & 0xFU].is_used = 0U;
 80041be:	6425      	str	r5, [r4, #64]	; 0x40
  if (pdev->pClassData != NULL)
 80041c0:	42ab      	cmp	r3, r5
 80041c2:	d008      	beq.n	80041d6 <USBD_CDC_DeInit+0x42>
    ((USBD_CDC_ItfTypeDef *)pdev->pUserData)->DeInit();
 80041c4:	23af      	movs	r3, #175	; 0xaf
 80041c6:	009b      	lsls	r3, r3, #2
 80041c8:	58e3      	ldr	r3, [r4, r3]
 80041ca:	685b      	ldr	r3, [r3, #4]
 80041cc:	4798      	blx	r3
    USBD_free(pdev->pClassData);
 80041ce:	59a0      	ldr	r0, [r4, r6]
 80041d0:	f001 f856 	bl	8005280 <USBD_static_free>
    pdev->pClassData = NULL;
 80041d4:	51a5      	str	r5, [r4, r6]
}
 80041d6:	2000      	movs	r0, #0
 80041d8:	bd70      	pop	{r4, r5, r6, pc}

080041da <USBD_CDC_Init>:
{
 80041da:	b5f7      	push	{r0, r1, r2, r4, r5, r6, r7, lr}
 80041dc:	0006      	movs	r6, r0
  if (pdev->dev_speed == USBD_SPEED_HIGH)
 80041de:	7c03      	ldrb	r3, [r0, #16]
{
 80041e0:	0004      	movs	r4, r0
 80041e2:	36fc      	adds	r6, #252	; 0xfc
  if (pdev->dev_speed == USBD_SPEED_HIGH)
 80041e4:	2b00      	cmp	r3, #0
 80041e6:	d141      	bne.n	800426c <USBD_CDC_Init+0x92>
    USBD_LL_OpenEP(pdev, CDC_IN_EP, USBD_EP_TYPE_BULK,
 80041e8:	2380      	movs	r3, #128	; 0x80
 80041ea:	2202      	movs	r2, #2
 80041ec:	009b      	lsls	r3, r3, #2
 80041ee:	2181      	movs	r1, #129	; 0x81
 80041f0:	f000 ffb6 	bl	8005160 <USBD_LL_OpenEP>
    pdev->ep_in[CDC_IN_EP & 0xFU].is_used = 1U;
 80041f4:	2501      	movs	r5, #1
    USBD_LL_OpenEP(pdev, CDC_OUT_EP, USBD_EP_TYPE_BULK,
 80041f6:	2380      	movs	r3, #128	; 0x80
    pdev->ep_in[CDC_IN_EP & 0xFU].is_used = 1U;
 80041f8:	62e5      	str	r5, [r4, #44]	; 0x2c
    USBD_LL_OpenEP(pdev, CDC_OUT_EP, USBD_EP_TYPE_BULK,
 80041fa:	009b      	lsls	r3, r3, #2
    USBD_LL_OpenEP(pdev, CDC_OUT_EP, USBD_EP_TYPE_BULK,
 80041fc:	0029      	movs	r1, r5
 80041fe:	2202      	movs	r2, #2
 8004200:	0020      	movs	r0, r4
 8004202:	f000 ffad 	bl	8005160 <USBD_LL_OpenEP>
    pdev->ep_out[CDC_OUT_EP & 0xFU].is_used = 1U;
 8004206:	6735      	str	r5, [r6, #112]	; 0x70
  USBD_LL_OpenEP(pdev, CDC_CMD_EP, USBD_EP_TYPE_INTR, CDC_CMD_PACKET_SIZE);
 8004208:	2308      	movs	r3, #8
 800420a:	2203      	movs	r2, #3
 800420c:	2182      	movs	r1, #130	; 0x82
 800420e:	0020      	movs	r0, r4
 8004210:	f000 ffa6 	bl	8005160 <USBD_LL_OpenEP>
  pdev->ep_in[CDC_CMD_EP & 0xFU].is_used = 1U;
 8004214:	2601      	movs	r6, #1
  pdev->pClassData = USBD_malloc(sizeof(USBD_CDC_HandleTypeDef));
 8004216:	2087      	movs	r0, #135	; 0x87
  pdev->ep_in[CDC_CMD_EP & 0xFU].is_used = 1U;
 8004218:	6426      	str	r6, [r4, #64]	; 0x40
  pdev->pClassData = USBD_malloc(sizeof(USBD_CDC_HandleTypeDef));
 800421a:	0080      	lsls	r0, r0, #2
 800421c:	25ae      	movs	r5, #174	; 0xae
 800421e:	f001 f82b 	bl	8005278 <USBD_static_malloc>
  memset(pdev->pClassData,0,sizeof(USBD_CDC_HandleTypeDef)); // THIS LINE WAS ADDED
 8004222:	2287      	movs	r2, #135	; 0x87
  pdev->pClassData = USBD_malloc(sizeof(USBD_CDC_HandleTypeDef));
 8004224:	00ad      	lsls	r5, r5, #2
 8004226:	5160      	str	r0, [r4, r5]
  memset(pdev->pClassData,0,sizeof(USBD_CDC_HandleTypeDef)); // THIS LINE WAS ADDED
 8004228:	0092      	lsls	r2, r2, #2
 800422a:	2100      	movs	r1, #0
 800422c:	f001 f85d 	bl	80052ea <memset>
  if (pdev->pClassData == NULL)
 8004230:	5965      	ldr	r5, [r4, r5]
    ret = 1U;
 8004232:	0030      	movs	r0, r6
  if (pdev->pClassData == NULL)
 8004234:	2d00      	cmp	r5, #0
 8004236:	d018      	beq.n	800426a <USBD_CDC_Init+0x90>
    ((USBD_CDC_ItfTypeDef *)pdev->pUserData)->Init();
 8004238:	23af      	movs	r3, #175	; 0xaf
 800423a:	009b      	lsls	r3, r3, #2
 800423c:	58e3      	ldr	r3, [r4, r3]
    hcdc->TxState = 0U;
 800423e:	2700      	movs	r7, #0
    ((USBD_CDC_ItfTypeDef *)pdev->pUserData)->Init();
 8004240:	681b      	ldr	r3, [r3, #0]
 8004242:	4798      	blx	r3
    hcdc->TxState = 0U;
 8004244:	2385      	movs	r3, #133	; 0x85
 8004246:	2281      	movs	r2, #129	; 0x81
 8004248:	009b      	lsls	r3, r3, #2
 800424a:	50ef      	str	r7, [r5, r3]
    hcdc->RxState = 0U;
 800424c:	3304      	adds	r3, #4
 800424e:	50ef      	str	r7, [r5, r3]
    if (pdev->dev_speed == USBD_SPEED_HIGH)
 8004250:	7c23      	ldrb	r3, [r4, #16]
 8004252:	0092      	lsls	r2, r2, #2
 8004254:	9301      	str	r3, [sp, #4]
 8004256:	42bb      	cmp	r3, r7
 8004258:	d111      	bne.n	800427e <USBD_CDC_Init+0xa4>
      USBD_LL_PrepareReceive(pdev, CDC_OUT_EP, hcdc->RxBuffer,
 800425a:	2380      	movs	r3, #128	; 0x80
 800425c:	58aa      	ldr	r2, [r5, r2]
 800425e:	009b      	lsls	r3, r3, #2
 8004260:	0031      	movs	r1, r6
 8004262:	0020      	movs	r0, r4
 8004264:	f000 fff0 	bl	8005248 <USBD_LL_PrepareReceive>
  uint8_t ret = 0U;
 8004268:	9801      	ldr	r0, [sp, #4]
}
 800426a:	bdfe      	pop	{r1, r2, r3, r4, r5, r6, r7, pc}
    pdev->ep_in[CDC_IN_EP & 0xFU].is_used = 1U;
 800426c:	2501      	movs	r5, #1
    USBD_LL_OpenEP(pdev, CDC_IN_EP, USBD_EP_TYPE_BULK,
 800426e:	2340      	movs	r3, #64	; 0x40
 8004270:	2202      	movs	r2, #2
 8004272:	2181      	movs	r1, #129	; 0x81
 8004274:	f000 ff74 	bl	8005160 <USBD_LL_OpenEP>
    pdev->ep_in[CDC_IN_EP & 0xFU].is_used = 1U;
 8004278:	62e5      	str	r5, [r4, #44]	; 0x2c
    USBD_LL_OpenEP(pdev, CDC_OUT_EP, USBD_EP_TYPE_BULK,
 800427a:	2340      	movs	r3, #64	; 0x40
 800427c:	e7be      	b.n	80041fc <USBD_CDC_Init+0x22>
      USBD_LL_PrepareReceive(pdev, CDC_OUT_EP, hcdc->RxBuffer,
 800427e:	2340      	movs	r3, #64	; 0x40
 8004280:	58aa      	ldr	r2, [r5, r2]
 8004282:	0031      	movs	r1, r6
 8004284:	0020      	movs	r0, r4
 8004286:	f000 ffdf 	bl	8005248 <USBD_LL_PrepareReceive>
  uint8_t ret = 0U;
 800428a:	0038      	movs	r0, r7
 800428c:	e7ed      	b.n	800426a <USBD_CDC_Init+0x90>

0800428e <USBD_CDC_RegisterInterface>:
  * @retval status
  */
uint8_t  USBD_CDC_RegisterInterface(USBD_HandleTypeDef   *pdev,
                                    USBD_CDC_ItfTypeDef *fops)
{
  uint8_t  ret = USBD_FAIL;
 800428e:	2302      	movs	r3, #2

  if (fops != NULL)
 8004290:	2900      	cmp	r1, #0
 8004292:	d003      	beq.n	800429c <USBD_CDC_RegisterInterface+0xe>
  {
    pdev->pUserData = fops;
 8004294:	23af      	movs	r3, #175	; 0xaf
 8004296:	009b      	lsls	r3, r3, #2
 8004298:	50c1      	str	r1, [r0, r3]
    ret = USBD_OK;
 800429a:	2300      	movs	r3, #0
  }

  return ret;
}
 800429c:	0018      	movs	r0, r3
 800429e:	4770      	bx	lr

080042a0 <USBD_CDC_SetTxBuffer>:
  */
uint8_t  USBD_CDC_SetTxBuffer(USBD_HandleTypeDef   *pdev,
                              uint8_t  *pbuff,
                              uint16_t length)
{
  USBD_CDC_HandleTypeDef   *hcdc = (USBD_CDC_HandleTypeDef *) pdev->pClassData;
 80042a0:	23ae      	movs	r3, #174	; 0xae
 80042a2:	009b      	lsls	r3, r3, #2
 80042a4:	58c3      	ldr	r3, [r0, r3]

  hcdc->TxBuffer = pbuff;
 80042a6:	2082      	movs	r0, #130	; 0x82
 80042a8:	0080      	lsls	r0, r0, #2
 80042aa:	5019      	str	r1, [r3, r0]
  hcdc->TxLength = length;
 80042ac:	2184      	movs	r1, #132	; 0x84
 80042ae:	0089      	lsls	r1, r1, #2

  return USBD_OK;
}
 80042b0:	2000      	movs	r0, #0
  hcdc->TxLength = length;
 80042b2:	505a      	str	r2, [r3, r1]
}
 80042b4:	4770      	bx	lr

080042b6 <USBD_CDC_SetRxBuffer>:
uint8_t  USBD_CDC_SetRxBuffer(USBD_HandleTypeDef   *pdev,
                              uint8_t  *pbuff)
{
  USBD_CDC_HandleTypeDef   *hcdc = (USBD_CDC_HandleTypeDef *) pdev->pClassData;

  hcdc->RxBuffer = pbuff;
 80042b6:	23ae      	movs	r3, #174	; 0xae
 80042b8:	009b      	lsls	r3, r3, #2
 80042ba:	58c2      	ldr	r2, [r0, r3]
 80042bc:	3bb4      	subs	r3, #180	; 0xb4

  return USBD_OK;
}
 80042be:	2000      	movs	r0, #0
  hcdc->RxBuffer = pbuff;
 80042c0:	50d1      	str	r1, [r2, r3]
}
 80042c2:	4770      	bx	lr

080042c4 <USBD_CDC_TransmitPacket>:
  * @param  pdev: device instance
  * @retval status
  */
uint8_t  USBD_CDC_TransmitPacket(USBD_HandleTypeDef *pdev)
{
  USBD_CDC_HandleTypeDef   *hcdc = (USBD_CDC_HandleTypeDef *) pdev->pClassData;
 80042c4:	23ae      	movs	r3, #174	; 0xae
 80042c6:	009b      	lsls	r3, r3, #2
 80042c8:	58c2      	ldr	r2, [r0, r3]
{
 80042ca:	b510      	push	{r4, lr}
      return USBD_BUSY;
    }
  }
  else
  {
    return USBD_FAIL;
 80042cc:	2302      	movs	r3, #2
  if (pdev->pClassData != NULL)
 80042ce:	2a00      	cmp	r2, #0
 80042d0:	d012      	beq.n	80042f8 <USBD_CDC_TransmitPacket+0x34>
    if (hcdc->TxState == 0U)
 80042d2:	2185      	movs	r1, #133	; 0x85
 80042d4:	0089      	lsls	r1, r1, #2
 80042d6:	5854      	ldr	r4, [r2, r1]
 80042d8:	3b01      	subs	r3, #1
 80042da:	2c00      	cmp	r4, #0
 80042dc:	d10c      	bne.n	80042f8 <USBD_CDC_TransmitPacket+0x34>
      hcdc->TxState = 1U;
 80042de:	5053      	str	r3, [r2, r1]
      pdev->ep_in[CDC_IN_EP & 0xFU].total_length = hcdc->TxLength;
 80042e0:	2384      	movs	r3, #132	; 0x84
 80042e2:	009b      	lsls	r3, r3, #2
 80042e4:	58d3      	ldr	r3, [r2, r3]
      USBD_LL_Transmit(pdev, CDC_IN_EP, hcdc->TxBuffer,
 80042e6:	390c      	subs	r1, #12
 80042e8:	5852      	ldr	r2, [r2, r1]
 80042ea:	3988      	subs	r1, #136	; 0x88
      pdev->ep_in[CDC_IN_EP & 0xFU].total_length = hcdc->TxLength;
 80042ec:	6303      	str	r3, [r0, #48]	; 0x30
      USBD_LL_Transmit(pdev, CDC_IN_EP, hcdc->TxBuffer,
 80042ee:	39ff      	subs	r1, #255	; 0xff
 80042f0:	b29b      	uxth	r3, r3
 80042f2:	f000 ff99 	bl	8005228 <USBD_LL_Transmit>
      return USBD_OK;
 80042f6:	0023      	movs	r3, r4
  }
}
 80042f8:	0018      	movs	r0, r3
 80042fa:	bd10      	pop	{r4, pc}

080042fc <USBD_CDC_ReceivePacket>:
  * @param  pdev: device instance
  * @retval status
  */
uint8_t  USBD_CDC_ReceivePacket(USBD_HandleTypeDef *pdev)
{
  USBD_CDC_HandleTypeDef   *hcdc = (USBD_CDC_HandleTypeDef *) pdev->pClassData;
 80042fc:	23ae      	movs	r3, #174	; 0xae
 80042fe:	009b      	lsls	r3, r3, #2
 8004300:	58c2      	ldr	r2, [r0, r3]
{
 8004302:	b510      	push	{r4, lr}
    }
    return USBD_OK;
  }
  else
  {
    return USBD_FAIL;
 8004304:	2402      	movs	r4, #2
  if (pdev->pClassData != NULL)
 8004306:	2a00      	cmp	r2, #0
 8004308:	d008      	beq.n	800431c <USBD_CDC_ReceivePacket+0x20>
    if (pdev->dev_speed == USBD_SPEED_HIGH)
 800430a:	7c04      	ldrb	r4, [r0, #16]
 800430c:	3bb4      	subs	r3, #180	; 0xb4
 800430e:	58d2      	ldr	r2, [r2, r3]
 8004310:	2c00      	cmp	r4, #0
 8004312:	d105      	bne.n	8004320 <USBD_CDC_ReceivePacket+0x24>
      USBD_LL_PrepareReceive(pdev,
 8004314:	3b04      	subs	r3, #4
 8004316:	2101      	movs	r1, #1
 8004318:	f000 ff96 	bl	8005248 <USBD_LL_PrepareReceive>
  }
}
 800431c:	0020      	movs	r0, r4
 800431e:	bd10      	pop	{r4, pc}
      USBD_LL_PrepareReceive(pdev,
 8004320:	2340      	movs	r3, #64	; 0x40
 8004322:	2101      	movs	r1, #1
 8004324:	f000 ff90 	bl	8005248 <USBD_LL_PrepareReceive>
    return USBD_OK;
 8004328:	2400      	movs	r4, #0
 800432a:	e7f7      	b.n	800431c <USBD_CDC_ReceivePacket+0x20>

0800432c <USBD_Init>:
 800432c:	b510      	push	{r4, lr}
 800432e:	2302      	movs	r3, #2
 8004330:	2800      	cmp	r0, #0
 8004332:	d013      	beq.n	800435c <USBD_Init+0x30>
 8004334:	23ad      	movs	r3, #173	; 0xad
 8004336:	009b      	lsls	r3, r3, #2
 8004338:	58c4      	ldr	r4, [r0, r3]
 800433a:	2c00      	cmp	r4, #0
 800433c:	d001      	beq.n	8004342 <USBD_Init+0x16>
 800433e:	2400      	movs	r4, #0
 8004340:	50c4      	str	r4, [r0, r3]
 8004342:	2900      	cmp	r1, #0
 8004344:	d002      	beq.n	800434c <USBD_Init+0x20>
 8004346:	23ac      	movs	r3, #172	; 0xac
 8004348:	009b      	lsls	r3, r3, #2
 800434a:	50c1      	str	r1, [r0, r3]
 800434c:	23a7      	movs	r3, #167	; 0xa7
 800434e:	2101      	movs	r1, #1
 8004350:	009b      	lsls	r3, r3, #2
 8004352:	54c1      	strb	r1, [r0, r3]
 8004354:	7002      	strb	r2, [r0, #0]
 8004356:	f000 fe93 	bl	8005080 <USBD_LL_Init>
 800435a:	2300      	movs	r3, #0
 800435c:	0018      	movs	r0, r3
 800435e:	bd10      	pop	{r4, pc}

08004360 <USBD_DeInit>:
 8004360:	23a7      	movs	r3, #167	; 0xa7
 8004362:	2201      	movs	r2, #1
 8004364:	009b      	lsls	r3, r3, #2
 8004366:	b510      	push	{r4, lr}
 8004368:	54c2      	strb	r2, [r0, r3]
 800436a:	6843      	ldr	r3, [r0, #4]
 800436c:	0004      	movs	r4, r0
 800436e:	b2d9      	uxtb	r1, r3
 8004370:	23ad      	movs	r3, #173	; 0xad
 8004372:	009b      	lsls	r3, r3, #2
 8004374:	58c3      	ldr	r3, [r0, r3]
 8004376:	685b      	ldr	r3, [r3, #4]
 8004378:	4798      	blx	r3
 800437a:	0020      	movs	r0, r4
 800437c:	f000 fee0 	bl	8005140 <USBD_LL_Stop>
 8004380:	0020      	movs	r0, r4
 8004382:	f000 febd 	bl	8005100 <USBD_LL_DeInit>
 8004386:	2000      	movs	r0, #0
 8004388:	bd10      	pop	{r4, pc}

0800438a <USBD_RegisterClass>:
 800438a:	2302      	movs	r3, #2
 800438c:	2900      	cmp	r1, #0
 800438e:	d003      	beq.n	8004398 <USBD_RegisterClass+0xe>
 8004390:	23ad      	movs	r3, #173	; 0xad
 8004392:	009b      	lsls	r3, r3, #2
 8004394:	50c1      	str	r1, [r0, r3]
 8004396:	2300      	movs	r3, #0
 8004398:	0018      	movs	r0, r3
 800439a:	4770      	bx	lr

0800439c <USBD_Start>:
 800439c:	b510      	push	{r4, lr}
 800439e:	f000 febf 	bl	8005120 <USBD_LL_Start>
 80043a2:	2000      	movs	r0, #0
 80043a4:	bd10      	pop	{r4, pc}

080043a6 <USBD_Stop>:
 80043a6:	6843      	ldr	r3, [r0, #4]
 80043a8:	b510      	push	{r4, lr}
 80043aa:	b2d9      	uxtb	r1, r3
 80043ac:	23ad      	movs	r3, #173	; 0xad
 80043ae:	0004      	movs	r4, r0
 80043b0:	009b      	lsls	r3, r3, #2
 80043b2:	58c3      	ldr	r3, [r0, r3]
 80043b4:	685b      	ldr	r3, [r3, #4]
 80043b6:	4798      	blx	r3
 80043b8:	0020      	movs	r0, r4
 80043ba:	f000 fec1 	bl	8005140 <USBD_LL_Stop>
 80043be:	2000      	movs	r0, #0
 80043c0:	bd10      	pop	{r4, pc}

080043c2 <USBD_SetClassConfig>:
 80043c2:	23ad      	movs	r3, #173	; 0xad
 80043c4:	009b      	lsls	r3, r3, #2
 80043c6:	58c3      	ldr	r3, [r0, r3]
 80043c8:	b510      	push	{r4, lr}
 80043ca:	2b00      	cmp	r3, #0
 80043cc:	d101      	bne.n	80043d2 <USBD_SetClassConfig+0x10>
 80043ce:	2002      	movs	r0, #2
 80043d0:	bd10      	pop	{r4, pc}
 80043d2:	681b      	ldr	r3, [r3, #0]
 80043d4:	4798      	blx	r3
 80043d6:	2800      	cmp	r0, #0
 80043d8:	d0fa      	beq.n	80043d0 <USBD_SetClassConfig+0xe>
 80043da:	e7f8      	b.n	80043ce <USBD_SetClassConfig+0xc>

080043dc <USBD_ClrClassConfig>:
 80043dc:	23ad      	movs	r3, #173	; 0xad
 80043de:	b510      	push	{r4, lr}
 80043e0:	009b      	lsls	r3, r3, #2
 80043e2:	58c3      	ldr	r3, [r0, r3]
 80043e4:	685b      	ldr	r3, [r3, #4]
 80043e6:	4798      	blx	r3
 80043e8:	2000      	movs	r0, #0
 80043ea:	bd10      	pop	{r4, pc}

080043ec <USBD_LL_SetupStage>:
 80043ec:	23aa      	movs	r3, #170	; 0xaa
 80043ee:	009b      	lsls	r3, r3, #2
 80043f0:	b570      	push	{r4, r5, r6, lr}
 80043f2:	18c5      	adds	r5, r0, r3
 80043f4:	0004      	movs	r4, r0
 80043f6:	0028      	movs	r0, r5
 80043f8:	f000 fb1b 	bl	8004a32 <USBD_ParseSetupRequest>
 80043fc:	23a5      	movs	r3, #165	; 0xa5
 80043fe:	2201      	movs	r2, #1
 8004400:	009b      	lsls	r3, r3, #2
 8004402:	50e2      	str	r2, [r4, r3]
 8004404:	4b11      	ldr	r3, [pc, #68]	; (800444c <USBD_LL_SetupStage+0x60>)
 8004406:	5ae2      	ldrh	r2, [r4, r3]
 8004408:	3b16      	subs	r3, #22
 800440a:	50e2      	str	r2, [r4, r3]
 800440c:	3310      	adds	r3, #16
 800440e:	5ce1      	ldrb	r1, [r4, r3]
 8004410:	231f      	movs	r3, #31
 8004412:	400b      	ands	r3, r1
 8004414:	2b01      	cmp	r3, #1
 8004416:	d00f      	beq.n	8004438 <USBD_LL_SetupStage+0x4c>
 8004418:	2b00      	cmp	r3, #0
 800441a:	d007      	beq.n	800442c <USBD_LL_SetupStage+0x40>
 800441c:	2b02      	cmp	r3, #2
 800441e:	d010      	beq.n	8004442 <USBD_LL_SetupStage+0x56>
 8004420:	237f      	movs	r3, #127	; 0x7f
 8004422:	0020      	movs	r0, r4
 8004424:	4399      	bics	r1, r3
 8004426:	f000 febd 	bl	80051a4 <USBD_LL_StallEP>
 800442a:	e003      	b.n	8004434 <USBD_LL_SetupStage+0x48>
 800442c:	0029      	movs	r1, r5
 800442e:	0020      	movs	r0, r4
 8004430:	f000 f914 	bl	800465c <USBD_StdDevReq>
 8004434:	2000      	movs	r0, #0
 8004436:	bd70      	pop	{r4, r5, r6, pc}
 8004438:	0029      	movs	r1, r5
 800443a:	0020      	movs	r0, r4
 800443c:	f000 fa3c 	bl	80048b8 <USBD_StdItfReq>
 8004440:	e7f8      	b.n	8004434 <USBD_LL_SetupStage+0x48>
 8004442:	0029      	movs	r1, r5
 8004444:	0020      	movs	r0, r4
 8004446:	f000 fa61 	bl	800490c <USBD_StdEPReq>
 800444a:	e7f3      	b.n	8004434 <USBD_LL_SetupStage+0x48>
 800444c:	000002ae 	.word	0x000002ae

08004450 <USBD_LL_DataOutStage>:
 8004450:	b570      	push	{r4, r5, r6, lr}
 8004452:	0004      	movs	r4, r0
 8004454:	0015      	movs	r5, r2
 8004456:	2900      	cmp	r1, #0
 8004458:	d130      	bne.n	80044bc <USBD_LL_DataOutStage+0x6c>
 800445a:	23a5      	movs	r3, #165	; 0xa5
 800445c:	009b      	lsls	r3, r3, #2
 800445e:	58c2      	ldr	r2, [r0, r3]
 8004460:	2a03      	cmp	r2, #3
 8004462:	d123      	bne.n	80044ac <USBD_LL_DataOutStage+0x5c>
 8004464:	0002      	movs	r2, r0
 8004466:	3255      	adds	r2, #85	; 0x55
 8004468:	32ff      	adds	r2, #255	; 0xff
 800446a:	68d3      	ldr	r3, [r2, #12]
 800446c:	6910      	ldr	r0, [r2, #16]
 800446e:	4283      	cmp	r3, r0
 8004470:	d90b      	bls.n	800448a <USBD_LL_DataOutStage+0x3a>
 8004472:	1a1b      	subs	r3, r3, r0
 8004474:	60d3      	str	r3, [r2, #12]
 8004476:	b282      	uxth	r2, r0
 8004478:	4298      	cmp	r0, r3
 800447a:	d900      	bls.n	800447e <USBD_LL_DataOutStage+0x2e>
 800447c:	b29a      	uxth	r2, r3
 800447e:	0029      	movs	r1, r5
 8004480:	0020      	movs	r0, r4
 8004482:	f000 fb37 	bl	8004af4 <USBD_CtlContinueRx>
 8004486:	2500      	movs	r5, #0
 8004488:	e016      	b.n	80044b8 <USBD_LL_DataOutStage+0x68>
 800448a:	23ad      	movs	r3, #173	; 0xad
 800448c:	009b      	lsls	r3, r3, #2
 800448e:	58e3      	ldr	r3, [r4, r3]
 8004490:	691b      	ldr	r3, [r3, #16]
 8004492:	2b00      	cmp	r3, #0
 8004494:	d006      	beq.n	80044a4 <USBD_LL_DataOutStage+0x54>
 8004496:	22a7      	movs	r2, #167	; 0xa7
 8004498:	0092      	lsls	r2, r2, #2
 800449a:	5ca2      	ldrb	r2, [r4, r2]
 800449c:	2a03      	cmp	r2, #3
 800449e:	d101      	bne.n	80044a4 <USBD_LL_DataOutStage+0x54>
 80044a0:	0020      	movs	r0, r4
 80044a2:	4798      	blx	r3
 80044a4:	0020      	movs	r0, r4
 80044a6:	f000 fb2d 	bl	8004b04 <USBD_CtlSendStatus>
 80044aa:	e7ec      	b.n	8004486 <USBD_LL_DataOutStage+0x36>
 80044ac:	000d      	movs	r5, r1
 80044ae:	2a05      	cmp	r2, #5
 80044b0:	d102      	bne.n	80044b8 <USBD_LL_DataOutStage+0x68>
 80044b2:	50e1      	str	r1, [r4, r3]
 80044b4:	f000 fe76 	bl	80051a4 <USBD_LL_StallEP>
 80044b8:	0028      	movs	r0, r5
 80044ba:	bd70      	pop	{r4, r5, r6, pc}
 80044bc:	23ad      	movs	r3, #173	; 0xad
 80044be:	009b      	lsls	r3, r3, #2
 80044c0:	58c3      	ldr	r3, [r0, r3]
 80044c2:	2502      	movs	r5, #2
 80044c4:	699b      	ldr	r3, [r3, #24]
 80044c6:	2b00      	cmp	r3, #0
 80044c8:	d0f6      	beq.n	80044b8 <USBD_LL_DataOutStage+0x68>
 80044ca:	22a7      	movs	r2, #167	; 0xa7
 80044cc:	0092      	lsls	r2, r2, #2
 80044ce:	5c82      	ldrb	r2, [r0, r2]
 80044d0:	2a03      	cmp	r2, #3
 80044d2:	d1f1      	bne.n	80044b8 <USBD_LL_DataOutStage+0x68>
 80044d4:	4798      	blx	r3
 80044d6:	e7d6      	b.n	8004486 <USBD_LL_DataOutStage+0x36>

080044d8 <USBD_LL_DataInStage>:
 80044d8:	b5f8      	push	{r3, r4, r5, r6, r7, lr}
 80044da:	000d      	movs	r5, r1
 80044dc:	0004      	movs	r4, r0
 80044de:	0011      	movs	r1, r2
 80044e0:	2d00      	cmp	r5, #0
 80044e2:	d14b      	bne.n	800457c <USBD_LL_DataInStage+0xa4>
 80044e4:	23a5      	movs	r3, #165	; 0xa5
 80044e6:	009b      	lsls	r3, r3, #2
 80044e8:	58c3      	ldr	r3, [r0, r3]
 80044ea:	2b02      	cmp	r3, #2
 80044ec:	d13f      	bne.n	800456e <USBD_LL_DataInStage+0x96>
 80044ee:	6a02      	ldr	r2, [r0, #32]
 80044f0:	6a46      	ldr	r6, [r0, #36]	; 0x24
 80044f2:	42b2      	cmp	r2, r6
 80044f4:	d912      	bls.n	800451c <USBD_LL_DataInStage+0x44>
 80044f6:	1b92      	subs	r2, r2, r6
 80044f8:	6202      	str	r2, [r0, #32]
 80044fa:	b292      	uxth	r2, r2
 80044fc:	f000 fae2 	bl	8004ac4 <USBD_CtlContinueSendData>
 8004500:	002b      	movs	r3, r5
 8004502:	002a      	movs	r2, r5
 8004504:	0029      	movs	r1, r5
 8004506:	0020      	movs	r0, r4
 8004508:	f000 fe9e 	bl	8005248 <USBD_LL_PrepareReceive>
 800450c:	23a8      	movs	r3, #168	; 0xa8
 800450e:	009b      	lsls	r3, r3, #2
 8004510:	5ce2      	ldrb	r2, [r4, r3]
 8004512:	2000      	movs	r0, #0
 8004514:	2a01      	cmp	r2, #1
 8004516:	d100      	bne.n	800451a <USBD_LL_DataInStage+0x42>
 8004518:	54e0      	strb	r0, [r4, r3]
 800451a:	bdf8      	pop	{r3, r4, r5, r6, r7, pc}
 800451c:	69c7      	ldr	r7, [r0, #28]
 800451e:	0031      	movs	r1, r6
 8004520:	0038      	movs	r0, r7
 8004522:	f7fb fe93 	bl	800024c <__aeabi_uidivmod>
 8004526:	1e0d      	subs	r5, r1, #0
 8004528:	d10c      	bne.n	8004544 <USBD_LL_DataInStage+0x6c>
 800452a:	42be      	cmp	r6, r7
 800452c:	d80a      	bhi.n	8004544 <USBD_LL_DataInStage+0x6c>
 800452e:	26a6      	movs	r6, #166	; 0xa6
 8004530:	00b6      	lsls	r6, r6, #2
 8004532:	59a3      	ldr	r3, [r4, r6]
 8004534:	429f      	cmp	r7, r3
 8004536:	d205      	bcs.n	8004544 <USBD_LL_DataInStage+0x6c>
 8004538:	000a      	movs	r2, r1
 800453a:	0020      	movs	r0, r4
 800453c:	f000 fac2 	bl	8004ac4 <USBD_CtlContinueSendData>
 8004540:	51a5      	str	r5, [r4, r6]
 8004542:	e7dd      	b.n	8004500 <USBD_LL_DataInStage+0x28>
 8004544:	23ad      	movs	r3, #173	; 0xad
 8004546:	009b      	lsls	r3, r3, #2
 8004548:	58e3      	ldr	r3, [r4, r3]
 800454a:	68db      	ldr	r3, [r3, #12]
 800454c:	2b00      	cmp	r3, #0
 800454e:	d006      	beq.n	800455e <USBD_LL_DataInStage+0x86>
 8004550:	22a7      	movs	r2, #167	; 0xa7
 8004552:	0092      	lsls	r2, r2, #2
 8004554:	5ca2      	ldrb	r2, [r4, r2]
 8004556:	2a03      	cmp	r2, #3
 8004558:	d101      	bne.n	800455e <USBD_LL_DataInStage+0x86>
 800455a:	0020      	movs	r0, r4
 800455c:	4798      	blx	r3
 800455e:	2180      	movs	r1, #128	; 0x80
 8004560:	0020      	movs	r0, r4
 8004562:	f000 fe1f 	bl	80051a4 <USBD_LL_StallEP>
 8004566:	0020      	movs	r0, r4
 8004568:	f000 fad8 	bl	8004b1c <USBD_CtlReceiveStatus>
 800456c:	e7ce      	b.n	800450c <USBD_LL_DataInStage+0x34>
 800456e:	2204      	movs	r2, #4
 8004570:	4393      	bics	r3, r2
 8004572:	d1cb      	bne.n	800450c <USBD_LL_DataInStage+0x34>
 8004574:	2180      	movs	r1, #128	; 0x80
 8004576:	f000 fe15 	bl	80051a4 <USBD_LL_StallEP>
 800457a:	e7c7      	b.n	800450c <USBD_LL_DataInStage+0x34>
 800457c:	23ad      	movs	r3, #173	; 0xad
 800457e:	009b      	lsls	r3, r3, #2
 8004580:	58c3      	ldr	r3, [r0, r3]
 8004582:	2002      	movs	r0, #2
 8004584:	695b      	ldr	r3, [r3, #20]
 8004586:	2b00      	cmp	r3, #0
 8004588:	d0c7      	beq.n	800451a <USBD_LL_DataInStage+0x42>
 800458a:	22a7      	movs	r2, #167	; 0xa7
 800458c:	0092      	lsls	r2, r2, #2
 800458e:	5ca2      	ldrb	r2, [r4, r2]
 8004590:	2a03      	cmp	r2, #3
 8004592:	d1c2      	bne.n	800451a <USBD_LL_DataInStage+0x42>
 8004594:	0029      	movs	r1, r5
 8004596:	0020      	movs	r0, r4
 8004598:	4798      	blx	r3
 800459a:	2000      	movs	r0, #0
 800459c:	e7bd      	b.n	800451a <USBD_LL_DataInStage+0x42>

0800459e <USBD_LL_Reset>:
 800459e:	2200      	movs	r2, #0
 80045a0:	b570      	push	{r4, r5, r6, lr}
 80045a2:	0004      	movs	r4, r0
 80045a4:	0011      	movs	r1, r2
 80045a6:	2340      	movs	r3, #64	; 0x40
 80045a8:	f000 fdda 	bl	8005160 <USBD_LL_OpenEP>
 80045ac:	0023      	movs	r3, r4
 80045ae:	2501      	movs	r5, #1
 80045b0:	2640      	movs	r6, #64	; 0x40
 80045b2:	33fc      	adds	r3, #252	; 0xfc
 80045b4:	65dd      	str	r5, [r3, #92]	; 0x5c
 80045b6:	669e      	str	r6, [r3, #104]	; 0x68
 80045b8:	2180      	movs	r1, #128	; 0x80
 80045ba:	0033      	movs	r3, r6
 80045bc:	2200      	movs	r2, #0
 80045be:	0020      	movs	r0, r4
 80045c0:	f000 fdce 	bl	8005160 <USBD_LL_OpenEP>
 80045c4:	23a7      	movs	r3, #167	; 0xa7
 80045c6:	2100      	movs	r1, #0
 80045c8:	009b      	lsls	r3, r3, #2
 80045ca:	61a5      	str	r5, [r4, #24]
 80045cc:	6266      	str	r6, [r4, #36]	; 0x24
 80045ce:	54e5      	strb	r5, [r4, r3]
 80045d0:	3b08      	subs	r3, #8
 80045d2:	50e1      	str	r1, [r4, r3]
 80045d4:	3310      	adds	r3, #16
 80045d6:	6061      	str	r1, [r4, #4]
 80045d8:	50e1      	str	r1, [r4, r3]
 80045da:	3314      	adds	r3, #20
 80045dc:	58e3      	ldr	r3, [r4, r3]
 80045de:	428b      	cmp	r3, r1
 80045e0:	d005      	beq.n	80045ee <USBD_LL_Reset+0x50>
 80045e2:	23ad      	movs	r3, #173	; 0xad
 80045e4:	009b      	lsls	r3, r3, #2
 80045e6:	58e3      	ldr	r3, [r4, r3]
 80045e8:	0020      	movs	r0, r4
 80045ea:	685b      	ldr	r3, [r3, #4]
 80045ec:	4798      	blx	r3
 80045ee:	2000      	movs	r0, #0
 80045f0:	bd70      	pop	{r4, r5, r6, pc}

080045f2 <USBD_LL_SetSpeed>:
 80045f2:	7401      	strb	r1, [r0, #16]
 80045f4:	2000      	movs	r0, #0
 80045f6:	4770      	bx	lr

080045f8 <USBD_LL_Suspend>:
 80045f8:	23a7      	movs	r3, #167	; 0xa7
 80045fa:	009b      	lsls	r3, r3, #2
 80045fc:	5cc1      	ldrb	r1, [r0, r3]
 80045fe:	4a03      	ldr	r2, [pc, #12]	; (800460c <USBD_LL_Suspend+0x14>)
 8004600:	5481      	strb	r1, [r0, r2]
 8004602:	2204      	movs	r2, #4
 8004604:	54c2      	strb	r2, [r0, r3]
 8004606:	2000      	movs	r0, #0
 8004608:	4770      	bx	lr
 800460a:	46c0      	nop			; (mov r8, r8)
 800460c:	0000029d 	.word	0x0000029d

08004610 <USBD_LL_Resume>:
 8004610:	23a7      	movs	r3, #167	; 0xa7
 8004612:	009b      	lsls	r3, r3, #2
 8004614:	5cc2      	ldrb	r2, [r0, r3]
 8004616:	2a04      	cmp	r2, #4
 8004618:	d102      	bne.n	8004620 <USBD_LL_Resume+0x10>
 800461a:	4a02      	ldr	r2, [pc, #8]	; (8004624 <USBD_LL_Resume+0x14>)
 800461c:	5c82      	ldrb	r2, [r0, r2]
 800461e:	54c2      	strb	r2, [r0, r3]
 8004620:	2000      	movs	r0, #0
 8004622:	4770      	bx	lr
 8004624:	0000029d 	.word	0x0000029d

08004628 <USBD_LL_SOF>:
 8004628:	23a7      	movs	r3, #167	; 0xa7
 800462a:	b510      	push	{r4, lr}
 800462c:	009b      	lsls	r3, r3, #2
 800462e:	5cc3      	ldrb	r3, [r0, r3]
 8004630:	2b03      	cmp	r3, #3
 8004632:	d106      	bne.n	8004642 <USBD_LL_SOF+0x1a>
 8004634:	23ad      	movs	r3, #173	; 0xad
 8004636:	009b      	lsls	r3, r3, #2
 8004638:	58c3      	ldr	r3, [r0, r3]
 800463a:	69db      	ldr	r3, [r3, #28]
 800463c:	2b00      	cmp	r3, #0
 800463e:	d000      	beq.n	8004642 <USBD_LL_SOF+0x1a>
 8004640:	4798      	blx	r3
 8004642:	2000      	movs	r0, #0
 8004644:	bd10      	pop	{r4, pc}

08004646 <USBD_CtlError.constprop.1>:
 8004646:	b510      	push	{r4, lr}
 8004648:	0004      	movs	r4, r0
 800464a:	2180      	movs	r1, #128	; 0x80
 800464c:	f000 fdaa 	bl	80051a4 <USBD_LL_StallEP>
 8004650:	2100      	movs	r1, #0
 8004652:	0020      	movs	r0, r4
 8004654:	f000 fda6 	bl	80051a4 <USBD_LL_StallEP>
 8004658:	bd10      	pop	{r4, pc}
	...

0800465c <USBD_StdDevReq>:
 800465c:	2260      	movs	r2, #96	; 0x60
 800465e:	780b      	ldrb	r3, [r1, #0]
 8004660:	b573      	push	{r0, r1, r4, r5, r6, lr}
 8004662:	4013      	ands	r3, r2
 8004664:	0004      	movs	r4, r0
 8004666:	000d      	movs	r5, r1
 8004668:	2b20      	cmp	r3, #32
 800466a:	d014      	beq.n	8004696 <USBD_StdDevReq+0x3a>
 800466c:	2b40      	cmp	r3, #64	; 0x40
 800466e:	d012      	beq.n	8004696 <USBD_StdDevReq+0x3a>
 8004670:	2b00      	cmp	r3, #0
 8004672:	d000      	beq.n	8004676 <USBD_StdDevReq+0x1a>
 8004674:	e090      	b.n	8004798 <USBD_StdDevReq+0x13c>
 8004676:	7848      	ldrb	r0, [r1, #1]
 8004678:	2809      	cmp	r0, #9
 800467a:	d900      	bls.n	800467e <USBD_StdDevReq+0x22>
 800467c:	e08c      	b.n	8004798 <USBD_StdDevReq+0x13c>
 800467e:	f7fb fd55 	bl	800012c <__gnu_thumb1_case_uhi>
 8004682:	00e9      	.short	0x00e9
 8004684:	008b0107 	.word	0x008b0107
 8004688:	008b00ff 	.word	0x008b00ff
 800468c:	0013007d 	.word	0x0013007d
 8004690:	00d3008b 	.word	0x00d3008b
 8004694:	009e      	.short	0x009e
 8004696:	23ad      	movs	r3, #173	; 0xad
 8004698:	009b      	lsls	r3, r3, #2
 800469a:	58e3      	ldr	r3, [r4, r3]
 800469c:	0029      	movs	r1, r5
 800469e:	689b      	ldr	r3, [r3, #8]
 80046a0:	0020      	movs	r0, r4
 80046a2:	4798      	blx	r3
 80046a4:	2000      	movs	r0, #0
 80046a6:	bd76      	pop	{r1, r2, r4, r5, r6, pc}
 80046a8:	466b      	mov	r3, sp
 80046aa:	1d9e      	adds	r6, r3, #6
 80046ac:	2300      	movs	r3, #0
 80046ae:	8033      	strh	r3, [r6, #0]
 80046b0:	884b      	ldrh	r3, [r1, #2]
 80046b2:	0a18      	lsrs	r0, r3, #8
 80046b4:	3801      	subs	r0, #1
 80046b6:	2806      	cmp	r0, #6
 80046b8:	d86e      	bhi.n	8004798 <USBD_StdDevReq+0x13c>
 80046ba:	f7fb fd2d 	bl	8000118 <__gnu_thumb1_case_uqi>
 80046be:	2204      	.short	0x2204
 80046c0:	4a6d6d30 	.word	0x4a6d6d30
 80046c4:	54          	.byte	0x54
 80046c5:	00          	.byte	0x00
 80046c6:	23ac      	movs	r3, #172	; 0xac
 80046c8:	009b      	lsls	r3, r3, #2
 80046ca:	58e3      	ldr	r3, [r4, r3]
 80046cc:	7c20      	ldrb	r0, [r4, #16]
 80046ce:	681b      	ldr	r3, [r3, #0]
 80046d0:	0031      	movs	r1, r6
 80046d2:	4798      	blx	r3
 80046d4:	8831      	ldrh	r1, [r6, #0]
 80046d6:	2900      	cmp	r1, #0
 80046d8:	d00c      	beq.n	80046f4 <USBD_StdDevReq+0x98>
 80046da:	88ea      	ldrh	r2, [r5, #6]
 80046dc:	2a00      	cmp	r2, #0
 80046de:	d009      	beq.n	80046f4 <USBD_StdDevReq+0x98>
 80046e0:	1c0b      	adds	r3, r1, #0
 80046e2:	4291      	cmp	r1, r2
 80046e4:	d900      	bls.n	80046e8 <USBD_StdDevReq+0x8c>
 80046e6:	1c13      	adds	r3, r2, #0
 80046e8:	0001      	movs	r1, r0
 80046ea:	b29a      	uxth	r2, r3
 80046ec:	0020      	movs	r0, r4
 80046ee:	8033      	strh	r3, [r6, #0]
 80046f0:	f000 f9da 	bl	8004aa8 <USBD_CtlSendData>
 80046f4:	88eb      	ldrh	r3, [r5, #6]
 80046f6:	2b00      	cmp	r3, #0
 80046f8:	d1d4      	bne.n	80046a4 <USBD_StdDevReq+0x48>
 80046fa:	0020      	movs	r0, r4
 80046fc:	f000 fa02 	bl	8004b04 <USBD_CtlSendStatus>
 8004700:	e7d0      	b.n	80046a4 <USBD_StdDevReq+0x48>
 8004702:	23ad      	movs	r3, #173	; 0xad
 8004704:	7c22      	ldrb	r2, [r4, #16]
 8004706:	009b      	lsls	r3, r3, #2
 8004708:	58e3      	ldr	r3, [r4, r3]
 800470a:	2a00      	cmp	r2, #0
 800470c:	d105      	bne.n	800471a <USBD_StdDevReq+0xbe>
 800470e:	6a9b      	ldr	r3, [r3, #40]	; 0x28
 8004710:	0030      	movs	r0, r6
 8004712:	4798      	blx	r3
 8004714:	2302      	movs	r3, #2
 8004716:	7043      	strb	r3, [r0, #1]
 8004718:	e7dc      	b.n	80046d4 <USBD_StdDevReq+0x78>
 800471a:	6adb      	ldr	r3, [r3, #44]	; 0x2c
 800471c:	e7f8      	b.n	8004710 <USBD_StdDevReq+0xb4>
 800471e:	b2d8      	uxtb	r0, r3
 8004720:	2805      	cmp	r0, #5
 8004722:	d839      	bhi.n	8004798 <USBD_StdDevReq+0x13c>
 8004724:	23ac      	movs	r3, #172	; 0xac
 8004726:	009b      	lsls	r3, r3, #2
 8004728:	58e3      	ldr	r3, [r4, r3]
 800472a:	f7fb fcf5 	bl	8000118 <__gnu_thumb1_case_uqi>
 800472e:	0803      	.short	0x0803
 8004730:	100e0c0a 	.word	0x100e0c0a
 8004734:	685b      	ldr	r3, [r3, #4]
 8004736:	2b00      	cmp	r3, #0
 8004738:	d02e      	beq.n	8004798 <USBD_StdDevReq+0x13c>
 800473a:	7c20      	ldrb	r0, [r4, #16]
 800473c:	e7c8      	b.n	80046d0 <USBD_StdDevReq+0x74>
 800473e:	689b      	ldr	r3, [r3, #8]
 8004740:	e7f9      	b.n	8004736 <USBD_StdDevReq+0xda>
 8004742:	68db      	ldr	r3, [r3, #12]
 8004744:	e7f7      	b.n	8004736 <USBD_StdDevReq+0xda>
 8004746:	691b      	ldr	r3, [r3, #16]
 8004748:	e7f5      	b.n	8004736 <USBD_StdDevReq+0xda>
 800474a:	695b      	ldr	r3, [r3, #20]
 800474c:	e7f3      	b.n	8004736 <USBD_StdDevReq+0xda>
 800474e:	699b      	ldr	r3, [r3, #24]
 8004750:	e7f1      	b.n	8004736 <USBD_StdDevReq+0xda>
 8004752:	7c23      	ldrb	r3, [r4, #16]
 8004754:	2b00      	cmp	r3, #0
 8004756:	d11f      	bne.n	8004798 <USBD_StdDevReq+0x13c>
 8004758:	23ad      	movs	r3, #173	; 0xad
 800475a:	009b      	lsls	r3, r3, #2
 800475c:	58e3      	ldr	r3, [r4, r3]
 800475e:	0030      	movs	r0, r6
 8004760:	6b5b      	ldr	r3, [r3, #52]	; 0x34
 8004762:	4798      	blx	r3
 8004764:	e7b6      	b.n	80046d4 <USBD_StdDevReq+0x78>
 8004766:	7c23      	ldrb	r3, [r4, #16]
 8004768:	2b00      	cmp	r3, #0
 800476a:	d115      	bne.n	8004798 <USBD_StdDevReq+0x13c>
 800476c:	23ad      	movs	r3, #173	; 0xad
 800476e:	009b      	lsls	r3, r3, #2
 8004770:	58e3      	ldr	r3, [r4, r3]
 8004772:	0030      	movs	r0, r6
 8004774:	6b1b      	ldr	r3, [r3, #48]	; 0x30
 8004776:	4798      	blx	r3
 8004778:	2307      	movs	r3, #7
 800477a:	e7cc      	b.n	8004716 <USBD_StdDevReq+0xba>
 800477c:	888b      	ldrh	r3, [r1, #4]
 800477e:	2b00      	cmp	r3, #0
 8004780:	d10a      	bne.n	8004798 <USBD_StdDevReq+0x13c>
 8004782:	88cb      	ldrh	r3, [r1, #6]
 8004784:	2b00      	cmp	r3, #0
 8004786:	d107      	bne.n	8004798 <USBD_StdDevReq+0x13c>
 8004788:	884e      	ldrh	r6, [r1, #2]
 800478a:	2e7f      	cmp	r6, #127	; 0x7f
 800478c:	d804      	bhi.n	8004798 <USBD_StdDevReq+0x13c>
 800478e:	25a7      	movs	r5, #167	; 0xa7
 8004790:	00ad      	lsls	r5, r5, #2
 8004792:	5d63      	ldrb	r3, [r4, r5]
 8004794:	2b03      	cmp	r3, #3
 8004796:	d103      	bne.n	80047a0 <USBD_StdDevReq+0x144>
 8004798:	0020      	movs	r0, r4
 800479a:	f7ff ff54 	bl	8004646 <USBD_CtlError.constprop.1>
 800479e:	e781      	b.n	80046a4 <USBD_StdDevReq+0x48>
 80047a0:	4b43      	ldr	r3, [pc, #268]	; (80048b0 <USBD_StdDevReq+0x254>)
 80047a2:	b2f1      	uxtb	r1, r6
 80047a4:	54e1      	strb	r1, [r4, r3]
 80047a6:	0020      	movs	r0, r4
 80047a8:	f000 fd2e 	bl	8005208 <USBD_LL_SetUSBAddress>
 80047ac:	0020      	movs	r0, r4
 80047ae:	f000 f9a9 	bl	8004b04 <USBD_CtlSendStatus>
 80047b2:	2302      	movs	r3, #2
 80047b4:	2e00      	cmp	r6, #0
 80047b6:	d100      	bne.n	80047ba <USBD_StdDevReq+0x15e>
 80047b8:	2301      	movs	r3, #1
 80047ba:	5563      	strb	r3, [r4, r5]
 80047bc:	e772      	b.n	80046a4 <USBD_StdDevReq+0x48>
 80047be:	7889      	ldrb	r1, [r1, #2]
 80047c0:	4d3c      	ldr	r5, [pc, #240]	; (80048b4 <USBD_StdDevReq+0x258>)
 80047c2:	7029      	strb	r1, [r5, #0]
 80047c4:	2901      	cmp	r1, #1
 80047c6:	d8e7      	bhi.n	8004798 <USBD_StdDevReq+0x13c>
 80047c8:	23a7      	movs	r3, #167	; 0xa7
 80047ca:	009b      	lsls	r3, r3, #2
 80047cc:	5ce2      	ldrb	r2, [r4, r3]
 80047ce:	2a02      	cmp	r2, #2
 80047d0:	d009      	beq.n	80047e6 <USBD_StdDevReq+0x18a>
 80047d2:	2a03      	cmp	r2, #3
 80047d4:	d014      	beq.n	8004800 <USBD_StdDevReq+0x1a4>
 80047d6:	0020      	movs	r0, r4
 80047d8:	f7ff ff35 	bl	8004646 <USBD_CtlError.constprop.1>
 80047dc:	7829      	ldrb	r1, [r5, #0]
 80047de:	0020      	movs	r0, r4
 80047e0:	f7ff fdfc 	bl	80043dc <USBD_ClrClassConfig>
 80047e4:	e75e      	b.n	80046a4 <USBD_StdDevReq+0x48>
 80047e6:	2900      	cmp	r1, #0
 80047e8:	d087      	beq.n	80046fa <USBD_StdDevReq+0x9e>
 80047ea:	2101      	movs	r1, #1
 80047ec:	2203      	movs	r2, #3
 80047ee:	6061      	str	r1, [r4, #4]
 80047f0:	54e2      	strb	r2, [r4, r3]
 80047f2:	0020      	movs	r0, r4
 80047f4:	f7ff fde5 	bl	80043c2 <USBD_SetClassConfig>
 80047f8:	2802      	cmp	r0, #2
 80047fa:	d000      	beq.n	80047fe <USBD_StdDevReq+0x1a2>
 80047fc:	e77d      	b.n	80046fa <USBD_StdDevReq+0x9e>
 80047fe:	e7cb      	b.n	8004798 <USBD_StdDevReq+0x13c>
 8004800:	2900      	cmp	r1, #0
 8004802:	d106      	bne.n	8004812 <USBD_StdDevReq+0x1b6>
 8004804:	2202      	movs	r2, #2
 8004806:	0020      	movs	r0, r4
 8004808:	54e2      	strb	r2, [r4, r3]
 800480a:	6061      	str	r1, [r4, #4]
 800480c:	f7ff fde6 	bl	80043dc <USBD_ClrClassConfig>
 8004810:	e773      	b.n	80046fa <USBD_StdDevReq+0x9e>
 8004812:	6861      	ldr	r1, [r4, #4]
 8004814:	2901      	cmp	r1, #1
 8004816:	d100      	bne.n	800481a <USBD_StdDevReq+0x1be>
 8004818:	e76f      	b.n	80046fa <USBD_StdDevReq+0x9e>
 800481a:	b2c9      	uxtb	r1, r1
 800481c:	0020      	movs	r0, r4
 800481e:	f7ff fddd 	bl	80043dc <USBD_ClrClassConfig>
 8004822:	7829      	ldrb	r1, [r5, #0]
 8004824:	6061      	str	r1, [r4, #4]
 8004826:	e7e4      	b.n	80047f2 <USBD_StdDevReq+0x196>
 8004828:	88ca      	ldrh	r2, [r1, #6]
 800482a:	2a01      	cmp	r2, #1
 800482c:	d1b4      	bne.n	8004798 <USBD_StdDevReq+0x13c>
 800482e:	23a7      	movs	r3, #167	; 0xa7
 8004830:	009b      	lsls	r3, r3, #2
 8004832:	5ce3      	ldrb	r3, [r4, r3]
 8004834:	2b00      	cmp	r3, #0
 8004836:	d0af      	beq.n	8004798 <USBD_StdDevReq+0x13c>
 8004838:	2b02      	cmp	r3, #2
 800483a:	d906      	bls.n	800484a <USBD_StdDevReq+0x1ee>
 800483c:	1d21      	adds	r1, r4, #4
 800483e:	2b03      	cmp	r3, #3
 8004840:	d1aa      	bne.n	8004798 <USBD_StdDevReq+0x13c>
 8004842:	0020      	movs	r0, r4
 8004844:	f000 f930 	bl	8004aa8 <USBD_CtlSendData>
 8004848:	e72c      	b.n	80046a4 <USBD_StdDevReq+0x48>
 800484a:	2300      	movs	r3, #0
 800484c:	0021      	movs	r1, r4
 800484e:	60a3      	str	r3, [r4, #8]
 8004850:	3108      	adds	r1, #8
 8004852:	e7f6      	b.n	8004842 <USBD_StdDevReq+0x1e6>
 8004854:	23a7      	movs	r3, #167	; 0xa7
 8004856:	009b      	lsls	r3, r3, #2
 8004858:	5ce3      	ldrb	r3, [r4, r3]
 800485a:	3b01      	subs	r3, #1
 800485c:	2b02      	cmp	r3, #2
 800485e:	d89b      	bhi.n	8004798 <USBD_StdDevReq+0x13c>
 8004860:	88cb      	ldrh	r3, [r1, #6]
 8004862:	2b02      	cmp	r3, #2
 8004864:	d198      	bne.n	8004798 <USBD_StdDevReq+0x13c>
 8004866:	3b01      	subs	r3, #1
 8004868:	60e3      	str	r3, [r4, #12]
 800486a:	23a9      	movs	r3, #169	; 0xa9
 800486c:	009b      	lsls	r3, r3, #2
 800486e:	58e3      	ldr	r3, [r4, r3]
 8004870:	2b00      	cmp	r3, #0
 8004872:	d001      	beq.n	8004878 <USBD_StdDevReq+0x21c>
 8004874:	2303      	movs	r3, #3
 8004876:	60e3      	str	r3, [r4, #12]
 8004878:	0021      	movs	r1, r4
 800487a:	2202      	movs	r2, #2
 800487c:	310c      	adds	r1, #12
 800487e:	e7e0      	b.n	8004842 <USBD_StdDevReq+0x1e6>
 8004880:	884b      	ldrh	r3, [r1, #2]
 8004882:	2b01      	cmp	r3, #1
 8004884:	d000      	beq.n	8004888 <USBD_StdDevReq+0x22c>
 8004886:	e70d      	b.n	80046a4 <USBD_StdDevReq+0x48>
 8004888:	22a9      	movs	r2, #169	; 0xa9
 800488a:	0092      	lsls	r2, r2, #2
 800488c:	50a3      	str	r3, [r4, r2]
 800488e:	e734      	b.n	80046fa <USBD_StdDevReq+0x9e>
 8004890:	23a7      	movs	r3, #167	; 0xa7
 8004892:	009b      	lsls	r3, r3, #2
 8004894:	5ce3      	ldrb	r3, [r4, r3]
 8004896:	3b01      	subs	r3, #1
 8004898:	2b02      	cmp	r3, #2
 800489a:	d900      	bls.n	800489e <USBD_StdDevReq+0x242>
 800489c:	e77c      	b.n	8004798 <USBD_StdDevReq+0x13c>
 800489e:	884b      	ldrh	r3, [r1, #2]
 80048a0:	2b01      	cmp	r3, #1
 80048a2:	d000      	beq.n	80048a6 <USBD_StdDevReq+0x24a>
 80048a4:	e6fe      	b.n	80046a4 <USBD_StdDevReq+0x48>
 80048a6:	23a9      	movs	r3, #169	; 0xa9
 80048a8:	2200      	movs	r2, #0
 80048aa:	009b      	lsls	r3, r3, #2
 80048ac:	50e2      	str	r2, [r4, r3]
 80048ae:	e724      	b.n	80046fa <USBD_StdDevReq+0x9e>
 80048b0:	0000029e 	.word	0x0000029e
 80048b4:	20000338 	.word	0x20000338

080048b8 <USBD_StdItfReq>:
 80048b8:	2260      	movs	r2, #96	; 0x60
 80048ba:	780b      	ldrb	r3, [r1, #0]
 80048bc:	b570      	push	{r4, r5, r6, lr}
 80048be:	4013      	ands	r3, r2
 80048c0:	0004      	movs	r4, r0
 80048c2:	000d      	movs	r5, r1
 80048c4:	2b20      	cmp	r3, #32
 80048c6:	d003      	beq.n	80048d0 <USBD_StdItfReq+0x18>
 80048c8:	2b40      	cmp	r3, #64	; 0x40
 80048ca:	d001      	beq.n	80048d0 <USBD_StdItfReq+0x18>
 80048cc:	2b00      	cmp	r3, #0
 80048ce:	d119      	bne.n	8004904 <USBD_StdItfReq+0x4c>
 80048d0:	23a7      	movs	r3, #167	; 0xa7
 80048d2:	009b      	lsls	r3, r3, #2
 80048d4:	5ce3      	ldrb	r3, [r4, r3]
 80048d6:	3b01      	subs	r3, #1
 80048d8:	2b02      	cmp	r3, #2
 80048da:	d813      	bhi.n	8004904 <USBD_StdItfReq+0x4c>
 80048dc:	792b      	ldrb	r3, [r5, #4]
 80048de:	2b01      	cmp	r3, #1
 80048e0:	d810      	bhi.n	8004904 <USBD_StdItfReq+0x4c>
 80048e2:	23ad      	movs	r3, #173	; 0xad
 80048e4:	009b      	lsls	r3, r3, #2
 80048e6:	58e3      	ldr	r3, [r4, r3]
 80048e8:	0029      	movs	r1, r5
 80048ea:	689b      	ldr	r3, [r3, #8]
 80048ec:	0020      	movs	r0, r4
 80048ee:	4798      	blx	r3
 80048f0:	88eb      	ldrh	r3, [r5, #6]
 80048f2:	2b00      	cmp	r3, #0
 80048f4:	d104      	bne.n	8004900 <USBD_StdItfReq+0x48>
 80048f6:	2800      	cmp	r0, #0
 80048f8:	d102      	bne.n	8004900 <USBD_StdItfReq+0x48>
 80048fa:	0020      	movs	r0, r4
 80048fc:	f000 f902 	bl	8004b04 <USBD_CtlSendStatus>
 8004900:	2000      	movs	r0, #0
 8004902:	bd70      	pop	{r4, r5, r6, pc}
 8004904:	0020      	movs	r0, r4
 8004906:	f7ff fe9e 	bl	8004646 <USBD_CtlError.constprop.1>
 800490a:	e7f9      	b.n	8004900 <USBD_StdItfReq+0x48>

0800490c <USBD_StdEPReq>:
 800490c:	780a      	ldrb	r2, [r1, #0]
 800490e:	000b      	movs	r3, r1
 8004910:	2160      	movs	r1, #96	; 0x60
 8004912:	b570      	push	{r4, r5, r6, lr}
 8004914:	400a      	ands	r2, r1
 8004916:	0004      	movs	r4, r0
 8004918:	2a20      	cmp	r2, #32
 800491a:	d017      	beq.n	800494c <USBD_StdEPReq+0x40>
 800491c:	2a40      	cmp	r2, #64	; 0x40
 800491e:	d015      	beq.n	800494c <USBD_StdEPReq+0x40>
 8004920:	2a00      	cmp	r2, #0
 8004922:	d10f      	bne.n	8004944 <USBD_StdEPReq+0x38>
 8004924:	8898      	ldrh	r0, [r3, #4]
 8004926:	785a      	ldrb	r2, [r3, #1]
 8004928:	b2c1      	uxtb	r1, r0
 800492a:	2a01      	cmp	r2, #1
 800492c:	d026      	beq.n	800497c <USBD_StdEPReq+0x70>
 800492e:	2a00      	cmp	r2, #0
 8004930:	d03e      	beq.n	80049b0 <USBD_StdEPReq+0xa4>
 8004932:	2a03      	cmp	r2, #3
 8004934:	d106      	bne.n	8004944 <USBD_StdEPReq+0x38>
 8004936:	22a7      	movs	r2, #167	; 0xa7
 8004938:	0092      	lsls	r2, r2, #2
 800493a:	5ca2      	ldrb	r2, [r4, r2]
 800493c:	2a02      	cmp	r2, #2
 800493e:	d02d      	beq.n	800499c <USBD_StdEPReq+0x90>
 8004940:	2a03      	cmp	r2, #3
 8004942:	d00c      	beq.n	800495e <USBD_StdEPReq+0x52>
 8004944:	0020      	movs	r0, r4
 8004946:	f7ff fe7e 	bl	8004646 <USBD_CtlError.constprop.1>
 800494a:	e006      	b.n	800495a <USBD_StdEPReq+0x4e>
 800494c:	22ad      	movs	r2, #173	; 0xad
 800494e:	0092      	lsls	r2, r2, #2
 8004950:	58a2      	ldr	r2, [r4, r2]
 8004952:	0019      	movs	r1, r3
 8004954:	6892      	ldr	r2, [r2, #8]
 8004956:	0020      	movs	r0, r4
 8004958:	4790      	blx	r2
 800495a:	2000      	movs	r0, #0
 800495c:	bd70      	pop	{r4, r5, r6, pc}
 800495e:	885a      	ldrh	r2, [r3, #2]
 8004960:	2a00      	cmp	r2, #0
 8004962:	d107      	bne.n	8004974 <USBD_StdEPReq+0x68>
 8004964:	064a      	lsls	r2, r1, #25
 8004966:	d005      	beq.n	8004974 <USBD_StdEPReq+0x68>
 8004968:	88db      	ldrh	r3, [r3, #6]
 800496a:	2b00      	cmp	r3, #0
 800496c:	d102      	bne.n	8004974 <USBD_StdEPReq+0x68>
 800496e:	0020      	movs	r0, r4
 8004970:	f000 fc18 	bl	80051a4 <USBD_LL_StallEP>
 8004974:	0020      	movs	r0, r4
 8004976:	f000 f8c5 	bl	8004b04 <USBD_CtlSendStatus>
 800497a:	e7ee      	b.n	800495a <USBD_StdEPReq+0x4e>
 800497c:	22a7      	movs	r2, #167	; 0xa7
 800497e:	0092      	lsls	r2, r2, #2
 8004980:	5ca2      	ldrb	r2, [r4, r2]
 8004982:	2a02      	cmp	r2, #2
 8004984:	d00a      	beq.n	800499c <USBD_StdEPReq+0x90>
 8004986:	2a03      	cmp	r2, #3
 8004988:	d1dc      	bne.n	8004944 <USBD_StdEPReq+0x38>
 800498a:	885b      	ldrh	r3, [r3, #2]
 800498c:	2b00      	cmp	r3, #0
 800498e:	d1e4      	bne.n	800495a <USBD_StdEPReq+0x4e>
 8004990:	064b      	lsls	r3, r1, #25
 8004992:	d0ef      	beq.n	8004974 <USBD_StdEPReq+0x68>
 8004994:	0020      	movs	r0, r4
 8004996:	f000 fc15 	bl	80051c4 <USBD_LL_ClearStallEP>
 800499a:	e7eb      	b.n	8004974 <USBD_StdEPReq+0x68>
 800499c:	064b      	lsls	r3, r1, #25
 800499e:	d0d1      	beq.n	8004944 <USBD_StdEPReq+0x38>
 80049a0:	0020      	movs	r0, r4
 80049a2:	f000 fbff 	bl	80051a4 <USBD_LL_StallEP>
 80049a6:	2180      	movs	r1, #128	; 0x80
 80049a8:	0020      	movs	r0, r4
 80049aa:	f000 fbfb 	bl	80051a4 <USBD_LL_StallEP>
 80049ae:	e7d4      	b.n	800495a <USBD_StdEPReq+0x4e>
 80049b0:	23a7      	movs	r3, #167	; 0xa7
 80049b2:	009b      	lsls	r3, r3, #2
 80049b4:	5ce3      	ldrb	r3, [r4, r3]
 80049b6:	2b02      	cmp	r3, #2
 80049b8:	d017      	beq.n	80049ea <USBD_StdEPReq+0xde>
 80049ba:	2b03      	cmp	r3, #3
 80049bc:	d1c2      	bne.n	8004944 <USBD_StdEPReq+0x38>
 80049be:	220f      	movs	r2, #15
 80049c0:	2314      	movs	r3, #20
 80049c2:	400a      	ands	r2, r1
 80049c4:	435a      	muls	r2, r3
 80049c6:	18a2      	adds	r2, r4, r2
 80049c8:	0600      	lsls	r0, r0, #24
 80049ca:	d51e      	bpl.n	8004a0a <USBD_StdEPReq+0xfe>
 80049cc:	6992      	ldr	r2, [r2, #24]
 80049ce:	2a00      	cmp	r2, #0
 80049d0:	d0b8      	beq.n	8004944 <USBD_StdEPReq+0x38>
 80049d2:	257f      	movs	r5, #127	; 0x7f
 80049d4:	400d      	ands	r5, r1
 80049d6:	3501      	adds	r5, #1
 80049d8:	435d      	muls	r5, r3
 80049da:	237f      	movs	r3, #127	; 0x7f
 80049dc:	1965      	adds	r5, r4, r5
 80049de:	400b      	ands	r3, r1
 80049e0:	d11e      	bne.n	8004a20 <USBD_StdEPReq+0x114>
 80049e2:	602b      	str	r3, [r5, #0]
 80049e4:	2202      	movs	r2, #2
 80049e6:	0029      	movs	r1, r5
 80049e8:	e00b      	b.n	8004a02 <USBD_StdEPReq+0xf6>
 80049ea:	064b      	lsls	r3, r1, #25
 80049ec:	d1aa      	bne.n	8004944 <USBD_StdEPReq+0x38>
 80049ee:	0021      	movs	r1, r4
 80049f0:	3155      	adds	r1, #85	; 0x55
 80049f2:	31ff      	adds	r1, #255	; 0xff
 80049f4:	0603      	lsls	r3, r0, #24
 80049f6:	d501      	bpl.n	80049fc <USBD_StdEPReq+0xf0>
 80049f8:	3941      	subs	r1, #65	; 0x41
 80049fa:	39ff      	subs	r1, #255	; 0xff
 80049fc:	2300      	movs	r3, #0
 80049fe:	2202      	movs	r2, #2
 8004a00:	600b      	str	r3, [r1, #0]
 8004a02:	0020      	movs	r0, r4
 8004a04:	f000 f850 	bl	8004aa8 <USBD_CtlSendData>
 8004a08:	e7a7      	b.n	800495a <USBD_StdEPReq+0x4e>
 8004a0a:	32fc      	adds	r2, #252	; 0xfc
 8004a0c:	6dd2      	ldr	r2, [r2, #92]	; 0x5c
 8004a0e:	2a00      	cmp	r2, #0
 8004a10:	d100      	bne.n	8004a14 <USBD_StdEPReq+0x108>
 8004a12:	e797      	b.n	8004944 <USBD_StdEPReq+0x38>
 8004a14:	257f      	movs	r5, #127	; 0x7f
 8004a16:	400d      	ands	r5, r1
 8004a18:	435d      	muls	r5, r3
 8004a1a:	3555      	adds	r5, #85	; 0x55
 8004a1c:	35ff      	adds	r5, #255	; 0xff
 8004a1e:	e7dc      	b.n	80049da <USBD_StdEPReq+0xce>
 8004a20:	0020      	movs	r0, r4
 8004a22:	f000 fbdf 	bl	80051e4 <USBD_LL_IsStallEP>
 8004a26:	2800      	cmp	r0, #0
 8004a28:	d001      	beq.n	8004a2e <USBD_StdEPReq+0x122>
 8004a2a:	2301      	movs	r3, #1
 8004a2c:	e7d9      	b.n	80049e2 <USBD_StdEPReq+0xd6>
 8004a2e:	6028      	str	r0, [r5, #0]
 8004a30:	e7d8      	b.n	80049e4 <USBD_StdEPReq+0xd8>

08004a32 <USBD_ParseSetupRequest>:
 8004a32:	780b      	ldrb	r3, [r1, #0]
 8004a34:	7003      	strb	r3, [r0, #0]
 8004a36:	784b      	ldrb	r3, [r1, #1]
 8004a38:	7043      	strb	r3, [r0, #1]
 8004a3a:	78ca      	ldrb	r2, [r1, #3]
 8004a3c:	788b      	ldrb	r3, [r1, #2]
 8004a3e:	0212      	lsls	r2, r2, #8
 8004a40:	189b      	adds	r3, r3, r2
 8004a42:	8043      	strh	r3, [r0, #2]
 8004a44:	794a      	ldrb	r2, [r1, #5]
 8004a46:	790b      	ldrb	r3, [r1, #4]
 8004a48:	0212      	lsls	r2, r2, #8
 8004a4a:	189b      	adds	r3, r3, r2
 8004a4c:	8083      	strh	r3, [r0, #4]
 8004a4e:	79ca      	ldrb	r2, [r1, #7]
 8004a50:	798b      	ldrb	r3, [r1, #6]
 8004a52:	0212      	lsls	r2, r2, #8
 8004a54:	189b      	adds	r3, r3, r2
 8004a56:	80c3      	strh	r3, [r0, #6]
 8004a58:	4770      	bx	lr

08004a5a <USBD_CtlError>:
 8004a5a:	b510      	push	{r4, lr}
 8004a5c:	0004      	movs	r4, r0
 8004a5e:	2180      	movs	r1, #128	; 0x80
 8004a60:	f000 fba0 	bl	80051a4 <USBD_LL_StallEP>
 8004a64:	2100      	movs	r1, #0
 8004a66:	0020      	movs	r0, r4
 8004a68:	f000 fb9c 	bl	80051a4 <USBD_LL_StallEP>
 8004a6c:	bd10      	pop	{r4, pc}

08004a6e <USBD_GetString>:
 8004a6e:	2300      	movs	r3, #0
 8004a70:	b530      	push	{r4, r5, lr}
 8004a72:	4298      	cmp	r0, r3
 8004a74:	d101      	bne.n	8004a7a <USBD_GetString+0xc>
 8004a76:	bd30      	pop	{r4, r5, pc}
 8004a78:	002b      	movs	r3, r5
 8004a7a:	5cc4      	ldrb	r4, [r0, r3]
 8004a7c:	1c5d      	adds	r5, r3, #1
 8004a7e:	2c00      	cmp	r4, #0
 8004a80:	d1fa      	bne.n	8004a78 <USBD_GetString+0xa>
 8004a82:	b2db      	uxtb	r3, r3
 8004a84:	3301      	adds	r3, #1
 8004a86:	005b      	lsls	r3, r3, #1
 8004a88:	8013      	strh	r3, [r2, #0]
 8004a8a:	700b      	strb	r3, [r1, #0]
 8004a8c:	2303      	movs	r3, #3
 8004a8e:	704b      	strb	r3, [r1, #1]
 8004a90:	3b01      	subs	r3, #1
 8004a92:	7805      	ldrb	r5, [r0, #0]
 8004a94:	2d00      	cmp	r5, #0
 8004a96:	d0ee      	beq.n	8004a76 <USBD_GetString+0x8>
 8004a98:	1c5a      	adds	r2, r3, #1
 8004a9a:	54cd      	strb	r5, [r1, r3]
 8004a9c:	b2d2      	uxtb	r2, r2
 8004a9e:	3302      	adds	r3, #2
 8004aa0:	3001      	adds	r0, #1
 8004aa2:	b2db      	uxtb	r3, r3
 8004aa4:	548c      	strb	r4, [r1, r2]
 8004aa6:	e7f4      	b.n	8004a92 <USBD_GetString+0x24>

08004aa8 <USBD_CtlSendData>:
 8004aa8:	0013      	movs	r3, r2
 8004aaa:	22a5      	movs	r2, #165	; 0xa5
 8004aac:	b510      	push	{r4, lr}
 8004aae:	2402      	movs	r4, #2
 8004ab0:	0092      	lsls	r2, r2, #2
 8004ab2:	5084      	str	r4, [r0, r2]
 8004ab4:	000a      	movs	r2, r1
 8004ab6:	61c3      	str	r3, [r0, #28]
 8004ab8:	6203      	str	r3, [r0, #32]
 8004aba:	2100      	movs	r1, #0
 8004abc:	f000 fbb4 	bl	8005228 <USBD_LL_Transmit>
 8004ac0:	2000      	movs	r0, #0
 8004ac2:	bd10      	pop	{r4, pc}

08004ac4 <USBD_CtlContinueSendData>:
 8004ac4:	b510      	push	{r4, lr}
 8004ac6:	0013      	movs	r3, r2
 8004ac8:	000a      	movs	r2, r1
 8004aca:	2100      	movs	r1, #0
 8004acc:	f000 fbac 	bl	8005228 <USBD_LL_Transmit>
 8004ad0:	2000      	movs	r0, #0
 8004ad2:	bd10      	pop	{r4, pc}

08004ad4 <USBD_CtlPrepareRx>:
 8004ad4:	0013      	movs	r3, r2
 8004ad6:	22a5      	movs	r2, #165	; 0xa5
 8004ad8:	b510      	push	{r4, lr}
 8004ada:	2403      	movs	r4, #3
 8004adc:	0092      	lsls	r2, r2, #2
 8004ade:	5084      	str	r4, [r0, r2]
 8004ae0:	0002      	movs	r2, r0
 8004ae2:	32fc      	adds	r2, #252	; 0xfc
 8004ae4:	6613      	str	r3, [r2, #96]	; 0x60
 8004ae6:	6653      	str	r3, [r2, #100]	; 0x64
 8004ae8:	000a      	movs	r2, r1
 8004aea:	2100      	movs	r1, #0
 8004aec:	f000 fbac 	bl	8005248 <USBD_LL_PrepareReceive>
 8004af0:	2000      	movs	r0, #0
 8004af2:	bd10      	pop	{r4, pc}

08004af4 <USBD_CtlContinueRx>:
 8004af4:	b510      	push	{r4, lr}
 8004af6:	0013      	movs	r3, r2
 8004af8:	000a      	movs	r2, r1
 8004afa:	2100      	movs	r1, #0
 8004afc:	f000 fba4 	bl	8005248 <USBD_LL_PrepareReceive>
 8004b00:	2000      	movs	r0, #0
 8004b02:	bd10      	pop	{r4, pc}

08004b04 <USBD_CtlSendStatus>:
 8004b04:	23a5      	movs	r3, #165	; 0xa5
 8004b06:	2204      	movs	r2, #4
 8004b08:	009b      	lsls	r3, r3, #2
 8004b0a:	b510      	push	{r4, lr}
 8004b0c:	50c2      	str	r2, [r0, r3]
 8004b0e:	2300      	movs	r3, #0
 8004b10:	001a      	movs	r2, r3
 8004b12:	0019      	movs	r1, r3
 8004b14:	f000 fb88 	bl	8005228 <USBD_LL_Transmit>
 8004b18:	2000      	movs	r0, #0
 8004b1a:	bd10      	pop	{r4, pc}

08004b1c <USBD_CtlReceiveStatus>:
 8004b1c:	23a5      	movs	r3, #165	; 0xa5
 8004b1e:	2205      	movs	r2, #5
 8004b20:	009b      	lsls	r3, r3, #2
 8004b22:	b510      	push	{r4, lr}
 8004b24:	50c2      	str	r2, [r0, r3]
 8004b26:	2300      	movs	r3, #0
 8004b28:	001a      	movs	r2, r3
 8004b2a:	0019      	movs	r1, r3
 8004b2c:	f000 fb8c 	bl	8005248 <USBD_LL_PrepareReceive>
 8004b30:	2000      	movs	r0, #0
 8004b32:	bd10      	pop	{r4, pc}

08004b34 <MX_USB_DEVICE_Init>:
  * @retval None
  */
void MX_USB_DEVICE_Init(void)
{
  /* USER CODE BEGIN USB_DEVICE_Init_PreTreatment */
	if((HAL_GPIO_ReadPin(GPIOA, GPIO_PIN_8)==RESET))
 8004b34:	2180      	movs	r1, #128	; 0x80
 8004b36:	2090      	movs	r0, #144	; 0x90
{
 8004b38:	b510      	push	{r4, lr}
	if((HAL_GPIO_ReadPin(GPIOA, GPIO_PIN_8)==RESET))
 8004b3a:	0049      	lsls	r1, r1, #1
 8004b3c:	05c0      	lsls	r0, r0, #23
 8004b3e:	f7fd fc5f 	bl	8002400 <HAL_GPIO_ReadPin>
 8004b42:	2800      	cmp	r0, #0
 8004b44:	d020      	beq.n	8004b88 <MX_USB_DEVICE_Init+0x54>
		return;
	}
  /* USER CODE END USB_DEVICE_Init_PreTreatment */

  /* Init Device Library, add supported class and start the library. */
  if (USBD_Init(&hUsbDeviceFS, &FS_Desc, DEVICE_FS) != USBD_OK)
 8004b46:	4c11      	ldr	r4, [pc, #68]	; (8004b8c <MX_USB_DEVICE_Init+0x58>)
 8004b48:	2200      	movs	r2, #0
 8004b4a:	4911      	ldr	r1, [pc, #68]	; (8004b90 <MX_USB_DEVICE_Init+0x5c>)
 8004b4c:	0020      	movs	r0, r4
 8004b4e:	f7ff fbed 	bl	800432c <USBD_Init>
 8004b52:	2800      	cmp	r0, #0
 8004b54:	d001      	beq.n	8004b5a <MX_USB_DEVICE_Init+0x26>
  {
    Error_Handler();
 8004b56:	f7fd f8f9 	bl	8001d4c <Error_Handler>
  }
  if (USBD_RegisterClass(&hUsbDeviceFS, &USBD_CDC) != USBD_OK)
 8004b5a:	490e      	ldr	r1, [pc, #56]	; (8004b94 <MX_USB_DEVICE_Init+0x60>)
 8004b5c:	0020      	movs	r0, r4
 8004b5e:	f7ff fc14 	bl	800438a <USBD_RegisterClass>
 8004b62:	2800      	cmp	r0, #0
 8004b64:	d001      	beq.n	8004b6a <MX_USB_DEVICE_Init+0x36>
  {
    Error_Handler();
 8004b66:	f7fd f8f1 	bl	8001d4c <Error_Handler>
  }
  if (USBD_CDC_RegisterInterface(&hUsbDeviceFS, &USBD_Interface_fops_FS) != USBD_OK)
 8004b6a:	490b      	ldr	r1, [pc, #44]	; (8004b98 <MX_USB_DEVICE_Init+0x64>)
 8004b6c:	0020      	movs	r0, r4
 8004b6e:	f7ff fb8e 	bl	800428e <USBD_CDC_RegisterInterface>
 8004b72:	2800      	cmp	r0, #0
 8004b74:	d001      	beq.n	8004b7a <MX_USB_DEVICE_Init+0x46>
  {
    Error_Handler();
 8004b76:	f7fd f8e9 	bl	8001d4c <Error_Handler>
  }
  if (USBD_Start(&hUsbDeviceFS) != USBD_OK)
 8004b7a:	0020      	movs	r0, r4
 8004b7c:	f7ff fc0e 	bl	800439c <USBD_Start>
 8004b80:	2800      	cmp	r0, #0
 8004b82:	d001      	beq.n	8004b88 <MX_USB_DEVICE_Init+0x54>
  {
    Error_Handler();
 8004b84:	f7fd f8e2 	bl	8001d4c <Error_Handler>
  }

  /* USER CODE BEGIN USB_DEVICE_Init_PostTreatment */

  /* USER CODE END USB_DEVICE_Init_PostTreatment */
}
 8004b88:	bd10      	pop	{r4, pc}
 8004b8a:	46c0      	nop			; (mov r8, r8)
 8004b8c:	20000684 	.word	0x20000684
 8004b90:	20000260 	.word	0x20000260
 8004b94:	20000010 	.word	0x20000010
 8004b98:	20000250 	.word	0x20000250

08004b9c <CDC_DeInit_FS>:
static int8_t CDC_DeInit_FS(void)
{
  /* USER CODE BEGIN 4 */
	return (USBD_OK);
  /* USER CODE END 4 */
}
 8004b9c:	2000      	movs	r0, #0
 8004b9e:	4770      	bx	lr

08004ba0 <CDC_Control_FS>:
		break;
	}

	return (USBD_OK);
  /* USER CODE END 5 */
}
 8004ba0:	2000      	movs	r0, #0
 8004ba2:	4770      	bx	lr

08004ba4 <CDC_Init_FS>:
{
 8004ba4:	b510      	push	{r4, lr}
	USBD_CDC_SetTxBuffer(&hUsbDeviceFS, UserTxBufferFS, 0);
 8004ba6:	4c06      	ldr	r4, [pc, #24]	; (8004bc0 <CDC_Init_FS+0x1c>)
 8004ba8:	2200      	movs	r2, #0
 8004baa:	4906      	ldr	r1, [pc, #24]	; (8004bc4 <CDC_Init_FS+0x20>)
 8004bac:	0020      	movs	r0, r4
 8004bae:	f7ff fb77 	bl	80042a0 <USBD_CDC_SetTxBuffer>
	USBD_CDC_SetRxBuffer(&hUsbDeviceFS, UserRxBufferFS);
 8004bb2:	4905      	ldr	r1, [pc, #20]	; (8004bc8 <CDC_Init_FS+0x24>)
 8004bb4:	0020      	movs	r0, r4
 8004bb6:	f7ff fb7e 	bl	80042b6 <USBD_CDC_SetRxBuffer>
}
 8004bba:	2000      	movs	r0, #0
 8004bbc:	bd10      	pop	{r4, pc}
 8004bbe:	46c0      	nop			; (mov r8, r8)
 8004bc0:	20000684 	.word	0x20000684
 8004bc4:	20000a10 	.word	0x20000a10
 8004bc8:	20000948 	.word	0x20000948

08004bcc <CDC_Transmit_FS>:
  * @param  Buf: Buffer of data to be sent
  * @param  Len: Number of data to be sent (in bytes)
  * @retval USBD_OK if all operations are OK else USBD_FAIL or USBD_BUSY
  */
uint8_t CDC_Transmit_FS(uint8_t* Buf, uint16_t Len)
{
 8004bcc:	000a      	movs	r2, r1
  uint8_t result = USBD_OK;
  /* USER CODE BEGIN 7 */
	USBD_CDC_HandleTypeDef *hcdc =
 8004bce:	21ae      	movs	r1, #174	; 0xae
{
 8004bd0:	b510      	push	{r4, lr}
	USBD_CDC_HandleTypeDef *hcdc =
 8004bd2:	4c08      	ldr	r4, [pc, #32]	; (8004bf4 <CDC_Transmit_FS+0x28>)
 8004bd4:	0089      	lsls	r1, r1, #2
{
 8004bd6:	0003      	movs	r3, r0
	USBD_CDC_HandleTypeDef *hcdc =
 8004bd8:	5860      	ldr	r0, [r4, r1]
			(USBD_CDC_HandleTypeDef*) hUsbDeviceFS.pClassData;
	if (hcdc->TxState != 0)
 8004bda:	39a4      	subs	r1, #164	; 0xa4
 8004bdc:	5841      	ldr	r1, [r0, r1]
	{
		return USBD_BUSY;
 8004bde:	2001      	movs	r0, #1
	if (hcdc->TxState != 0)
 8004be0:	2900      	cmp	r1, #0
 8004be2:	d106      	bne.n	8004bf2 <CDC_Transmit_FS+0x26>
	}
	USBD_CDC_SetTxBuffer(&hUsbDeviceFS, Buf, Len);
 8004be4:	0019      	movs	r1, r3
 8004be6:	0020      	movs	r0, r4
 8004be8:	f7ff fb5a 	bl	80042a0 <USBD_CDC_SetTxBuffer>
	result = USBD_CDC_TransmitPacket(&hUsbDeviceFS);
 8004bec:	0020      	movs	r0, r4
 8004bee:	f7ff fb69 	bl	80042c4 <USBD_CDC_TransmitPacket>
  /* USER CODE END 7 */
  return result;
}
 8004bf2:	bd10      	pop	{r4, pc}
 8004bf4:	20000684 	.word	0x20000684

08004bf8 <CDC_Receive_FS>:
{
 8004bf8:	b5f7      	push	{r0, r1, r2, r4, r5, r6, r7, lr}
 8004bfa:	0004      	movs	r4, r0
	USBD_CDC_SetRxBuffer(&hUsbDeviceFS, &Buf[0]);
 8004bfc:	4d8c      	ldr	r5, [pc, #560]	; (8004e30 <CDC_Receive_FS+0x238>)
 8004bfe:	0001      	movs	r1, r0
 8004c00:	0028      	movs	r0, r5
 8004c02:	f7ff fb58 	bl	80042b6 <USBD_CDC_SetRxBuffer>
	USBD_CDC_ReceivePacket(&hUsbDeviceFS);
 8004c06:	0028      	movs	r0, r5
 8004c08:	f7ff fb78 	bl	80042fc <USBD_CDC_ReceivePacket>
	if (Buf[0] == 0b00000001 || Buf[0] == 'q' || Buf[0] == 'Q')
 8004c0c:	7823      	ldrb	r3, [r4, #0]
 8004c0e:	2b01      	cmp	r3, #1
 8004c10:	d005      	beq.n	8004c1e <CDC_Receive_FS+0x26>
 8004c12:	2220      	movs	r2, #32
 8004c14:	0019      	movs	r1, r3
 8004c16:	4391      	bics	r1, r2
 8004c18:	2951      	cmp	r1, #81	; 0x51
 8004c1a:	d000      	beq.n	8004c1e <CDC_Receive_FS+0x26>
 8004c1c:	e084      	b.n	8004d28 <CDC_Receive_FS+0x130>
		HAL_GPIO_WritePin(PWR1_GPIO_Port, PWR1_Pin, RESET);
 8004c1e:	2180      	movs	r1, #128	; 0x80
 8004c20:	4884      	ldr	r0, [pc, #528]	; (8004e34 <CDC_Receive_FS+0x23c>)
 8004c22:	0209      	lsls	r1, r1, #8
 8004c24:	2200      	movs	r2, #0
 8004c26:	f7fd fbf1 	bl	800240c <HAL_GPIO_WritePin>
		CDC_Transmit_FS((uint8_t*) "1", 1);
 8004c2a:	2101      	movs	r1, #1
 8004c2c:	4882      	ldr	r0, [pc, #520]	; (8004e38 <CDC_Receive_FS+0x240>)
		CDC_Transmit_FS((uint8_t*) "32", 2);
 8004c2e:	f7ff ffcd 	bl	8004bcc <CDC_Transmit_FS>
	if (Buf[0] == 0b00000001 || Buf[0] == 'z' || Buf[0] == 'Z')
 8004c32:	7823      	ldrb	r3, [r4, #0]
 8004c34:	2b01      	cmp	r3, #1
 8004c36:	d005      	beq.n	8004c44 <CDC_Receive_FS+0x4c>
 8004c38:	2220      	movs	r2, #32
 8004c3a:	0019      	movs	r1, r3
 8004c3c:	4391      	bics	r1, r2
 8004c3e:	295a      	cmp	r1, #90	; 0x5a
 8004c40:	d000      	beq.n	8004c44 <CDC_Receive_FS+0x4c>
 8004c42:	e0b3      	b.n	8004dac <CDC_Receive_FS+0x1b4>
		HAL_GPIO_WritePin(PWR1_GPIO_Port, PWR1_Pin, SET);
 8004c44:	2180      	movs	r1, #128	; 0x80
 8004c46:	487b      	ldr	r0, [pc, #492]	; (8004e34 <CDC_Receive_FS+0x23c>)
 8004c48:	0209      	lsls	r1, r1, #8
 8004c4a:	2201      	movs	r2, #1
 8004c4c:	f7fd fbde 	bl	800240c <HAL_GPIO_WritePin>
		CDC_Transmit_FS((uint8_t*) "1", 1);
 8004c50:	2101      	movs	r1, #1
 8004c52:	4879      	ldr	r0, [pc, #484]	; (8004e38 <CDC_Receive_FS+0x240>)
		CDC_Transmit_FS((uint8_t*) "32", 2);
 8004c54:	f7ff ffba 	bl	8004bcc <CDC_Transmit_FS>
	if (Buf[0] == 0b00111111 || Buf[0] == 0b11111111 || Buf[0] == 'a'
 8004c58:	7823      	ldrb	r3, [r4, #0]
 8004c5a:	2b3f      	cmp	r3, #63	; 0x3f
 8004c5c:	d005      	beq.n	8004c6a <CDC_Receive_FS+0x72>
 8004c5e:	2bff      	cmp	r3, #255	; 0xff
 8004c60:	d003      	beq.n	8004c6a <CDC_Receive_FS+0x72>
			|| Buf[0] == 'A')
 8004c62:	2220      	movs	r2, #32
 8004c64:	4393      	bics	r3, r2
 8004c66:	2b41      	cmp	r3, #65	; 0x41
 8004c68:	d109      	bne.n	8004c7e <CDC_Receive_FS+0x86>
		CDC_Transmit_FS((uint8_t*) "63", 2);
 8004c6a:	2102      	movs	r1, #2
 8004c6c:	4873      	ldr	r0, [pc, #460]	; (8004e3c <CDC_Receive_FS+0x244>)
 8004c6e:	f7ff ffad 	bl	8004bcc <CDC_Transmit_FS>
		HAL_GPIO_WritePin(GPIOB, 0xFC00, RESET);
 8004c72:	21fc      	movs	r1, #252	; 0xfc
 8004c74:	2200      	movs	r2, #0
 8004c76:	0209      	lsls	r1, r1, #8
 8004c78:	486e      	ldr	r0, [pc, #440]	; (8004e34 <CDC_Receive_FS+0x23c>)
 8004c7a:	f7fd fbc7 	bl	800240c <HAL_GPIO_WritePin>
	if (Buf[0] == 0x00 || Buf[0] == 's' || Buf[0] == 'S')
 8004c7e:	7823      	ldrb	r3, [r4, #0]
 8004c80:	2b00      	cmp	r3, #0
 8004c82:	d003      	beq.n	8004c8c <CDC_Receive_FS+0x94>
 8004c84:	2220      	movs	r2, #32
 8004c86:	4393      	bics	r3, r2
 8004c88:	2b53      	cmp	r3, #83	; 0x53
 8004c8a:	d109      	bne.n	8004ca0 <CDC_Receive_FS+0xa8>
		CDC_Transmit_FS((uint8_t*) "0", 1);
 8004c8c:	2101      	movs	r1, #1
 8004c8e:	486c      	ldr	r0, [pc, #432]	; (8004e40 <CDC_Receive_FS+0x248>)
 8004c90:	f7ff ff9c 	bl	8004bcc <CDC_Transmit_FS>
		HAL_GPIO_WritePin(GPIOB, 0xFC00, SET);
 8004c94:	21fc      	movs	r1, #252	; 0xfc
 8004c96:	2201      	movs	r2, #1
 8004c98:	0209      	lsls	r1, r1, #8
 8004c9a:	4866      	ldr	r0, [pc, #408]	; (8004e34 <CDC_Receive_FS+0x23c>)
 8004c9c:	f7fd fbb6 	bl	800240c <HAL_GPIO_WritePin>
	if (Buf[0] == 'm' || Buf[0] == 'M')
 8004ca0:	2220      	movs	r2, #32
 8004ca2:	7823      	ldrb	r3, [r4, #0]
 8004ca4:	4393      	bics	r3, r2
 8004ca6:	2b4d      	cmp	r3, #77	; 0x4d
 8004ca8:	d107      	bne.n	8004cba <CDC_Receive_FS+0xc2>
		CDC_Transmit_FS((uint8_t*) Manual, strlen(Manual));
 8004caa:	4d66      	ldr	r5, [pc, #408]	; (8004e44 <CDC_Receive_FS+0x24c>)
 8004cac:	0028      	movs	r0, r5
 8004cae:	f7fb fa2b 	bl	8000108 <strlen>
 8004cb2:	b281      	uxth	r1, r0
 8004cb4:	0028      	movs	r0, r5
 8004cb6:	f7ff ff89 	bl	8004bcc <CDC_Transmit_FS>
	if (Buf[0] == 'i' || Buf[0] == 'I')
 8004cba:	2220      	movs	r2, #32
 8004cbc:	7823      	ldrb	r3, [r4, #0]
 8004cbe:	4393      	bics	r3, r2
 8004cc0:	2b49      	cmp	r3, #73	; 0x49
 8004cc2:	d102      	bne.n	8004cca <CDC_Receive_FS+0xd2>
		action = 1;
 8004cc4:	4b60      	ldr	r3, [pc, #384]	; (8004e48 <CDC_Receive_FS+0x250>)
 8004cc6:	3a1f      	subs	r2, #31
 8004cc8:	701a      	strb	r2, [r3, #0]
	if (Buf[0] == 'v' || Buf[0] == 'V')
 8004cca:	2220      	movs	r2, #32
 8004ccc:	7823      	ldrb	r3, [r4, #0]
 8004cce:	4393      	bics	r3, r2
 8004cd0:	2b56      	cmp	r3, #86	; 0x56
 8004cd2:	d127      	bne.n	8004d24 <CDC_Receive_FS+0x12c>
		int tmp = _result * 10;
 8004cd4:	4b5d      	ldr	r3, [pc, #372]	; (8004e4c <CDC_Receive_FS+0x254>)
 8004cd6:	495e      	ldr	r1, [pc, #376]	; (8004e50 <CDC_Receive_FS+0x258>)
 8004cd8:	6818      	ldr	r0, [r3, #0]
 8004cda:	f7fb fc03 	bl	80004e4 <__aeabi_fmul>
 8004cde:	f7fb fd33 	bl	8000748 <__aeabi_f2iz>
		sprintf(buf, "%d%d.%d\r\n", tmp / 100, (tmp % 100) / 10, tmp % 10);
 8004ce2:	2164      	movs	r1, #100	; 0x64
		int tmp = _result * 10;
 8004ce4:	0005      	movs	r5, r0
		sprintf(buf, "%d%d.%d\r\n", tmp / 100, (tmp % 100) / 10, tmp % 10);
 8004ce6:	f7fb fb9b 	bl	8000420 <__aeabi_idivmod>
 8004cea:	0008      	movs	r0, r1
 8004cec:	210a      	movs	r1, #10
 8004cee:	f7fb fab1 	bl	8000254 <__divsi3>
 8004cf2:	2164      	movs	r1, #100	; 0x64
 8004cf4:	0007      	movs	r7, r0
 8004cf6:	0028      	movs	r0, r5
 8004cf8:	f7fb faac 	bl	8000254 <__divsi3>
 8004cfc:	210a      	movs	r1, #10
 8004cfe:	0006      	movs	r6, r0
 8004d00:	0028      	movs	r0, r5
 8004d02:	f7fb fb8d 	bl	8000420 <__aeabi_idivmod>
 8004d06:	4c53      	ldr	r4, [pc, #332]	; (8004e54 <CDC_Receive_FS+0x25c>)
 8004d08:	9100      	str	r1, [sp, #0]
 8004d0a:	003b      	movs	r3, r7
 8004d0c:	4952      	ldr	r1, [pc, #328]	; (8004e58 <CDC_Receive_FS+0x260>)
 8004d0e:	0032      	movs	r2, r6
 8004d10:	0020      	movs	r0, r4
 8004d12:	f000 faf3 	bl	80052fc <siprintf>
		CDC_Transmit_FS((uint8_t*) buf, strlen(buf));
 8004d16:	0020      	movs	r0, r4
 8004d18:	f7fb f9f6 	bl	8000108 <strlen>
 8004d1c:	b281      	uxth	r1, r0
 8004d1e:	0020      	movs	r0, r4
 8004d20:	f7ff ff54 	bl	8004bcc <CDC_Transmit_FS>
}
 8004d24:	2000      	movs	r0, #0
 8004d26:	bdfe      	pop	{r1, r2, r3, r4, r5, r6, r7, pc}
	else if (Buf[0] == 0b00000010 || Buf[0] == 'w' || Buf[0] == 'W')
 8004d28:	2b02      	cmp	r3, #2
 8004d2a:	d001      	beq.n	8004d30 <CDC_Receive_FS+0x138>
 8004d2c:	2957      	cmp	r1, #87	; 0x57
 8004d2e:	d108      	bne.n	8004d42 <CDC_Receive_FS+0x14a>
		HAL_GPIO_WritePin(PWR2_GPIO_Port, PWR2_Pin, RESET);
 8004d30:	2180      	movs	r1, #128	; 0x80
 8004d32:	4840      	ldr	r0, [pc, #256]	; (8004e34 <CDC_Receive_FS+0x23c>)
 8004d34:	01c9      	lsls	r1, r1, #7
 8004d36:	2200      	movs	r2, #0
 8004d38:	f7fd fb68 	bl	800240c <HAL_GPIO_WritePin>
		CDC_Transmit_FS((uint8_t*) "2", 1);
 8004d3c:	2101      	movs	r1, #1
 8004d3e:	4847      	ldr	r0, [pc, #284]	; (8004e5c <CDC_Receive_FS+0x264>)
 8004d40:	e775      	b.n	8004c2e <CDC_Receive_FS+0x36>
	else if (Buf[0] == 0b00000100 || Buf[0] == 'e' || Buf[0] == 'E')
 8004d42:	2b04      	cmp	r3, #4
 8004d44:	d001      	beq.n	8004d4a <CDC_Receive_FS+0x152>
 8004d46:	2945      	cmp	r1, #69	; 0x45
 8004d48:	d108      	bne.n	8004d5c <CDC_Receive_FS+0x164>
		HAL_GPIO_WritePin(PWR3_GPIO_Port, PWR3_Pin, RESET);
 8004d4a:	2180      	movs	r1, #128	; 0x80
 8004d4c:	4839      	ldr	r0, [pc, #228]	; (8004e34 <CDC_Receive_FS+0x23c>)
 8004d4e:	0189      	lsls	r1, r1, #6
 8004d50:	2200      	movs	r2, #0
 8004d52:	f7fd fb5b 	bl	800240c <HAL_GPIO_WritePin>
		CDC_Transmit_FS((uint8_t*) "4", 1);
 8004d56:	2101      	movs	r1, #1
 8004d58:	4841      	ldr	r0, [pc, #260]	; (8004e60 <CDC_Receive_FS+0x268>)
 8004d5a:	e768      	b.n	8004c2e <CDC_Receive_FS+0x36>
	else if (Buf[0] == 0b00001000 || Buf[0] == 'r' || Buf[0] == 'R')
 8004d5c:	2b08      	cmp	r3, #8
 8004d5e:	d001      	beq.n	8004d64 <CDC_Receive_FS+0x16c>
 8004d60:	2952      	cmp	r1, #82	; 0x52
 8004d62:	d108      	bne.n	8004d76 <CDC_Receive_FS+0x17e>
		HAL_GPIO_WritePin(PWR4_GPIO_Port, PWR4_Pin, RESET);
 8004d64:	2180      	movs	r1, #128	; 0x80
 8004d66:	4833      	ldr	r0, [pc, #204]	; (8004e34 <CDC_Receive_FS+0x23c>)
 8004d68:	0149      	lsls	r1, r1, #5
 8004d6a:	2200      	movs	r2, #0
 8004d6c:	f7fd fb4e 	bl	800240c <HAL_GPIO_WritePin>
		CDC_Transmit_FS((uint8_t*) "8", 1);
 8004d70:	2101      	movs	r1, #1
 8004d72:	483c      	ldr	r0, [pc, #240]	; (8004e64 <CDC_Receive_FS+0x26c>)
 8004d74:	e75b      	b.n	8004c2e <CDC_Receive_FS+0x36>
	else if (Buf[0] == 0b00010000 || Buf[0] == 't' || Buf[0] == 'T')
 8004d76:	2b10      	cmp	r3, #16
 8004d78:	d001      	beq.n	8004d7e <CDC_Receive_FS+0x186>
 8004d7a:	2954      	cmp	r1, #84	; 0x54
 8004d7c:	d108      	bne.n	8004d90 <CDC_Receive_FS+0x198>
		HAL_GPIO_WritePin(PWR5_GPIO_Port, PWR5_Pin, RESET);
 8004d7e:	2180      	movs	r1, #128	; 0x80
 8004d80:	482c      	ldr	r0, [pc, #176]	; (8004e34 <CDC_Receive_FS+0x23c>)
 8004d82:	0109      	lsls	r1, r1, #4
 8004d84:	2200      	movs	r2, #0
 8004d86:	f7fd fb41 	bl	800240c <HAL_GPIO_WritePin>
		CDC_Transmit_FS((uint8_t*) "16", 2);
 8004d8a:	2102      	movs	r1, #2
 8004d8c:	4836      	ldr	r0, [pc, #216]	; (8004e68 <CDC_Receive_FS+0x270>)
 8004d8e:	e74e      	b.n	8004c2e <CDC_Receive_FS+0x36>
	else if (Buf[0] == 0b00100000 || Buf[0] == 'y' || Buf[0] == 'Y')
 8004d90:	2b20      	cmp	r3, #32
 8004d92:	d002      	beq.n	8004d9a <CDC_Receive_FS+0x1a2>
 8004d94:	2959      	cmp	r1, #89	; 0x59
 8004d96:	d000      	beq.n	8004d9a <CDC_Receive_FS+0x1a2>
 8004d98:	e74b      	b.n	8004c32 <CDC_Receive_FS+0x3a>
		HAL_GPIO_WritePin(PWR6_GPIO_Port, PWR6_Pin, RESET);
 8004d9a:	2180      	movs	r1, #128	; 0x80
 8004d9c:	4825      	ldr	r0, [pc, #148]	; (8004e34 <CDC_Receive_FS+0x23c>)
 8004d9e:	00c9      	lsls	r1, r1, #3
 8004da0:	2200      	movs	r2, #0
 8004da2:	f7fd fb33 	bl	800240c <HAL_GPIO_WritePin>
		CDC_Transmit_FS((uint8_t*) "32", 2);
 8004da6:	2102      	movs	r1, #2
 8004da8:	4830      	ldr	r0, [pc, #192]	; (8004e6c <CDC_Receive_FS+0x274>)
 8004daa:	e740      	b.n	8004c2e <CDC_Receive_FS+0x36>
	else if (Buf[0] == 0b00000010 || Buf[0] == 'x' || Buf[0] == 'X')
 8004dac:	2b02      	cmp	r3, #2
 8004dae:	d001      	beq.n	8004db4 <CDC_Receive_FS+0x1bc>
 8004db0:	2958      	cmp	r1, #88	; 0x58
 8004db2:	d108      	bne.n	8004dc6 <CDC_Receive_FS+0x1ce>
		HAL_GPIO_WritePin(PWR2_GPIO_Port, PWR2_Pin, SET);
 8004db4:	2180      	movs	r1, #128	; 0x80
 8004db6:	481f      	ldr	r0, [pc, #124]	; (8004e34 <CDC_Receive_FS+0x23c>)
 8004db8:	01c9      	lsls	r1, r1, #7
 8004dba:	2201      	movs	r2, #1
 8004dbc:	f7fd fb26 	bl	800240c <HAL_GPIO_WritePin>
		CDC_Transmit_FS((uint8_t*) "2", 1);
 8004dc0:	2101      	movs	r1, #1
 8004dc2:	4826      	ldr	r0, [pc, #152]	; (8004e5c <CDC_Receive_FS+0x264>)
 8004dc4:	e746      	b.n	8004c54 <CDC_Receive_FS+0x5c>
	else if (Buf[0] == 0b00000100 || Buf[0] == 'c' || Buf[0] == 'C')
 8004dc6:	2b04      	cmp	r3, #4
 8004dc8:	d001      	beq.n	8004dce <CDC_Receive_FS+0x1d6>
 8004dca:	2943      	cmp	r1, #67	; 0x43
 8004dcc:	d108      	bne.n	8004de0 <CDC_Receive_FS+0x1e8>
		HAL_GPIO_WritePin(PWR3_GPIO_Port, PWR3_Pin, SET);
 8004dce:	2180      	movs	r1, #128	; 0x80
 8004dd0:	4818      	ldr	r0, [pc, #96]	; (8004e34 <CDC_Receive_FS+0x23c>)
 8004dd2:	0189      	lsls	r1, r1, #6
 8004dd4:	2201      	movs	r2, #1
 8004dd6:	f7fd fb19 	bl	800240c <HAL_GPIO_WritePin>
		CDC_Transmit_FS((uint8_t*) "4", 1);
 8004dda:	2101      	movs	r1, #1
 8004ddc:	4820      	ldr	r0, [pc, #128]	; (8004e60 <CDC_Receive_FS+0x268>)
 8004dde:	e739      	b.n	8004c54 <CDC_Receive_FS+0x5c>
	else if (Buf[0] == 0b00001000 || Buf[0] == 'v' || Buf[0] == 'V')
 8004de0:	2b08      	cmp	r3, #8
 8004de2:	d001      	beq.n	8004de8 <CDC_Receive_FS+0x1f0>
 8004de4:	2956      	cmp	r1, #86	; 0x56
 8004de6:	d108      	bne.n	8004dfa <CDC_Receive_FS+0x202>
		HAL_GPIO_WritePin(PWR4_GPIO_Port, PWR4_Pin, SET);
 8004de8:	2180      	movs	r1, #128	; 0x80
 8004dea:	4812      	ldr	r0, [pc, #72]	; (8004e34 <CDC_Receive_FS+0x23c>)
 8004dec:	0149      	lsls	r1, r1, #5
 8004dee:	2201      	movs	r2, #1
 8004df0:	f7fd fb0c 	bl	800240c <HAL_GPIO_WritePin>
		CDC_Transmit_FS((uint8_t*) "8", 1);
 8004df4:	2101      	movs	r1, #1
 8004df6:	481b      	ldr	r0, [pc, #108]	; (8004e64 <CDC_Receive_FS+0x26c>)
 8004df8:	e72c      	b.n	8004c54 <CDC_Receive_FS+0x5c>
	else if (Buf[0] == 0b00010000 || Buf[0] == 'b' || Buf[0] == 'B')
 8004dfa:	2b10      	cmp	r3, #16
 8004dfc:	d001      	beq.n	8004e02 <CDC_Receive_FS+0x20a>
 8004dfe:	2942      	cmp	r1, #66	; 0x42
 8004e00:	d108      	bne.n	8004e14 <CDC_Receive_FS+0x21c>
		HAL_GPIO_WritePin(PWR5_GPIO_Port, PWR5_Pin, SET);
 8004e02:	2180      	movs	r1, #128	; 0x80
 8004e04:	480b      	ldr	r0, [pc, #44]	; (8004e34 <CDC_Receive_FS+0x23c>)
 8004e06:	0109      	lsls	r1, r1, #4
 8004e08:	2201      	movs	r2, #1
 8004e0a:	f7fd faff 	bl	800240c <HAL_GPIO_WritePin>
		CDC_Transmit_FS((uint8_t*) "16", 2);
 8004e0e:	2102      	movs	r1, #2
 8004e10:	4815      	ldr	r0, [pc, #84]	; (8004e68 <CDC_Receive_FS+0x270>)
 8004e12:	e71f      	b.n	8004c54 <CDC_Receive_FS+0x5c>
	else if (Buf[0] == 0b00100000 || Buf[0] == 'n' || Buf[0] == 'N')
 8004e14:	2b20      	cmp	r3, #32
 8004e16:	d002      	beq.n	8004e1e <CDC_Receive_FS+0x226>
 8004e18:	294e      	cmp	r1, #78	; 0x4e
 8004e1a:	d000      	beq.n	8004e1e <CDC_Receive_FS+0x226>
 8004e1c:	e71c      	b.n	8004c58 <CDC_Receive_FS+0x60>
		HAL_GPIO_WritePin(PWR6_GPIO_Port, PWR6_Pin, SET);
 8004e1e:	2180      	movs	r1, #128	; 0x80
 8004e20:	4804      	ldr	r0, [pc, #16]	; (8004e34 <CDC_Receive_FS+0x23c>)
 8004e22:	00c9      	lsls	r1, r1, #3
 8004e24:	2201      	movs	r2, #1
 8004e26:	f7fd faf1 	bl	800240c <HAL_GPIO_WritePin>
		CDC_Transmit_FS((uint8_t*) "32", 2);
 8004e2a:	2102      	movs	r1, #2
 8004e2c:	480f      	ldr	r0, [pc, #60]	; (8004e6c <CDC_Receive_FS+0x274>)
 8004e2e:	e711      	b.n	8004c54 <CDC_Receive_FS+0x5c>
 8004e30:	20000684 	.word	0x20000684
 8004e34:	48000400 	.word	0x48000400
 8004e38:	08005ba0 	.word	0x08005ba0
 8004e3c:	08005bac 	.word	0x08005bac
 8004e40:	08005baf 	.word	0x08005baf
 8004e44:	2000011f 	.word	0x2000011f
 8004e48:	20000339 	.word	0x20000339
 8004e4c:	200005f4 	.word	0x200005f4
 8004e50:	41200000 	.word	0x41200000
 8004e54:	20000ad8 	.word	0x20000ad8
 8004e58:	08005bb1 	.word	0x08005bb1
 8004e5c:	08005baa 	.word	0x08005baa
 8004e60:	08005ba2 	.word	0x08005ba2
 8004e64:	08005ba4 	.word	0x08005ba4
 8004e68:	08005ba6 	.word	0x08005ba6
 8004e6c:	08005ba9 	.word	0x08005ba9

08004e70 <USBD_FS_DeviceDescriptor>:
  * @retval Pointer to descriptor buffer
  */
uint8_t * USBD_FS_DeviceDescriptor(USBD_SpeedTypeDef speed, uint16_t *length)
{
  UNUSED(speed);
  *length = sizeof(USBD_FS_DeviceDesc);
 8004e70:	2312      	movs	r3, #18
  return USBD_FS_DeviceDesc;
}
 8004e72:	4801      	ldr	r0, [pc, #4]	; (8004e78 <USBD_FS_DeviceDescriptor+0x8>)
  *length = sizeof(USBD_FS_DeviceDesc);
 8004e74:	800b      	strh	r3, [r1, #0]
}
 8004e76:	4770      	bx	lr
 8004e78:	2000027c 	.word	0x2000027c

08004e7c <USBD_FS_LangIDStrDescriptor>:
  * @retval Pointer to descriptor buffer
  */
uint8_t * USBD_FS_LangIDStrDescriptor(USBD_SpeedTypeDef speed, uint16_t *length)
{
  UNUSED(speed);
  *length = sizeof(USBD_LangIDDesc);
 8004e7c:	2304      	movs	r3, #4
  return USBD_LangIDDesc;
}
 8004e7e:	4801      	ldr	r0, [pc, #4]	; (8004e84 <USBD_FS_LangIDStrDescriptor+0x8>)
  *length = sizeof(USBD_LangIDDesc);
 8004e80:	800b      	strh	r3, [r1, #0]
}
 8004e82:	4770      	bx	lr
 8004e84:	20000290 	.word	0x20000290

08004e88 <IntToUnicode>:
  * @param  pbuf: pointer to the buffer
  * @param  len: buffer length
  * @retval None
  */
static void IntToUnicode(uint32_t value, uint8_t * pbuf, uint8_t len)
{
 8004e88:	b530      	push	{r4, r5, lr}
      pbuf[2 * idx] = (value >> 28) + 'A' - 10;
    }

    value = value << 4;

    pbuf[2 * idx + 1] = 0;
 8004e8a:	2500      	movs	r5, #0
 8004e8c:	3a01      	subs	r2, #1
 8004e8e:	b2d2      	uxtb	r2, r2
 8004e90:	0052      	lsls	r2, r2, #1
 8004e92:	1c8b      	adds	r3, r1, #2
 8004e94:	18d2      	adds	r2, r2, r3
    if (((value >> 28)) < 0xA)
 8004e96:	0f04      	lsrs	r4, r0, #28
 8004e98:	b2e3      	uxtb	r3, r4
 8004e9a:	2c09      	cmp	r4, #9
 8004e9c:	d807      	bhi.n	8004eae <IntToUnicode+0x26>
      pbuf[2 * idx] = (value >> 28) + '0';
 8004e9e:	3330      	adds	r3, #48	; 0x30
      pbuf[2 * idx] = (value >> 28) + 'A' - 10;
 8004ea0:	700b      	strb	r3, [r1, #0]
    pbuf[2 * idx + 1] = 0;
 8004ea2:	704d      	strb	r5, [r1, #1]
 8004ea4:	3102      	adds	r1, #2
    value = value << 4;
 8004ea6:	0100      	lsls	r0, r0, #4
  for (idx = 0; idx < len; idx++)
 8004ea8:	428a      	cmp	r2, r1
 8004eaa:	d1f4      	bne.n	8004e96 <IntToUnicode+0xe>
  }
}
 8004eac:	bd30      	pop	{r4, r5, pc}
      pbuf[2 * idx] = (value >> 28) + 'A' - 10;
 8004eae:	3337      	adds	r3, #55	; 0x37
 8004eb0:	e7f6      	b.n	8004ea0 <IntToUnicode+0x18>
	...

08004eb4 <USBD_FS_SerialStrDescriptor>:
  *length = USB_SIZ_STRING_SERIAL;
 8004eb4:	231a      	movs	r3, #26
{
 8004eb6:	b570      	push	{r4, r5, r6, lr}
  *length = USB_SIZ_STRING_SERIAL;
 8004eb8:	800b      	strh	r3, [r1, #0]
  deviceserial0 = *(uint32_t *) DEVICE_ID1;
 8004eba:	4b0b      	ldr	r3, [pc, #44]	; (8004ee8 <USBD_FS_SerialStrDescriptor+0x34>)
 8004ebc:	4c0b      	ldr	r4, [pc, #44]	; (8004eec <USBD_FS_SerialStrDescriptor+0x38>)
 8004ebe:	6818      	ldr	r0, [r3, #0]
  deviceserial2 = *(uint32_t *) DEVICE_ID3;
 8004ec0:	4b0b      	ldr	r3, [pc, #44]	; (8004ef0 <USBD_FS_SerialStrDescriptor+0x3c>)
  deviceserial0 += deviceserial2;
 8004ec2:	681b      	ldr	r3, [r3, #0]
 8004ec4:	18c0      	adds	r0, r0, r3
  if (deviceserial0 != 0)
 8004ec6:	2800      	cmp	r0, #0
 8004ec8:	d00b      	beq.n	8004ee2 <USBD_FS_SerialStrDescriptor+0x2e>
  deviceserial1 = *(uint32_t *) DEVICE_ID2;
 8004eca:	4b0a      	ldr	r3, [pc, #40]	; (8004ef4 <USBD_FS_SerialStrDescriptor+0x40>)
    IntToUnicode(deviceserial0, &USBD_StringSerial[2], 8);
 8004ecc:	1ca1      	adds	r1, r4, #2
 8004ece:	2208      	movs	r2, #8
  deviceserial1 = *(uint32_t *) DEVICE_ID2;
 8004ed0:	681d      	ldr	r5, [r3, #0]
    IntToUnicode(deviceserial0, &USBD_StringSerial[2], 8);
 8004ed2:	f7ff ffd9 	bl	8004e88 <IntToUnicode>
    IntToUnicode(deviceserial1, &USBD_StringSerial[18], 4);
 8004ed6:	0021      	movs	r1, r4
 8004ed8:	2204      	movs	r2, #4
 8004eda:	3112      	adds	r1, #18
 8004edc:	0028      	movs	r0, r5
 8004ede:	f7ff ffd3 	bl	8004e88 <IntToUnicode>
}
 8004ee2:	0020      	movs	r0, r4
 8004ee4:	bd70      	pop	{r4, r5, r6, pc}
 8004ee6:	46c0      	nop			; (mov r8, r8)
 8004ee8:	1ffff7ac 	.word	0x1ffff7ac
 8004eec:	20000294 	.word	0x20000294
 8004ef0:	1ffff7b4 	.word	0x1ffff7b4
 8004ef4:	1ffff7b0 	.word	0x1ffff7b0

08004ef8 <USBD_FS_ManufacturerStrDescriptor>:
{
 8004ef8:	b510      	push	{r4, lr}
  USBD_GetString((uint8_t *)USBD_MANUFACTURER_STRING, USBD_StrDesc, length);
 8004efa:	4c04      	ldr	r4, [pc, #16]	; (8004f0c <USBD_FS_ManufacturerStrDescriptor+0x14>)
{
 8004efc:	000a      	movs	r2, r1
  USBD_GetString((uint8_t *)USBD_MANUFACTURER_STRING, USBD_StrDesc, length);
 8004efe:	4804      	ldr	r0, [pc, #16]	; (8004f10 <USBD_FS_ManufacturerStrDescriptor+0x18>)
 8004f00:	0021      	movs	r1, r4
 8004f02:	f7ff fdb4 	bl	8004a6e <USBD_GetString>
}
 8004f06:	0020      	movs	r0, r4
 8004f08:	bd10      	pop	{r4, pc}
 8004f0a:	46c0      	nop			; (mov r8, r8)
 8004f0c:	20000aec 	.word	0x20000aec
 8004f10:	08005bd4 	.word	0x08005bd4

08004f14 <USBD_FS_ProductStrDescriptor>:
{
 8004f14:	b510      	push	{r4, lr}
    USBD_GetString((uint8_t *)USBD_PRODUCT_STRING_FS, USBD_StrDesc, length);
 8004f16:	4c04      	ldr	r4, [pc, #16]	; (8004f28 <USBD_FS_ProductStrDescriptor+0x14>)
{
 8004f18:	000a      	movs	r2, r1
    USBD_GetString((uint8_t *)USBD_PRODUCT_STRING_FS, USBD_StrDesc, length);
 8004f1a:	4804      	ldr	r0, [pc, #16]	; (8004f2c <USBD_FS_ProductStrDescriptor+0x18>)
 8004f1c:	0021      	movs	r1, r4
 8004f1e:	f7ff fda6 	bl	8004a6e <USBD_GetString>
}
 8004f22:	0020      	movs	r0, r4
 8004f24:	bd10      	pop	{r4, pc}
 8004f26:	46c0      	nop			; (mov r8, r8)
 8004f28:	20000aec 	.word	0x20000aec
 8004f2c:	08005be7 	.word	0x08005be7

08004f30 <USBD_FS_ConfigStrDescriptor>:
{
 8004f30:	b510      	push	{r4, lr}
    USBD_GetString((uint8_t *)USBD_CONFIGURATION_STRING_FS, USBD_StrDesc, length);
 8004f32:	4c04      	ldr	r4, [pc, #16]	; (8004f44 <USBD_FS_ConfigStrDescriptor+0x14>)
{
 8004f34:	000a      	movs	r2, r1
    USBD_GetString((uint8_t *)USBD_CONFIGURATION_STRING_FS, USBD_StrDesc, length);
 8004f36:	4804      	ldr	r0, [pc, #16]	; (8004f48 <USBD_FS_ConfigStrDescriptor+0x18>)
 8004f38:	0021      	movs	r1, r4
 8004f3a:	f7ff fd98 	bl	8004a6e <USBD_GetString>
}
 8004f3e:	0020      	movs	r0, r4
 8004f40:	bd10      	pop	{r4, pc}
 8004f42:	46c0      	nop			; (mov r8, r8)
 8004f44:	20000aec 	.word	0x20000aec
 8004f48:	08005bbb 	.word	0x08005bbb

08004f4c <USBD_FS_InterfaceStrDescriptor>:
{
 8004f4c:	b510      	push	{r4, lr}
    USBD_GetString((uint8_t *)USBD_INTERFACE_STRING_FS, USBD_StrDesc, length);
 8004f4e:	4c04      	ldr	r4, [pc, #16]	; (8004f60 <USBD_FS_InterfaceStrDescriptor+0x14>)
{
 8004f50:	000a      	movs	r2, r1
    USBD_GetString((uint8_t *)USBD_INTERFACE_STRING_FS, USBD_StrDesc, length);
 8004f52:	4804      	ldr	r0, [pc, #16]	; (8004f64 <USBD_FS_InterfaceStrDescriptor+0x18>)
 8004f54:	0021      	movs	r1, r4
 8004f56:	f7ff fd8a 	bl	8004a6e <USBD_GetString>
}
 8004f5a:	0020      	movs	r0, r4
 8004f5c:	bd10      	pop	{r4, pc}
 8004f5e:	46c0      	nop			; (mov r8, r8)
 8004f60:	20000aec 	.word	0x20000aec
 8004f64:	08005bc6 	.word	0x08005bc6

08004f68 <HAL_PCD_MspInit>:
                       LL Driver Callbacks (PCD -> USB Device Library)
*******************************************************************************/
/* MSP Init */

void HAL_PCD_MspInit(PCD_HandleTypeDef* pcdHandle)
{
 8004f68:	b507      	push	{r0, r1, r2, lr}
  if(pcdHandle->Instance==USB)
 8004f6a:	4b0b      	ldr	r3, [pc, #44]	; (8004f98 <HAL_PCD_MspInit+0x30>)
 8004f6c:	6802      	ldr	r2, [r0, #0]
 8004f6e:	429a      	cmp	r2, r3
 8004f70:	d111      	bne.n	8004f96 <HAL_PCD_MspInit+0x2e>
  {
  /* USER CODE BEGIN USB_MspInit 0 */

  /* USER CODE END USB_MspInit 0 */
    /* Peripheral clock enable */
    __HAL_RCC_USB_CLK_ENABLE();
 8004f72:	2080      	movs	r0, #128	; 0x80
 8004f74:	4a09      	ldr	r2, [pc, #36]	; (8004f9c <HAL_PCD_MspInit+0x34>)
 8004f76:	0400      	lsls	r0, r0, #16
 8004f78:	69d1      	ldr	r1, [r2, #28]
 8004f7a:	4301      	orrs	r1, r0
 8004f7c:	61d1      	str	r1, [r2, #28]
 8004f7e:	69d3      	ldr	r3, [r2, #28]

    /* Peripheral interrupt init */
    HAL_NVIC_SetPriority(USB_IRQn, 0, 0);
 8004f80:	2200      	movs	r2, #0
    __HAL_RCC_USB_CLK_ENABLE();
 8004f82:	4003      	ands	r3, r0
 8004f84:	9301      	str	r3, [sp, #4]
    HAL_NVIC_SetPriority(USB_IRQn, 0, 0);
 8004f86:	201f      	movs	r0, #31
 8004f88:	0011      	movs	r1, r2
    __HAL_RCC_USB_CLK_ENABLE();
 8004f8a:	9b01      	ldr	r3, [sp, #4]
    HAL_NVIC_SetPriority(USB_IRQn, 0, 0);
 8004f8c:	f7fd f890 	bl	80020b0 <HAL_NVIC_SetPriority>
    HAL_NVIC_EnableIRQ(USB_IRQn);
 8004f90:	201f      	movs	r0, #31
 8004f92:	f7fd f8b7 	bl	8002104 <HAL_NVIC_EnableIRQ>
  /* USER CODE BEGIN USB_MspInit 1 */

  /* USER CODE END USB_MspInit 1 */
  }
}
 8004f96:	bd07      	pop	{r0, r1, r2, pc}
 8004f98:	40005c00 	.word	0x40005c00
 8004f9c:	40021000 	.word	0x40021000

08004fa0 <HAL_PCD_MspDeInit>:

void HAL_PCD_MspDeInit(PCD_HandleTypeDef* pcdHandle)
{
  if(pcdHandle->Instance==USB)
 8004fa0:	4b06      	ldr	r3, [pc, #24]	; (8004fbc <HAL_PCD_MspDeInit+0x1c>)
 8004fa2:	6802      	ldr	r2, [r0, #0]
{
 8004fa4:	b510      	push	{r4, lr}
  if(pcdHandle->Instance==USB)
 8004fa6:	429a      	cmp	r2, r3
 8004fa8:	d107      	bne.n	8004fba <HAL_PCD_MspDeInit+0x1a>
  {
  /* USER CODE BEGIN USB_MspDeInit 0 */

  /* USER CODE END USB_MspDeInit 0 */
    /* Peripheral clock disable */
    __HAL_RCC_USB_CLK_DISABLE();
 8004faa:	4a05      	ldr	r2, [pc, #20]	; (8004fc0 <HAL_PCD_MspDeInit+0x20>)
 8004fac:	4905      	ldr	r1, [pc, #20]	; (8004fc4 <HAL_PCD_MspDeInit+0x24>)
 8004fae:	69d3      	ldr	r3, [r2, #28]

    /* Peripheral interrupt Deinit*/
    HAL_NVIC_DisableIRQ(USB_IRQn);
 8004fb0:	201f      	movs	r0, #31
    __HAL_RCC_USB_CLK_DISABLE();
 8004fb2:	400b      	ands	r3, r1
 8004fb4:	61d3      	str	r3, [r2, #28]
    HAL_NVIC_DisableIRQ(USB_IRQn);
 8004fb6:	f7fd f8b1 	bl	800211c <HAL_NVIC_DisableIRQ>

  /* USER CODE BEGIN USB_MspDeInit 1 */

  /* USER CODE END USB_MspDeInit 1 */
  }
}
 8004fba:	bd10      	pop	{r4, pc}
 8004fbc:	40005c00 	.word	0x40005c00
 8004fc0:	40021000 	.word	0x40021000
 8004fc4:	ff7fffff 	.word	0xff7fffff

08004fc8 <HAL_PCD_SetupStageCallback>:
static void PCD_SetupStageCallback(PCD_HandleTypeDef *hpcd)
#else
void HAL_PCD_SetupStageCallback(PCD_HandleTypeDef *hpcd)
#endif /* USE_HAL_PCD_REGISTER_CALLBACKS */
{
  USBD_LL_SetupStage((USBD_HandleTypeDef*)hpcd->pData, (uint8_t *)hpcd->Setup);
 8004fc8:	238c      	movs	r3, #140	; 0x8c
{
 8004fca:	b510      	push	{r4, lr}
  USBD_LL_SetupStage((USBD_HandleTypeDef*)hpcd->pData, (uint8_t *)hpcd->Setup);
 8004fcc:	009b      	lsls	r3, r3, #2
 8004fce:	18c1      	adds	r1, r0, r3
 8004fd0:	3340      	adds	r3, #64	; 0x40
 8004fd2:	58c0      	ldr	r0, [r0, r3]
 8004fd4:	f7ff fa0a 	bl	80043ec <USBD_LL_SetupStage>
}
 8004fd8:	bd10      	pop	{r4, pc}

08004fda <HAL_PCD_DataOutStageCallback>:
static void PCD_DataOutStageCallback(PCD_HandleTypeDef *hpcd, uint8_t epnum)
#else
void HAL_PCD_DataOutStageCallback(PCD_HandleTypeDef *hpcd, uint8_t epnum)
#endif /* USE_HAL_PCD_REGISTER_CALLBACKS */
{
  USBD_LL_DataOutStage((USBD_HandleTypeDef*)hpcd->pData, epnum, hpcd->OUT_ep[epnum].xfer_buff);
 8004fda:	014b      	lsls	r3, r1, #5
 8004fdc:	18c3      	adds	r3, r0, r3
 8004fde:	33fc      	adds	r3, #252	; 0xfc
 8004fe0:	6c1a      	ldr	r2, [r3, #64]	; 0x40
 8004fe2:	239c      	movs	r3, #156	; 0x9c
{
 8004fe4:	b510      	push	{r4, lr}
  USBD_LL_DataOutStage((USBD_HandleTypeDef*)hpcd->pData, epnum, hpcd->OUT_ep[epnum].xfer_buff);
 8004fe6:	009b      	lsls	r3, r3, #2
 8004fe8:	58c0      	ldr	r0, [r0, r3]
 8004fea:	f7ff fa31 	bl	8004450 <USBD_LL_DataOutStage>
}
 8004fee:	bd10      	pop	{r4, pc}

08004ff0 <HAL_PCD_DataInStageCallback>:
static void PCD_DataInStageCallback(PCD_HandleTypeDef *hpcd, uint8_t epnum)
#else
void HAL_PCD_DataInStageCallback(PCD_HandleTypeDef *hpcd, uint8_t epnum)
#endif /* USE_HAL_PCD_REGISTER_CALLBACKS */
{
  USBD_LL_DataInStage((USBD_HandleTypeDef*)hpcd->pData, epnum, hpcd->IN_ep[epnum].xfer_buff);
 8004ff0:	014b      	lsls	r3, r1, #5
 8004ff2:	18c3      	adds	r3, r0, r3
 8004ff4:	6bda      	ldr	r2, [r3, #60]	; 0x3c
 8004ff6:	239c      	movs	r3, #156	; 0x9c
{
 8004ff8:	b510      	push	{r4, lr}
  USBD_LL_DataInStage((USBD_HandleTypeDef*)hpcd->pData, epnum, hpcd->IN_ep[epnum].xfer_buff);
 8004ffa:	009b      	lsls	r3, r3, #2
 8004ffc:	58c0      	ldr	r0, [r0, r3]
 8004ffe:	f7ff fa6b 	bl	80044d8 <USBD_LL_DataInStage>
}
 8005002:	bd10      	pop	{r4, pc}

08005004 <HAL_PCD_SOFCallback>:
static void PCD_SOFCallback(PCD_HandleTypeDef *hpcd)
#else
void HAL_PCD_SOFCallback(PCD_HandleTypeDef *hpcd)
#endif /* USE_HAL_PCD_REGISTER_CALLBACKS */
{
  USBD_LL_SOF((USBD_HandleTypeDef*)hpcd->pData);
 8005004:	239c      	movs	r3, #156	; 0x9c
{
 8005006:	b510      	push	{r4, lr}
  USBD_LL_SOF((USBD_HandleTypeDef*)hpcd->pData);
 8005008:	009b      	lsls	r3, r3, #2
 800500a:	58c0      	ldr	r0, [r0, r3]
 800500c:	f7ff fb0c 	bl	8004628 <USBD_LL_SOF>
}
 8005010:	bd10      	pop	{r4, pc}

08005012 <HAL_PCD_ResetCallback>:
void HAL_PCD_ResetCallback(PCD_HandleTypeDef *hpcd)
#endif /* USE_HAL_PCD_REGISTER_CALLBACKS */
{
  USBD_SpeedTypeDef speed = USBD_SPEED_FULL;

  if ( hpcd->Init.speed != PCD_SPEED_FULL)
 8005012:	6883      	ldr	r3, [r0, #8]
{
 8005014:	b570      	push	{r4, r5, r6, lr}
 8005016:	0004      	movs	r4, r0
  if ( hpcd->Init.speed != PCD_SPEED_FULL)
 8005018:	2b02      	cmp	r3, #2
 800501a:	d001      	beq.n	8005020 <HAL_PCD_ResetCallback+0xe>
  {
    Error_Handler();
 800501c:	f7fc fe96 	bl	8001d4c <Error_Handler>
  }
    /* Set Speed. */
  USBD_LL_SetSpeed((USBD_HandleTypeDef*)hpcd->pData, speed);
 8005020:	259c      	movs	r5, #156	; 0x9c
 8005022:	00ad      	lsls	r5, r5, #2
 8005024:	2101      	movs	r1, #1
 8005026:	5960      	ldr	r0, [r4, r5]
 8005028:	f7ff fae3 	bl	80045f2 <USBD_LL_SetSpeed>

  /* Reset Device. */
  USBD_LL_Reset((USBD_HandleTypeDef*)hpcd->pData);
 800502c:	5960      	ldr	r0, [r4, r5]
 800502e:	f7ff fab6 	bl	800459e <USBD_LL_Reset>
}
 8005032:	bd70      	pop	{r4, r5, r6, pc}

08005034 <HAL_PCD_SuspendCallback>:
#else
void HAL_PCD_SuspendCallback(PCD_HandleTypeDef *hpcd)
#endif /* USE_HAL_PCD_REGISTER_CALLBACKS */
{
  /* Inform USB library that core enters in suspend Mode. */
  USBD_LL_Suspend((USBD_HandleTypeDef*)hpcd->pData);
 8005034:	239c      	movs	r3, #156	; 0x9c
{
 8005036:	b510      	push	{r4, lr}
 8005038:	0004      	movs	r4, r0
  USBD_LL_Suspend((USBD_HandleTypeDef*)hpcd->pData);
 800503a:	009b      	lsls	r3, r3, #2
 800503c:	58c0      	ldr	r0, [r0, r3]
 800503e:	f7ff fadb 	bl	80045f8 <USBD_LL_Suspend>
  /* Enter in STOP mode. */
  /* USER CODE BEGIN 2 */
  if (hpcd->Init.low_power_enable)
 8005042:	69a3      	ldr	r3, [r4, #24]
 8005044:	2b00      	cmp	r3, #0
 8005046:	d004      	beq.n	8005052 <HAL_PCD_SuspendCallback+0x1e>
  {
    /* Set SLEEPDEEP bit and SleepOnExit of Cortex System Control Register. */
    SCB->SCR |= (uint32_t)((uint32_t)(SCB_SCR_SLEEPDEEP_Msk | SCB_SCR_SLEEPONEXIT_Msk));
 8005048:	2306      	movs	r3, #6
 800504a:	4a02      	ldr	r2, [pc, #8]	; (8005054 <HAL_PCD_SuspendCallback+0x20>)
 800504c:	6911      	ldr	r1, [r2, #16]
 800504e:	430b      	orrs	r3, r1
 8005050:	6113      	str	r3, [r2, #16]
  }
  /* USER CODE END 2 */
}
 8005052:	bd10      	pop	{r4, pc}
 8005054:	e000ed00 	.word	0xe000ed00

08005058 <HAL_PCD_ResumeCallback>:
#else
void HAL_PCD_ResumeCallback(PCD_HandleTypeDef *hpcd)
#endif /* USE_HAL_PCD_REGISTER_CALLBACKS */
{
  /* USER CODE BEGIN 3 */
  if (hpcd->Init.low_power_enable)
 8005058:	6983      	ldr	r3, [r0, #24]
{
 800505a:	b510      	push	{r4, lr}
 800505c:	0004      	movs	r4, r0
  if (hpcd->Init.low_power_enable)
 800505e:	2b00      	cmp	r3, #0
 8005060:	d006      	beq.n	8005070 <HAL_PCD_ResumeCallback+0x18>
  {
    /* Reset SLEEPDEEP bit of Cortex System Control Register. */
    SCB->SCR &= (uint32_t)~((uint32_t)(SCB_SCR_SLEEPDEEP_Msk | SCB_SCR_SLEEPONEXIT_Msk));
 8005062:	2106      	movs	r1, #6
 8005064:	4a05      	ldr	r2, [pc, #20]	; (800507c <HAL_PCD_ResumeCallback+0x24>)
 8005066:	6913      	ldr	r3, [r2, #16]
 8005068:	438b      	bics	r3, r1
 800506a:	6113      	str	r3, [r2, #16]
  *         enable HSI, PLL and select PLL as system clock source.
  * @retval None
  */
static void SystemClockConfig_Resume(void)
{
  SystemClock_Config();
 800506c:	f7fc fbee 	bl	800184c <SystemClock_Config>
  USBD_LL_Resume((USBD_HandleTypeDef*)hpcd->pData);
 8005070:	239c      	movs	r3, #156	; 0x9c
 8005072:	009b      	lsls	r3, r3, #2
 8005074:	58e0      	ldr	r0, [r4, r3]
 8005076:	f7ff facb 	bl	8004610 <USBD_LL_Resume>
}
 800507a:	bd10      	pop	{r4, pc}
 800507c:	e000ed00 	.word	0xe000ed00

08005080 <USBD_LL_Init>:
  hpcd_USB_FS.pData = pdev;
 8005080:	239c      	movs	r3, #156	; 0x9c
{
 8005082:	b570      	push	{r4, r5, r6, lr}
 8005084:	0005      	movs	r5, r0
  hpcd_USB_FS.pData = pdev;
 8005086:	481c      	ldr	r0, [pc, #112]	; (80050f8 <USBD_LL_Init+0x78>)
 8005088:	009b      	lsls	r3, r3, #2
 800508a:	50c5      	str	r5, [r0, r3]
  hpcd_USB_FS.Instance = USB;
 800508c:	4b1b      	ldr	r3, [pc, #108]	; (80050fc <USBD_LL_Init+0x7c>)
  pdev->pData = &hpcd_USB_FS;
 800508e:	24b0      	movs	r4, #176	; 0xb0
  hpcd_USB_FS.Instance = USB;
 8005090:	6003      	str	r3, [r0, #0]
  hpcd_USB_FS.Init.dev_endpoints = 8;
 8005092:	2308      	movs	r3, #8
 8005094:	6043      	str	r3, [r0, #4]
  hpcd_USB_FS.Init.speed = PCD_SPEED_FULL;
 8005096:	3b06      	subs	r3, #6
 8005098:	6083      	str	r3, [r0, #8]
  hpcd_USB_FS.Init.phy_itface = PCD_PHY_EMBEDDED;
 800509a:	6103      	str	r3, [r0, #16]
  hpcd_USB_FS.Init.low_power_enable = DISABLE;
 800509c:	2300      	movs	r3, #0
  pdev->pData = &hpcd_USB_FS;
 800509e:	00a4      	lsls	r4, r4, #2
 80050a0:	5128      	str	r0, [r5, r4]
  hpcd_USB_FS.Init.low_power_enable = DISABLE;
 80050a2:	6183      	str	r3, [r0, #24]
  hpcd_USB_FS.Init.lpm_enable = DISABLE;
 80050a4:	61c3      	str	r3, [r0, #28]
  hpcd_USB_FS.Init.battery_charging_enable = DISABLE;
 80050a6:	6203      	str	r3, [r0, #32]
  if (HAL_PCD_Init(&hpcd_USB_FS) != HAL_OK)
 80050a8:	f7fd fd08 	bl	8002abc <HAL_PCD_Init>
 80050ac:	2800      	cmp	r0, #0
 80050ae:	d001      	beq.n	80050b4 <USBD_LL_Init+0x34>
    Error_Handler( );
 80050b0:	f7fc fe4c 	bl	8001d4c <Error_Handler>
  HAL_PCDEx_PMAConfig((PCD_HandleTypeDef*)pdev->pData , 0x00 , PCD_SNG_BUF, 0x18);
 80050b4:	2200      	movs	r2, #0
 80050b6:	5928      	ldr	r0, [r5, r4]
 80050b8:	0011      	movs	r1, r2
 80050ba:	2318      	movs	r3, #24
 80050bc:	f7fe f8f7 	bl	80032ae <HAL_PCDEx_PMAConfig>
  HAL_PCDEx_PMAConfig((PCD_HandleTypeDef*)pdev->pData , 0x80 , PCD_SNG_BUF, 0x58);
 80050c0:	5928      	ldr	r0, [r5, r4]
 80050c2:	2358      	movs	r3, #88	; 0x58
 80050c4:	2200      	movs	r2, #0
 80050c6:	2180      	movs	r1, #128	; 0x80
 80050c8:	f7fe f8f1 	bl	80032ae <HAL_PCDEx_PMAConfig>
  HAL_PCDEx_PMAConfig((PCD_HandleTypeDef*)pdev->pData , 0x81 , PCD_SNG_BUF, 0xC0);
 80050cc:	5928      	ldr	r0, [r5, r4]
 80050ce:	23c0      	movs	r3, #192	; 0xc0
 80050d0:	2200      	movs	r2, #0
 80050d2:	2181      	movs	r1, #129	; 0x81
 80050d4:	f7fe f8eb 	bl	80032ae <HAL_PCDEx_PMAConfig>
  HAL_PCDEx_PMAConfig((PCD_HandleTypeDef*)pdev->pData , 0x01 , PCD_SNG_BUF, 0x110);
 80050d8:	2388      	movs	r3, #136	; 0x88
 80050da:	5928      	ldr	r0, [r5, r4]
 80050dc:	005b      	lsls	r3, r3, #1
 80050de:	2200      	movs	r2, #0
 80050e0:	2101      	movs	r1, #1
 80050e2:	f7fe f8e4 	bl	80032ae <HAL_PCDEx_PMAConfig>
  HAL_PCDEx_PMAConfig((PCD_HandleTypeDef*)pdev->pData , 0x82 , PCD_SNG_BUF, 0x100);
 80050e6:	2380      	movs	r3, #128	; 0x80
 80050e8:	5928      	ldr	r0, [r5, r4]
 80050ea:	005b      	lsls	r3, r3, #1
 80050ec:	2200      	movs	r2, #0
 80050ee:	2182      	movs	r1, #130	; 0x82
 80050f0:	f7fe f8dd 	bl	80032ae <HAL_PCDEx_PMAConfig>
}
 80050f4:	2000      	movs	r0, #0
 80050f6:	bd70      	pop	{r4, r5, r6, pc}
 80050f8:	20000cec 	.word	0x20000cec
 80050fc:	40005c00 	.word	0x40005c00

08005100 <USBD_LL_DeInit>:
  hal_status = HAL_PCD_DeInit(pdev->pData);
 8005100:	23b0      	movs	r3, #176	; 0xb0
 8005102:	009b      	lsls	r3, r3, #2
 8005104:	58c0      	ldr	r0, [r0, r3]
{
 8005106:	b510      	push	{r4, lr}
  hal_status = HAL_PCD_DeInit(pdev->pData);
 8005108:	f7fd fd60 	bl	8002bcc <HAL_PCD_DeInit>
 800510c:	2302      	movs	r3, #2
 800510e:	2803      	cmp	r0, #3
 8005110:	d801      	bhi.n	8005116 <USBD_LL_DeInit+0x16>
 8005112:	4b02      	ldr	r3, [pc, #8]	; (800511c <USBD_LL_DeInit+0x1c>)
 8005114:	5c1b      	ldrb	r3, [r3, r0]
}
 8005116:	0018      	movs	r0, r3
 8005118:	bd10      	pop	{r4, pc}
 800511a:	46c0      	nop			; (mov r8, r8)
 800511c:	08005bf4 	.word	0x08005bf4

08005120 <USBD_LL_Start>:
  hal_status = HAL_PCD_Start(pdev->pData);
 8005120:	23b0      	movs	r3, #176	; 0xb0
 8005122:	009b      	lsls	r3, r3, #2
 8005124:	58c0      	ldr	r0, [r0, r3]
{
 8005126:	b510      	push	{r4, lr}
  hal_status = HAL_PCD_Start(pdev->pData);
 8005128:	f7fd fd2a 	bl	8002b80 <HAL_PCD_Start>
 800512c:	2302      	movs	r3, #2
 800512e:	2803      	cmp	r0, #3
 8005130:	d801      	bhi.n	8005136 <USBD_LL_Start+0x16>
 8005132:	4b02      	ldr	r3, [pc, #8]	; (800513c <USBD_LL_Start+0x1c>)
 8005134:	5c1b      	ldrb	r3, [r3, r0]
}
 8005136:	0018      	movs	r0, r3
 8005138:	bd10      	pop	{r4, pc}
 800513a:	46c0      	nop			; (mov r8, r8)
 800513c:	08005bf4 	.word	0x08005bf4

08005140 <USBD_LL_Stop>:
  hal_status = HAL_PCD_Stop(pdev->pData);
 8005140:	23b0      	movs	r3, #176	; 0xb0
 8005142:	009b      	lsls	r3, r3, #2
 8005144:	58c0      	ldr	r0, [r0, r3]
{
 8005146:	b510      	push	{r4, lr}
  hal_status = HAL_PCD_Stop(pdev->pData);
 8005148:	f7fd fd2d 	bl	8002ba6 <HAL_PCD_Stop>
 800514c:	2302      	movs	r3, #2
 800514e:	2803      	cmp	r0, #3
 8005150:	d801      	bhi.n	8005156 <USBD_LL_Stop+0x16>
 8005152:	4b02      	ldr	r3, [pc, #8]	; (800515c <USBD_LL_Stop+0x1c>)
 8005154:	5c1b      	ldrb	r3, [r3, r0]
}
 8005156:	0018      	movs	r0, r3
 8005158:	bd10      	pop	{r4, pc}
 800515a:	46c0      	nop			; (mov r8, r8)
 800515c:	08005bf4 	.word	0x08005bf4

08005160 <USBD_LL_OpenEP>:
{
 8005160:	b510      	push	{r4, lr}
 8005162:	0014      	movs	r4, r2
 8005164:	001a      	movs	r2, r3
  hal_status = HAL_PCD_EP_Open(pdev->pData, ep_addr, ep_mps, ep_type);
 8005166:	0023      	movs	r3, r4
 8005168:	24b0      	movs	r4, #176	; 0xb0
 800516a:	00a4      	lsls	r4, r4, #2
 800516c:	5900      	ldr	r0, [r0, r4]
 800516e:	f7fd fd63 	bl	8002c38 <HAL_PCD_EP_Open>
 8005172:	2302      	movs	r3, #2
 8005174:	2803      	cmp	r0, #3
 8005176:	d801      	bhi.n	800517c <USBD_LL_OpenEP+0x1c>
 8005178:	4b01      	ldr	r3, [pc, #4]	; (8005180 <USBD_LL_OpenEP+0x20>)
 800517a:	5c1b      	ldrb	r3, [r3, r0]
}
 800517c:	0018      	movs	r0, r3
 800517e:	bd10      	pop	{r4, pc}
 8005180:	08005bf4 	.word	0x08005bf4

08005184 <USBD_LL_CloseEP>:
  hal_status = HAL_PCD_EP_Close(pdev->pData, ep_addr);
 8005184:	23b0      	movs	r3, #176	; 0xb0
 8005186:	009b      	lsls	r3, r3, #2
 8005188:	58c0      	ldr	r0, [r0, r3]
{
 800518a:	b510      	push	{r4, lr}
  hal_status = HAL_PCD_EP_Close(pdev->pData, ep_addr);
 800518c:	f7fd fd84 	bl	8002c98 <HAL_PCD_EP_Close>
 8005190:	2302      	movs	r3, #2
 8005192:	2803      	cmp	r0, #3
 8005194:	d801      	bhi.n	800519a <USBD_LL_CloseEP+0x16>
 8005196:	4b02      	ldr	r3, [pc, #8]	; (80051a0 <USBD_LL_CloseEP+0x1c>)
 8005198:	5c1b      	ldrb	r3, [r3, r0]
}
 800519a:	0018      	movs	r0, r3
 800519c:	bd10      	pop	{r4, pc}
 800519e:	46c0      	nop			; (mov r8, r8)
 80051a0:	08005bf4 	.word	0x08005bf4

080051a4 <USBD_LL_StallEP>:
  hal_status = HAL_PCD_EP_SetStall(pdev->pData, ep_addr);
 80051a4:	23b0      	movs	r3, #176	; 0xb0
 80051a6:	009b      	lsls	r3, r3, #2
 80051a8:	58c0      	ldr	r0, [r0, r3]
{
 80051aa:	b510      	push	{r4, lr}
  hal_status = HAL_PCD_EP_SetStall(pdev->pData, ep_addr);
 80051ac:	f7fe f81e 	bl	80031ec <HAL_PCD_EP_SetStall>
 80051b0:	2302      	movs	r3, #2
 80051b2:	2803      	cmp	r0, #3
 80051b4:	d801      	bhi.n	80051ba <USBD_LL_StallEP+0x16>
 80051b6:	4b02      	ldr	r3, [pc, #8]	; (80051c0 <USBD_LL_StallEP+0x1c>)
 80051b8:	5c1b      	ldrb	r3, [r3, r0]
}
 80051ba:	0018      	movs	r0, r3
 80051bc:	bd10      	pop	{r4, pc}
 80051be:	46c0      	nop			; (mov r8, r8)
 80051c0:	08005bf4 	.word	0x08005bf4

080051c4 <USBD_LL_ClearStallEP>:
  hal_status = HAL_PCD_EP_ClrStall(pdev->pData, ep_addr);
 80051c4:	23b0      	movs	r3, #176	; 0xb0
 80051c6:	009b      	lsls	r3, r3, #2
 80051c8:	58c0      	ldr	r0, [r0, r3]
{
 80051ca:	b510      	push	{r4, lr}
  hal_status = HAL_PCD_EP_ClrStall(pdev->pData, ep_addr);
 80051cc:	f7fe f843 	bl	8003256 <HAL_PCD_EP_ClrStall>
 80051d0:	2302      	movs	r3, #2
 80051d2:	2803      	cmp	r0, #3
 80051d4:	d801      	bhi.n	80051da <USBD_LL_ClearStallEP+0x16>
 80051d6:	4b02      	ldr	r3, [pc, #8]	; (80051e0 <USBD_LL_ClearStallEP+0x1c>)
 80051d8:	5c1b      	ldrb	r3, [r3, r0]
}
 80051da:	0018      	movs	r0, r3
 80051dc:	bd10      	pop	{r4, pc}
 80051de:	46c0      	nop			; (mov r8, r8)
 80051e0:	08005bf4 	.word	0x08005bf4

080051e4 <USBD_LL_IsStallEP>:
  PCD_HandleTypeDef *hpcd = (PCD_HandleTypeDef*) pdev->pData;
 80051e4:	23b0      	movs	r3, #176	; 0xb0
  if((ep_addr & 0x80) == 0x80)
 80051e6:	b24a      	sxtb	r2, r1
  PCD_HandleTypeDef *hpcd = (PCD_HandleTypeDef*) pdev->pData;
 80051e8:	009b      	lsls	r3, r3, #2
 80051ea:	58c3      	ldr	r3, [r0, r3]
  if((ep_addr & 0x80) == 0x80)
 80051ec:	2a00      	cmp	r2, #0
 80051ee:	da06      	bge.n	80051fe <USBD_LL_IsStallEP+0x1a>
    return hpcd->IN_ep[ep_addr & 0x7F].is_stall;
 80051f0:	227f      	movs	r2, #127	; 0x7f
 80051f2:	4011      	ands	r1, r2
 80051f4:	0149      	lsls	r1, r1, #5
 80051f6:	185b      	adds	r3, r3, r1
 80051f8:	332a      	adds	r3, #42	; 0x2a
    return hpcd->OUT_ep[ep_addr & 0x7F].is_stall;
 80051fa:	7818      	ldrb	r0, [r3, #0]
}
 80051fc:	4770      	bx	lr
    return hpcd->OUT_ep[ep_addr & 0x7F].is_stall;
 80051fe:	0149      	lsls	r1, r1, #5
 8005200:	185b      	adds	r3, r3, r1
 8005202:	332b      	adds	r3, #43	; 0x2b
 8005204:	33ff      	adds	r3, #255	; 0xff
 8005206:	e7f8      	b.n	80051fa <USBD_LL_IsStallEP+0x16>

08005208 <USBD_LL_SetUSBAddress>:
  hal_status = HAL_PCD_SetAddress(pdev->pData, dev_addr);
 8005208:	23b0      	movs	r3, #176	; 0xb0
 800520a:	009b      	lsls	r3, r3, #2
 800520c:	58c0      	ldr	r0, [r0, r3]
{
 800520e:	b510      	push	{r4, lr}
  hal_status = HAL_PCD_SetAddress(pdev->pData, dev_addr);
 8005210:	f7fd fd00 	bl	8002c14 <HAL_PCD_SetAddress>
 8005214:	2302      	movs	r3, #2
 8005216:	2803      	cmp	r0, #3
 8005218:	d801      	bhi.n	800521e <USBD_LL_SetUSBAddress+0x16>
 800521a:	4b02      	ldr	r3, [pc, #8]	; (8005224 <USBD_LL_SetUSBAddress+0x1c>)
 800521c:	5c1b      	ldrb	r3, [r3, r0]
}
 800521e:	0018      	movs	r0, r3
 8005220:	bd10      	pop	{r4, pc}
 8005222:	46c0      	nop			; (mov r8, r8)
 8005224:	08005bf4 	.word	0x08005bf4

08005228 <USBD_LL_Transmit>:
{
 8005228:	b510      	push	{r4, lr}
  hal_status = HAL_PCD_EP_Transmit(pdev->pData, ep_addr, pbuf, size);
 800522a:	24b0      	movs	r4, #176	; 0xb0
 800522c:	00a4      	lsls	r4, r4, #2
 800522e:	5900      	ldr	r0, [r0, r4]
 8005230:	f7fd fd78 	bl	8002d24 <HAL_PCD_EP_Transmit>
 8005234:	2302      	movs	r3, #2
 8005236:	2803      	cmp	r0, #3
 8005238:	d801      	bhi.n	800523e <USBD_LL_Transmit+0x16>
 800523a:	4b02      	ldr	r3, [pc, #8]	; (8005244 <USBD_LL_Transmit+0x1c>)
 800523c:	5c1b      	ldrb	r3, [r3, r0]
}
 800523e:	0018      	movs	r0, r3
 8005240:	bd10      	pop	{r4, pc}
 8005242:	46c0      	nop			; (mov r8, r8)
 8005244:	08005bf4 	.word	0x08005bf4

08005248 <USBD_LL_PrepareReceive>:
{
 8005248:	b510      	push	{r4, lr}
  hal_status = HAL_PCD_EP_Receive(pdev->pData, ep_addr, pbuf, size);
 800524a:	24b0      	movs	r4, #176	; 0xb0
 800524c:	00a4      	lsls	r4, r4, #2
 800524e:	5900      	ldr	r0, [r0, r4]
 8005250:	f7fd fd46 	bl	8002ce0 <HAL_PCD_EP_Receive>
 8005254:	2302      	movs	r3, #2
 8005256:	2803      	cmp	r0, #3
 8005258:	d801      	bhi.n	800525e <USBD_LL_PrepareReceive+0x16>
 800525a:	4b02      	ldr	r3, [pc, #8]	; (8005264 <USBD_LL_PrepareReceive+0x1c>)
 800525c:	5c1b      	ldrb	r3, [r3, r0]
}
 800525e:	0018      	movs	r0, r3
 8005260:	bd10      	pop	{r4, pc}
 8005262:	46c0      	nop			; (mov r8, r8)
 8005264:	08005bf4 	.word	0x08005bf4

08005268 <USBD_LL_GetRxDataSize>:
  return HAL_PCD_EP_GetRxCount((PCD_HandleTypeDef*) pdev->pData, ep_addr);
 8005268:	23b0      	movs	r3, #176	; 0xb0
{
 800526a:	b510      	push	{r4, lr}
  return HAL_PCD_EP_GetRxCount((PCD_HandleTypeDef*) pdev->pData, ep_addr);
 800526c:	009b      	lsls	r3, r3, #2
 800526e:	58c0      	ldr	r0, [r0, r3]
 8005270:	f7fd fd51 	bl	8002d16 <HAL_PCD_EP_GetRxCount>
}
 8005274:	bd10      	pop	{r4, pc}
	...

08005278 <USBD_static_malloc>:
}
 8005278:	4800      	ldr	r0, [pc, #0]	; (800527c <USBD_static_malloc+0x4>)
 800527a:	4770      	bx	lr
 800527c:	2000033c 	.word	0x2000033c

08005280 <USBD_static_free>:
}
 8005280:	4770      	bx	lr
	...

08005284 <__errno>:
 8005284:	4b01      	ldr	r3, [pc, #4]	; (800528c <__errno+0x8>)
 8005286:	6818      	ldr	r0, [r3, #0]
 8005288:	4770      	bx	lr
 800528a:	46c0      	nop			; (mov r8, r8)
 800528c:	200002b0 	.word	0x200002b0

08005290 <__libc_init_array>:
 8005290:	b570      	push	{r4, r5, r6, lr}
 8005292:	2600      	movs	r6, #0
 8005294:	4d0c      	ldr	r5, [pc, #48]	; (80052c8 <__libc_init_array+0x38>)
 8005296:	4c0d      	ldr	r4, [pc, #52]	; (80052cc <__libc_init_array+0x3c>)
 8005298:	1b64      	subs	r4, r4, r5
 800529a:	10a4      	asrs	r4, r4, #2
 800529c:	42a6      	cmp	r6, r4
 800529e:	d109      	bne.n	80052b4 <__libc_init_array+0x24>
 80052a0:	2600      	movs	r6, #0
 80052a2:	f000 fc29 	bl	8005af8 <_init>
 80052a6:	4d0a      	ldr	r5, [pc, #40]	; (80052d0 <__libc_init_array+0x40>)
 80052a8:	4c0a      	ldr	r4, [pc, #40]	; (80052d4 <__libc_init_array+0x44>)
 80052aa:	1b64      	subs	r4, r4, r5
 80052ac:	10a4      	asrs	r4, r4, #2
 80052ae:	42a6      	cmp	r6, r4
 80052b0:	d105      	bne.n	80052be <__libc_init_array+0x2e>
 80052b2:	bd70      	pop	{r4, r5, r6, pc}
 80052b4:	00b3      	lsls	r3, r6, #2
 80052b6:	58eb      	ldr	r3, [r5, r3]
 80052b8:	4798      	blx	r3
 80052ba:	3601      	adds	r6, #1
 80052bc:	e7ee      	b.n	800529c <__libc_init_array+0xc>
 80052be:	00b3      	lsls	r3, r6, #2
 80052c0:	58eb      	ldr	r3, [r5, r3]
 80052c2:	4798      	blx	r3
 80052c4:	3601      	adds	r6, #1
 80052c6:	e7f2      	b.n	80052ae <__libc_init_array+0x1e>
 80052c8:	08005c2c 	.word	0x08005c2c
 80052cc:	08005c2c 	.word	0x08005c2c
 80052d0:	08005c2c 	.word	0x08005c2c
 80052d4:	08005c30 	.word	0x08005c30

080052d8 <memcpy>:
 80052d8:	2300      	movs	r3, #0
 80052da:	b510      	push	{r4, lr}
 80052dc:	429a      	cmp	r2, r3
 80052de:	d100      	bne.n	80052e2 <memcpy+0xa>
 80052e0:	bd10      	pop	{r4, pc}
 80052e2:	5ccc      	ldrb	r4, [r1, r3]
 80052e4:	54c4      	strb	r4, [r0, r3]
 80052e6:	3301      	adds	r3, #1
 80052e8:	e7f8      	b.n	80052dc <memcpy+0x4>

080052ea <memset>:
 80052ea:	0003      	movs	r3, r0
 80052ec:	1812      	adds	r2, r2, r0
 80052ee:	4293      	cmp	r3, r2
 80052f0:	d100      	bne.n	80052f4 <memset+0xa>
 80052f2:	4770      	bx	lr
 80052f4:	7019      	strb	r1, [r3, #0]
 80052f6:	3301      	adds	r3, #1
 80052f8:	e7f9      	b.n	80052ee <memset+0x4>
	...

080052fc <siprintf>:
 80052fc:	b40e      	push	{r1, r2, r3}
 80052fe:	b500      	push	{lr}
 8005300:	490b      	ldr	r1, [pc, #44]	; (8005330 <siprintf+0x34>)
 8005302:	b09c      	sub	sp, #112	; 0x70
 8005304:	ab1d      	add	r3, sp, #116	; 0x74
 8005306:	9002      	str	r0, [sp, #8]
 8005308:	9006      	str	r0, [sp, #24]
 800530a:	9107      	str	r1, [sp, #28]
 800530c:	9104      	str	r1, [sp, #16]
 800530e:	4809      	ldr	r0, [pc, #36]	; (8005334 <siprintf+0x38>)
 8005310:	4909      	ldr	r1, [pc, #36]	; (8005338 <siprintf+0x3c>)
 8005312:	cb04      	ldmia	r3!, {r2}
 8005314:	9105      	str	r1, [sp, #20]
 8005316:	6800      	ldr	r0, [r0, #0]
 8005318:	a902      	add	r1, sp, #8
 800531a:	9301      	str	r3, [sp, #4]
 800531c:	f000 f870 	bl	8005400 <_svfiprintf_r>
 8005320:	2300      	movs	r3, #0
 8005322:	9a02      	ldr	r2, [sp, #8]
 8005324:	7013      	strb	r3, [r2, #0]
 8005326:	b01c      	add	sp, #112	; 0x70
 8005328:	bc08      	pop	{r3}
 800532a:	b003      	add	sp, #12
 800532c:	4718      	bx	r3
 800532e:	46c0      	nop			; (mov r8, r8)
 8005330:	7fffffff 	.word	0x7fffffff
 8005334:	200002b0 	.word	0x200002b0
 8005338:	ffff0208 	.word	0xffff0208

0800533c <__ssputs_r>:
 800533c:	b5f0      	push	{r4, r5, r6, r7, lr}
 800533e:	688e      	ldr	r6, [r1, #8]
 8005340:	b085      	sub	sp, #20
 8005342:	0007      	movs	r7, r0
 8005344:	000c      	movs	r4, r1
 8005346:	9203      	str	r2, [sp, #12]
 8005348:	9301      	str	r3, [sp, #4]
 800534a:	429e      	cmp	r6, r3
 800534c:	d83c      	bhi.n	80053c8 <__ssputs_r+0x8c>
 800534e:	2390      	movs	r3, #144	; 0x90
 8005350:	898a      	ldrh	r2, [r1, #12]
 8005352:	00db      	lsls	r3, r3, #3
 8005354:	421a      	tst	r2, r3
 8005356:	d034      	beq.n	80053c2 <__ssputs_r+0x86>
 8005358:	2503      	movs	r5, #3
 800535a:	6909      	ldr	r1, [r1, #16]
 800535c:	6823      	ldr	r3, [r4, #0]
 800535e:	1a5b      	subs	r3, r3, r1
 8005360:	9302      	str	r3, [sp, #8]
 8005362:	6963      	ldr	r3, [r4, #20]
 8005364:	9802      	ldr	r0, [sp, #8]
 8005366:	435d      	muls	r5, r3
 8005368:	0feb      	lsrs	r3, r5, #31
 800536a:	195d      	adds	r5, r3, r5
 800536c:	9b01      	ldr	r3, [sp, #4]
 800536e:	106d      	asrs	r5, r5, #1
 8005370:	3301      	adds	r3, #1
 8005372:	181b      	adds	r3, r3, r0
 8005374:	42ab      	cmp	r3, r5
 8005376:	d900      	bls.n	800537a <__ssputs_r+0x3e>
 8005378:	001d      	movs	r5, r3
 800537a:	0553      	lsls	r3, r2, #21
 800537c:	d532      	bpl.n	80053e4 <__ssputs_r+0xa8>
 800537e:	0029      	movs	r1, r5
 8005380:	0038      	movs	r0, r7
 8005382:	f000 fb19 	bl	80059b8 <_malloc_r>
 8005386:	1e06      	subs	r6, r0, #0
 8005388:	d109      	bne.n	800539e <__ssputs_r+0x62>
 800538a:	230c      	movs	r3, #12
 800538c:	603b      	str	r3, [r7, #0]
 800538e:	2340      	movs	r3, #64	; 0x40
 8005390:	2001      	movs	r0, #1
 8005392:	89a2      	ldrh	r2, [r4, #12]
 8005394:	4240      	negs	r0, r0
 8005396:	4313      	orrs	r3, r2
 8005398:	81a3      	strh	r3, [r4, #12]
 800539a:	b005      	add	sp, #20
 800539c:	bdf0      	pop	{r4, r5, r6, r7, pc}
 800539e:	9a02      	ldr	r2, [sp, #8]
 80053a0:	6921      	ldr	r1, [r4, #16]
 80053a2:	f7ff ff99 	bl	80052d8 <memcpy>
 80053a6:	89a3      	ldrh	r3, [r4, #12]
 80053a8:	4a14      	ldr	r2, [pc, #80]	; (80053fc <__ssputs_r+0xc0>)
 80053aa:	401a      	ands	r2, r3
 80053ac:	2380      	movs	r3, #128	; 0x80
 80053ae:	4313      	orrs	r3, r2
 80053b0:	81a3      	strh	r3, [r4, #12]
 80053b2:	9b02      	ldr	r3, [sp, #8]
 80053b4:	6126      	str	r6, [r4, #16]
 80053b6:	18f6      	adds	r6, r6, r3
 80053b8:	6026      	str	r6, [r4, #0]
 80053ba:	6165      	str	r5, [r4, #20]
 80053bc:	9e01      	ldr	r6, [sp, #4]
 80053be:	1aed      	subs	r5, r5, r3
 80053c0:	60a5      	str	r5, [r4, #8]
 80053c2:	9b01      	ldr	r3, [sp, #4]
 80053c4:	429e      	cmp	r6, r3
 80053c6:	d900      	bls.n	80053ca <__ssputs_r+0x8e>
 80053c8:	9e01      	ldr	r6, [sp, #4]
 80053ca:	0032      	movs	r2, r6
 80053cc:	9903      	ldr	r1, [sp, #12]
 80053ce:	6820      	ldr	r0, [r4, #0]
 80053d0:	f000 fa95 	bl	80058fe <memmove>
 80053d4:	68a3      	ldr	r3, [r4, #8]
 80053d6:	2000      	movs	r0, #0
 80053d8:	1b9b      	subs	r3, r3, r6
 80053da:	60a3      	str	r3, [r4, #8]
 80053dc:	6823      	ldr	r3, [r4, #0]
 80053de:	199e      	adds	r6, r3, r6
 80053e0:	6026      	str	r6, [r4, #0]
 80053e2:	e7da      	b.n	800539a <__ssputs_r+0x5e>
 80053e4:	002a      	movs	r2, r5
 80053e6:	0038      	movs	r0, r7
 80053e8:	f000 fb44 	bl	8005a74 <_realloc_r>
 80053ec:	1e06      	subs	r6, r0, #0
 80053ee:	d1e0      	bne.n	80053b2 <__ssputs_r+0x76>
 80053f0:	6921      	ldr	r1, [r4, #16]
 80053f2:	0038      	movs	r0, r7
 80053f4:	f000 fa96 	bl	8005924 <_free_r>
 80053f8:	e7c7      	b.n	800538a <__ssputs_r+0x4e>
 80053fa:	46c0      	nop			; (mov r8, r8)
 80053fc:	fffffb7f 	.word	0xfffffb7f

08005400 <_svfiprintf_r>:
 8005400:	b5f0      	push	{r4, r5, r6, r7, lr}
 8005402:	b0a1      	sub	sp, #132	; 0x84
 8005404:	9003      	str	r0, [sp, #12]
 8005406:	001d      	movs	r5, r3
 8005408:	898b      	ldrh	r3, [r1, #12]
 800540a:	000f      	movs	r7, r1
 800540c:	0016      	movs	r6, r2
 800540e:	061b      	lsls	r3, r3, #24
 8005410:	d511      	bpl.n	8005436 <_svfiprintf_r+0x36>
 8005412:	690b      	ldr	r3, [r1, #16]
 8005414:	2b00      	cmp	r3, #0
 8005416:	d10e      	bne.n	8005436 <_svfiprintf_r+0x36>
 8005418:	2140      	movs	r1, #64	; 0x40
 800541a:	f000 facd 	bl	80059b8 <_malloc_r>
 800541e:	6038      	str	r0, [r7, #0]
 8005420:	6138      	str	r0, [r7, #16]
 8005422:	2800      	cmp	r0, #0
 8005424:	d105      	bne.n	8005432 <_svfiprintf_r+0x32>
 8005426:	230c      	movs	r3, #12
 8005428:	9a03      	ldr	r2, [sp, #12]
 800542a:	3801      	subs	r0, #1
 800542c:	6013      	str	r3, [r2, #0]
 800542e:	b021      	add	sp, #132	; 0x84
 8005430:	bdf0      	pop	{r4, r5, r6, r7, pc}
 8005432:	2340      	movs	r3, #64	; 0x40
 8005434:	617b      	str	r3, [r7, #20]
 8005436:	2300      	movs	r3, #0
 8005438:	ac08      	add	r4, sp, #32
 800543a:	6163      	str	r3, [r4, #20]
 800543c:	3320      	adds	r3, #32
 800543e:	7663      	strb	r3, [r4, #25]
 8005440:	3310      	adds	r3, #16
 8005442:	76a3      	strb	r3, [r4, #26]
 8005444:	9507      	str	r5, [sp, #28]
 8005446:	0035      	movs	r5, r6
 8005448:	782b      	ldrb	r3, [r5, #0]
 800544a:	2b00      	cmp	r3, #0
 800544c:	d001      	beq.n	8005452 <_svfiprintf_r+0x52>
 800544e:	2b25      	cmp	r3, #37	; 0x25
 8005450:	d146      	bne.n	80054e0 <_svfiprintf_r+0xe0>
 8005452:	1bab      	subs	r3, r5, r6
 8005454:	9305      	str	r3, [sp, #20]
 8005456:	d00c      	beq.n	8005472 <_svfiprintf_r+0x72>
 8005458:	0032      	movs	r2, r6
 800545a:	0039      	movs	r1, r7
 800545c:	9803      	ldr	r0, [sp, #12]
 800545e:	f7ff ff6d 	bl	800533c <__ssputs_r>
 8005462:	1c43      	adds	r3, r0, #1
 8005464:	d100      	bne.n	8005468 <_svfiprintf_r+0x68>
 8005466:	e0ae      	b.n	80055c6 <_svfiprintf_r+0x1c6>
 8005468:	6962      	ldr	r2, [r4, #20]
 800546a:	9b05      	ldr	r3, [sp, #20]
 800546c:	4694      	mov	ip, r2
 800546e:	4463      	add	r3, ip
 8005470:	6163      	str	r3, [r4, #20]
 8005472:	782b      	ldrb	r3, [r5, #0]
 8005474:	2b00      	cmp	r3, #0
 8005476:	d100      	bne.n	800547a <_svfiprintf_r+0x7a>
 8005478:	e0a5      	b.n	80055c6 <_svfiprintf_r+0x1c6>
 800547a:	2201      	movs	r2, #1
 800547c:	2300      	movs	r3, #0
 800547e:	4252      	negs	r2, r2
 8005480:	6062      	str	r2, [r4, #4]
 8005482:	a904      	add	r1, sp, #16
 8005484:	3254      	adds	r2, #84	; 0x54
 8005486:	1852      	adds	r2, r2, r1
 8005488:	1c6e      	adds	r6, r5, #1
 800548a:	6023      	str	r3, [r4, #0]
 800548c:	60e3      	str	r3, [r4, #12]
 800548e:	60a3      	str	r3, [r4, #8]
 8005490:	7013      	strb	r3, [r2, #0]
 8005492:	65a3      	str	r3, [r4, #88]	; 0x58
 8005494:	7831      	ldrb	r1, [r6, #0]
 8005496:	2205      	movs	r2, #5
 8005498:	4853      	ldr	r0, [pc, #332]	; (80055e8 <_svfiprintf_r+0x1e8>)
 800549a:	f000 fa25 	bl	80058e8 <memchr>
 800549e:	1c75      	adds	r5, r6, #1
 80054a0:	2800      	cmp	r0, #0
 80054a2:	d11f      	bne.n	80054e4 <_svfiprintf_r+0xe4>
 80054a4:	6822      	ldr	r2, [r4, #0]
 80054a6:	06d3      	lsls	r3, r2, #27
 80054a8:	d504      	bpl.n	80054b4 <_svfiprintf_r+0xb4>
 80054aa:	2353      	movs	r3, #83	; 0x53
 80054ac:	a904      	add	r1, sp, #16
 80054ae:	185b      	adds	r3, r3, r1
 80054b0:	2120      	movs	r1, #32
 80054b2:	7019      	strb	r1, [r3, #0]
 80054b4:	0713      	lsls	r3, r2, #28
 80054b6:	d504      	bpl.n	80054c2 <_svfiprintf_r+0xc2>
 80054b8:	2353      	movs	r3, #83	; 0x53
 80054ba:	a904      	add	r1, sp, #16
 80054bc:	185b      	adds	r3, r3, r1
 80054be:	212b      	movs	r1, #43	; 0x2b
 80054c0:	7019      	strb	r1, [r3, #0]
 80054c2:	7833      	ldrb	r3, [r6, #0]
 80054c4:	2b2a      	cmp	r3, #42	; 0x2a
 80054c6:	d016      	beq.n	80054f6 <_svfiprintf_r+0xf6>
 80054c8:	0035      	movs	r5, r6
 80054ca:	2100      	movs	r1, #0
 80054cc:	200a      	movs	r0, #10
 80054ce:	68e3      	ldr	r3, [r4, #12]
 80054d0:	782a      	ldrb	r2, [r5, #0]
 80054d2:	1c6e      	adds	r6, r5, #1
 80054d4:	3a30      	subs	r2, #48	; 0x30
 80054d6:	2a09      	cmp	r2, #9
 80054d8:	d94e      	bls.n	8005578 <_svfiprintf_r+0x178>
 80054da:	2900      	cmp	r1, #0
 80054dc:	d018      	beq.n	8005510 <_svfiprintf_r+0x110>
 80054de:	e010      	b.n	8005502 <_svfiprintf_r+0x102>
 80054e0:	3501      	adds	r5, #1
 80054e2:	e7b1      	b.n	8005448 <_svfiprintf_r+0x48>
 80054e4:	4b40      	ldr	r3, [pc, #256]	; (80055e8 <_svfiprintf_r+0x1e8>)
 80054e6:	6822      	ldr	r2, [r4, #0]
 80054e8:	1ac0      	subs	r0, r0, r3
 80054ea:	2301      	movs	r3, #1
 80054ec:	4083      	lsls	r3, r0
 80054ee:	4313      	orrs	r3, r2
 80054f0:	6023      	str	r3, [r4, #0]
 80054f2:	002e      	movs	r6, r5
 80054f4:	e7ce      	b.n	8005494 <_svfiprintf_r+0x94>
 80054f6:	9b07      	ldr	r3, [sp, #28]
 80054f8:	1d19      	adds	r1, r3, #4
 80054fa:	681b      	ldr	r3, [r3, #0]
 80054fc:	9107      	str	r1, [sp, #28]
 80054fe:	2b00      	cmp	r3, #0
 8005500:	db01      	blt.n	8005506 <_svfiprintf_r+0x106>
 8005502:	930b      	str	r3, [sp, #44]	; 0x2c
 8005504:	e004      	b.n	8005510 <_svfiprintf_r+0x110>
 8005506:	425b      	negs	r3, r3
 8005508:	60e3      	str	r3, [r4, #12]
 800550a:	2302      	movs	r3, #2
 800550c:	4313      	orrs	r3, r2
 800550e:	6023      	str	r3, [r4, #0]
 8005510:	782b      	ldrb	r3, [r5, #0]
 8005512:	2b2e      	cmp	r3, #46	; 0x2e
 8005514:	d10a      	bne.n	800552c <_svfiprintf_r+0x12c>
 8005516:	786b      	ldrb	r3, [r5, #1]
 8005518:	2b2a      	cmp	r3, #42	; 0x2a
 800551a:	d135      	bne.n	8005588 <_svfiprintf_r+0x188>
 800551c:	9b07      	ldr	r3, [sp, #28]
 800551e:	3502      	adds	r5, #2
 8005520:	1d1a      	adds	r2, r3, #4
 8005522:	681b      	ldr	r3, [r3, #0]
 8005524:	9207      	str	r2, [sp, #28]
 8005526:	2b00      	cmp	r3, #0
 8005528:	db2b      	blt.n	8005582 <_svfiprintf_r+0x182>
 800552a:	9309      	str	r3, [sp, #36]	; 0x24
 800552c:	4e2f      	ldr	r6, [pc, #188]	; (80055ec <_svfiprintf_r+0x1ec>)
 800552e:	7829      	ldrb	r1, [r5, #0]
 8005530:	2203      	movs	r2, #3
 8005532:	0030      	movs	r0, r6
 8005534:	f000 f9d8 	bl	80058e8 <memchr>
 8005538:	2800      	cmp	r0, #0
 800553a:	d006      	beq.n	800554a <_svfiprintf_r+0x14a>
 800553c:	2340      	movs	r3, #64	; 0x40
 800553e:	1b80      	subs	r0, r0, r6
 8005540:	4083      	lsls	r3, r0
 8005542:	6822      	ldr	r2, [r4, #0]
 8005544:	3501      	adds	r5, #1
 8005546:	4313      	orrs	r3, r2
 8005548:	6023      	str	r3, [r4, #0]
 800554a:	7829      	ldrb	r1, [r5, #0]
 800554c:	2206      	movs	r2, #6
 800554e:	4828      	ldr	r0, [pc, #160]	; (80055f0 <_svfiprintf_r+0x1f0>)
 8005550:	1c6e      	adds	r6, r5, #1
 8005552:	7621      	strb	r1, [r4, #24]
 8005554:	f000 f9c8 	bl	80058e8 <memchr>
 8005558:	2800      	cmp	r0, #0
 800555a:	d03c      	beq.n	80055d6 <_svfiprintf_r+0x1d6>
 800555c:	4b25      	ldr	r3, [pc, #148]	; (80055f4 <_svfiprintf_r+0x1f4>)
 800555e:	2b00      	cmp	r3, #0
 8005560:	d125      	bne.n	80055ae <_svfiprintf_r+0x1ae>
 8005562:	2207      	movs	r2, #7
 8005564:	9b07      	ldr	r3, [sp, #28]
 8005566:	3307      	adds	r3, #7
 8005568:	4393      	bics	r3, r2
 800556a:	3308      	adds	r3, #8
 800556c:	9307      	str	r3, [sp, #28]
 800556e:	6963      	ldr	r3, [r4, #20]
 8005570:	9a04      	ldr	r2, [sp, #16]
 8005572:	189b      	adds	r3, r3, r2
 8005574:	6163      	str	r3, [r4, #20]
 8005576:	e766      	b.n	8005446 <_svfiprintf_r+0x46>
 8005578:	4343      	muls	r3, r0
 800557a:	2101      	movs	r1, #1
 800557c:	189b      	adds	r3, r3, r2
 800557e:	0035      	movs	r5, r6
 8005580:	e7a6      	b.n	80054d0 <_svfiprintf_r+0xd0>
 8005582:	2301      	movs	r3, #1
 8005584:	425b      	negs	r3, r3
 8005586:	e7d0      	b.n	800552a <_svfiprintf_r+0x12a>
 8005588:	2300      	movs	r3, #0
 800558a:	200a      	movs	r0, #10
 800558c:	001a      	movs	r2, r3
 800558e:	3501      	adds	r5, #1
 8005590:	6063      	str	r3, [r4, #4]
 8005592:	7829      	ldrb	r1, [r5, #0]
 8005594:	1c6e      	adds	r6, r5, #1
 8005596:	3930      	subs	r1, #48	; 0x30
 8005598:	2909      	cmp	r1, #9
 800559a:	d903      	bls.n	80055a4 <_svfiprintf_r+0x1a4>
 800559c:	2b00      	cmp	r3, #0
 800559e:	d0c5      	beq.n	800552c <_svfiprintf_r+0x12c>
 80055a0:	9209      	str	r2, [sp, #36]	; 0x24
 80055a2:	e7c3      	b.n	800552c <_svfiprintf_r+0x12c>
 80055a4:	4342      	muls	r2, r0
 80055a6:	2301      	movs	r3, #1
 80055a8:	1852      	adds	r2, r2, r1
 80055aa:	0035      	movs	r5, r6
 80055ac:	e7f1      	b.n	8005592 <_svfiprintf_r+0x192>
 80055ae:	ab07      	add	r3, sp, #28
 80055b0:	9300      	str	r3, [sp, #0]
 80055b2:	003a      	movs	r2, r7
 80055b4:	4b10      	ldr	r3, [pc, #64]	; (80055f8 <_svfiprintf_r+0x1f8>)
 80055b6:	0021      	movs	r1, r4
 80055b8:	9803      	ldr	r0, [sp, #12]
 80055ba:	e000      	b.n	80055be <_svfiprintf_r+0x1be>
 80055bc:	bf00      	nop
 80055be:	9004      	str	r0, [sp, #16]
 80055c0:	9b04      	ldr	r3, [sp, #16]
 80055c2:	3301      	adds	r3, #1
 80055c4:	d1d3      	bne.n	800556e <_svfiprintf_r+0x16e>
 80055c6:	89bb      	ldrh	r3, [r7, #12]
 80055c8:	980d      	ldr	r0, [sp, #52]	; 0x34
 80055ca:	065b      	lsls	r3, r3, #25
 80055cc:	d400      	bmi.n	80055d0 <_svfiprintf_r+0x1d0>
 80055ce:	e72e      	b.n	800542e <_svfiprintf_r+0x2e>
 80055d0:	2001      	movs	r0, #1
 80055d2:	4240      	negs	r0, r0
 80055d4:	e72b      	b.n	800542e <_svfiprintf_r+0x2e>
 80055d6:	ab07      	add	r3, sp, #28
 80055d8:	9300      	str	r3, [sp, #0]
 80055da:	003a      	movs	r2, r7
 80055dc:	4b06      	ldr	r3, [pc, #24]	; (80055f8 <_svfiprintf_r+0x1f8>)
 80055de:	0021      	movs	r1, r4
 80055e0:	9803      	ldr	r0, [sp, #12]
 80055e2:	f000 f879 	bl	80056d8 <_printf_i>
 80055e6:	e7ea      	b.n	80055be <_svfiprintf_r+0x1be>
 80055e8:	08005bf8 	.word	0x08005bf8
 80055ec:	08005bfe 	.word	0x08005bfe
 80055f0:	08005c02 	.word	0x08005c02
 80055f4:	00000000 	.word	0x00000000
 80055f8:	0800533d 	.word	0x0800533d

080055fc <_printf_common>:
 80055fc:	b5f7      	push	{r0, r1, r2, r4, r5, r6, r7, lr}
 80055fe:	0015      	movs	r5, r2
 8005600:	9301      	str	r3, [sp, #4]
 8005602:	688a      	ldr	r2, [r1, #8]
 8005604:	690b      	ldr	r3, [r1, #16]
 8005606:	9000      	str	r0, [sp, #0]
 8005608:	000c      	movs	r4, r1
 800560a:	4293      	cmp	r3, r2
 800560c:	da00      	bge.n	8005610 <_printf_common+0x14>
 800560e:	0013      	movs	r3, r2
 8005610:	0022      	movs	r2, r4
 8005612:	602b      	str	r3, [r5, #0]
 8005614:	3243      	adds	r2, #67	; 0x43
 8005616:	7812      	ldrb	r2, [r2, #0]
 8005618:	2a00      	cmp	r2, #0
 800561a:	d001      	beq.n	8005620 <_printf_common+0x24>
 800561c:	3301      	adds	r3, #1
 800561e:	602b      	str	r3, [r5, #0]
 8005620:	6823      	ldr	r3, [r4, #0]
 8005622:	069b      	lsls	r3, r3, #26
 8005624:	d502      	bpl.n	800562c <_printf_common+0x30>
 8005626:	682b      	ldr	r3, [r5, #0]
 8005628:	3302      	adds	r3, #2
 800562a:	602b      	str	r3, [r5, #0]
 800562c:	2706      	movs	r7, #6
 800562e:	6823      	ldr	r3, [r4, #0]
 8005630:	401f      	ands	r7, r3
 8005632:	d027      	beq.n	8005684 <_printf_common+0x88>
 8005634:	0023      	movs	r3, r4
 8005636:	3343      	adds	r3, #67	; 0x43
 8005638:	781b      	ldrb	r3, [r3, #0]
 800563a:	1e5a      	subs	r2, r3, #1
 800563c:	4193      	sbcs	r3, r2
 800563e:	6822      	ldr	r2, [r4, #0]
 8005640:	0692      	lsls	r2, r2, #26
 8005642:	d430      	bmi.n	80056a6 <_printf_common+0xaa>
 8005644:	0022      	movs	r2, r4
 8005646:	9901      	ldr	r1, [sp, #4]
 8005648:	3243      	adds	r2, #67	; 0x43
 800564a:	9800      	ldr	r0, [sp, #0]
 800564c:	9e08      	ldr	r6, [sp, #32]
 800564e:	47b0      	blx	r6
 8005650:	1c43      	adds	r3, r0, #1
 8005652:	d025      	beq.n	80056a0 <_printf_common+0xa4>
 8005654:	2306      	movs	r3, #6
 8005656:	6820      	ldr	r0, [r4, #0]
 8005658:	682a      	ldr	r2, [r5, #0]
 800565a:	68e1      	ldr	r1, [r4, #12]
 800565c:	4003      	ands	r3, r0
 800565e:	2500      	movs	r5, #0
 8005660:	2b04      	cmp	r3, #4
 8005662:	d103      	bne.n	800566c <_printf_common+0x70>
 8005664:	1a8d      	subs	r5, r1, r2
 8005666:	43eb      	mvns	r3, r5
 8005668:	17db      	asrs	r3, r3, #31
 800566a:	401d      	ands	r5, r3
 800566c:	68a3      	ldr	r3, [r4, #8]
 800566e:	6922      	ldr	r2, [r4, #16]
 8005670:	4293      	cmp	r3, r2
 8005672:	dd01      	ble.n	8005678 <_printf_common+0x7c>
 8005674:	1a9b      	subs	r3, r3, r2
 8005676:	18ed      	adds	r5, r5, r3
 8005678:	2700      	movs	r7, #0
 800567a:	42bd      	cmp	r5, r7
 800567c:	d120      	bne.n	80056c0 <_printf_common+0xc4>
 800567e:	2000      	movs	r0, #0
 8005680:	e010      	b.n	80056a4 <_printf_common+0xa8>
 8005682:	3701      	adds	r7, #1
 8005684:	68e3      	ldr	r3, [r4, #12]
 8005686:	682a      	ldr	r2, [r5, #0]
 8005688:	1a9b      	subs	r3, r3, r2
 800568a:	42bb      	cmp	r3, r7
 800568c:	ddd2      	ble.n	8005634 <_printf_common+0x38>
 800568e:	0022      	movs	r2, r4
 8005690:	2301      	movs	r3, #1
 8005692:	3219      	adds	r2, #25
 8005694:	9901      	ldr	r1, [sp, #4]
 8005696:	9800      	ldr	r0, [sp, #0]
 8005698:	9e08      	ldr	r6, [sp, #32]
 800569a:	47b0      	blx	r6
 800569c:	1c43      	adds	r3, r0, #1
 800569e:	d1f0      	bne.n	8005682 <_printf_common+0x86>
 80056a0:	2001      	movs	r0, #1
 80056a2:	4240      	negs	r0, r0
 80056a4:	bdfe      	pop	{r1, r2, r3, r4, r5, r6, r7, pc}
 80056a6:	2030      	movs	r0, #48	; 0x30
 80056a8:	18e1      	adds	r1, r4, r3
 80056aa:	3143      	adds	r1, #67	; 0x43
 80056ac:	7008      	strb	r0, [r1, #0]
 80056ae:	0021      	movs	r1, r4
 80056b0:	1c5a      	adds	r2, r3, #1
 80056b2:	3145      	adds	r1, #69	; 0x45
 80056b4:	7809      	ldrb	r1, [r1, #0]
 80056b6:	18a2      	adds	r2, r4, r2
 80056b8:	3243      	adds	r2, #67	; 0x43
 80056ba:	3302      	adds	r3, #2
 80056bc:	7011      	strb	r1, [r2, #0]
 80056be:	e7c1      	b.n	8005644 <_printf_common+0x48>
 80056c0:	0022      	movs	r2, r4
 80056c2:	2301      	movs	r3, #1
 80056c4:	321a      	adds	r2, #26
 80056c6:	9901      	ldr	r1, [sp, #4]
 80056c8:	9800      	ldr	r0, [sp, #0]
 80056ca:	9e08      	ldr	r6, [sp, #32]
 80056cc:	47b0      	blx	r6
 80056ce:	1c43      	adds	r3, r0, #1
 80056d0:	d0e6      	beq.n	80056a0 <_printf_common+0xa4>
 80056d2:	3701      	adds	r7, #1
 80056d4:	e7d1      	b.n	800567a <_printf_common+0x7e>
	...

080056d8 <_printf_i>:
 80056d8:	b5f0      	push	{r4, r5, r6, r7, lr}
 80056da:	b089      	sub	sp, #36	; 0x24
 80056dc:	9204      	str	r2, [sp, #16]
 80056de:	000a      	movs	r2, r1
 80056e0:	3243      	adds	r2, #67	; 0x43
 80056e2:	9305      	str	r3, [sp, #20]
 80056e4:	9003      	str	r0, [sp, #12]
 80056e6:	9202      	str	r2, [sp, #8]
 80056e8:	7e0a      	ldrb	r2, [r1, #24]
 80056ea:	000c      	movs	r4, r1
 80056ec:	9b0e      	ldr	r3, [sp, #56]	; 0x38
 80056ee:	2a6e      	cmp	r2, #110	; 0x6e
 80056f0:	d100      	bne.n	80056f4 <_printf_i+0x1c>
 80056f2:	e086      	b.n	8005802 <_printf_i+0x12a>
 80056f4:	d81f      	bhi.n	8005736 <_printf_i+0x5e>
 80056f6:	2a63      	cmp	r2, #99	; 0x63
 80056f8:	d033      	beq.n	8005762 <_printf_i+0x8a>
 80056fa:	d808      	bhi.n	800570e <_printf_i+0x36>
 80056fc:	2a00      	cmp	r2, #0
 80056fe:	d100      	bne.n	8005702 <_printf_i+0x2a>
 8005700:	e08c      	b.n	800581c <_printf_i+0x144>
 8005702:	2a58      	cmp	r2, #88	; 0x58
 8005704:	d04d      	beq.n	80057a2 <_printf_i+0xca>
 8005706:	0025      	movs	r5, r4
 8005708:	3542      	adds	r5, #66	; 0x42
 800570a:	702a      	strb	r2, [r5, #0]
 800570c:	e030      	b.n	8005770 <_printf_i+0x98>
 800570e:	2a64      	cmp	r2, #100	; 0x64
 8005710:	d001      	beq.n	8005716 <_printf_i+0x3e>
 8005712:	2a69      	cmp	r2, #105	; 0x69
 8005714:	d1f7      	bne.n	8005706 <_printf_i+0x2e>
 8005716:	6819      	ldr	r1, [r3, #0]
 8005718:	6825      	ldr	r5, [r4, #0]
 800571a:	1d0a      	adds	r2, r1, #4
 800571c:	0628      	lsls	r0, r5, #24
 800571e:	d529      	bpl.n	8005774 <_printf_i+0x9c>
 8005720:	6808      	ldr	r0, [r1, #0]
 8005722:	601a      	str	r2, [r3, #0]
 8005724:	2800      	cmp	r0, #0
 8005726:	da03      	bge.n	8005730 <_printf_i+0x58>
 8005728:	232d      	movs	r3, #45	; 0x2d
 800572a:	9a02      	ldr	r2, [sp, #8]
 800572c:	4240      	negs	r0, r0
 800572e:	7013      	strb	r3, [r2, #0]
 8005730:	4e6b      	ldr	r6, [pc, #428]	; (80058e0 <_printf_i+0x208>)
 8005732:	270a      	movs	r7, #10
 8005734:	e04f      	b.n	80057d6 <_printf_i+0xfe>
 8005736:	2a73      	cmp	r2, #115	; 0x73
 8005738:	d074      	beq.n	8005824 <_printf_i+0x14c>
 800573a:	d808      	bhi.n	800574e <_printf_i+0x76>
 800573c:	2a6f      	cmp	r2, #111	; 0x6f
 800573e:	d01f      	beq.n	8005780 <_printf_i+0xa8>
 8005740:	2a70      	cmp	r2, #112	; 0x70
 8005742:	d1e0      	bne.n	8005706 <_printf_i+0x2e>
 8005744:	2220      	movs	r2, #32
 8005746:	6809      	ldr	r1, [r1, #0]
 8005748:	430a      	orrs	r2, r1
 800574a:	6022      	str	r2, [r4, #0]
 800574c:	e003      	b.n	8005756 <_printf_i+0x7e>
 800574e:	2a75      	cmp	r2, #117	; 0x75
 8005750:	d016      	beq.n	8005780 <_printf_i+0xa8>
 8005752:	2a78      	cmp	r2, #120	; 0x78
 8005754:	d1d7      	bne.n	8005706 <_printf_i+0x2e>
 8005756:	0022      	movs	r2, r4
 8005758:	2178      	movs	r1, #120	; 0x78
 800575a:	3245      	adds	r2, #69	; 0x45
 800575c:	7011      	strb	r1, [r2, #0]
 800575e:	4e61      	ldr	r6, [pc, #388]	; (80058e4 <_printf_i+0x20c>)
 8005760:	e022      	b.n	80057a8 <_printf_i+0xd0>
 8005762:	0025      	movs	r5, r4
 8005764:	681a      	ldr	r2, [r3, #0]
 8005766:	3542      	adds	r5, #66	; 0x42
 8005768:	1d11      	adds	r1, r2, #4
 800576a:	6019      	str	r1, [r3, #0]
 800576c:	6813      	ldr	r3, [r2, #0]
 800576e:	702b      	strb	r3, [r5, #0]
 8005770:	2301      	movs	r3, #1
 8005772:	e065      	b.n	8005840 <_printf_i+0x168>
 8005774:	6808      	ldr	r0, [r1, #0]
 8005776:	601a      	str	r2, [r3, #0]
 8005778:	0669      	lsls	r1, r5, #25
 800577a:	d5d3      	bpl.n	8005724 <_printf_i+0x4c>
 800577c:	b200      	sxth	r0, r0
 800577e:	e7d1      	b.n	8005724 <_printf_i+0x4c>
 8005780:	6819      	ldr	r1, [r3, #0]
 8005782:	6825      	ldr	r5, [r4, #0]
 8005784:	1d08      	adds	r0, r1, #4
 8005786:	6018      	str	r0, [r3, #0]
 8005788:	6808      	ldr	r0, [r1, #0]
 800578a:	062e      	lsls	r6, r5, #24
 800578c:	d505      	bpl.n	800579a <_printf_i+0xc2>
 800578e:	4e54      	ldr	r6, [pc, #336]	; (80058e0 <_printf_i+0x208>)
 8005790:	2708      	movs	r7, #8
 8005792:	2a6f      	cmp	r2, #111	; 0x6f
 8005794:	d01b      	beq.n	80057ce <_printf_i+0xf6>
 8005796:	270a      	movs	r7, #10
 8005798:	e019      	b.n	80057ce <_printf_i+0xf6>
 800579a:	066d      	lsls	r5, r5, #25
 800579c:	d5f7      	bpl.n	800578e <_printf_i+0xb6>
 800579e:	b280      	uxth	r0, r0
 80057a0:	e7f5      	b.n	800578e <_printf_i+0xb6>
 80057a2:	3145      	adds	r1, #69	; 0x45
 80057a4:	4e4e      	ldr	r6, [pc, #312]	; (80058e0 <_printf_i+0x208>)
 80057a6:	700a      	strb	r2, [r1, #0]
 80057a8:	6818      	ldr	r0, [r3, #0]
 80057aa:	6822      	ldr	r2, [r4, #0]
 80057ac:	1d01      	adds	r1, r0, #4
 80057ae:	6800      	ldr	r0, [r0, #0]
 80057b0:	6019      	str	r1, [r3, #0]
 80057b2:	0615      	lsls	r5, r2, #24
 80057b4:	d521      	bpl.n	80057fa <_printf_i+0x122>
 80057b6:	07d3      	lsls	r3, r2, #31
 80057b8:	d502      	bpl.n	80057c0 <_printf_i+0xe8>
 80057ba:	2320      	movs	r3, #32
 80057bc:	431a      	orrs	r2, r3
 80057be:	6022      	str	r2, [r4, #0]
 80057c0:	2710      	movs	r7, #16
 80057c2:	2800      	cmp	r0, #0
 80057c4:	d103      	bne.n	80057ce <_printf_i+0xf6>
 80057c6:	2320      	movs	r3, #32
 80057c8:	6822      	ldr	r2, [r4, #0]
 80057ca:	439a      	bics	r2, r3
 80057cc:	6022      	str	r2, [r4, #0]
 80057ce:	0023      	movs	r3, r4
 80057d0:	2200      	movs	r2, #0
 80057d2:	3343      	adds	r3, #67	; 0x43
 80057d4:	701a      	strb	r2, [r3, #0]
 80057d6:	6863      	ldr	r3, [r4, #4]
 80057d8:	60a3      	str	r3, [r4, #8]
 80057da:	2b00      	cmp	r3, #0
 80057dc:	db58      	blt.n	8005890 <_printf_i+0x1b8>
 80057de:	2204      	movs	r2, #4
 80057e0:	6821      	ldr	r1, [r4, #0]
 80057e2:	4391      	bics	r1, r2
 80057e4:	6021      	str	r1, [r4, #0]
 80057e6:	2800      	cmp	r0, #0
 80057e8:	d154      	bne.n	8005894 <_printf_i+0x1bc>
 80057ea:	9d02      	ldr	r5, [sp, #8]
 80057ec:	2b00      	cmp	r3, #0
 80057ee:	d05a      	beq.n	80058a6 <_printf_i+0x1ce>
 80057f0:	0025      	movs	r5, r4
 80057f2:	7833      	ldrb	r3, [r6, #0]
 80057f4:	3542      	adds	r5, #66	; 0x42
 80057f6:	702b      	strb	r3, [r5, #0]
 80057f8:	e055      	b.n	80058a6 <_printf_i+0x1ce>
 80057fa:	0655      	lsls	r5, r2, #25
 80057fc:	d5db      	bpl.n	80057b6 <_printf_i+0xde>
 80057fe:	b280      	uxth	r0, r0
 8005800:	e7d9      	b.n	80057b6 <_printf_i+0xde>
 8005802:	681a      	ldr	r2, [r3, #0]
 8005804:	680d      	ldr	r5, [r1, #0]
 8005806:	1d10      	adds	r0, r2, #4
 8005808:	6949      	ldr	r1, [r1, #20]
 800580a:	6018      	str	r0, [r3, #0]
 800580c:	6813      	ldr	r3, [r2, #0]
 800580e:	062e      	lsls	r6, r5, #24
 8005810:	d501      	bpl.n	8005816 <_printf_i+0x13e>
 8005812:	6019      	str	r1, [r3, #0]
 8005814:	e002      	b.n	800581c <_printf_i+0x144>
 8005816:	066d      	lsls	r5, r5, #25
 8005818:	d5fb      	bpl.n	8005812 <_printf_i+0x13a>
 800581a:	8019      	strh	r1, [r3, #0]
 800581c:	2300      	movs	r3, #0
 800581e:	9d02      	ldr	r5, [sp, #8]
 8005820:	6123      	str	r3, [r4, #16]
 8005822:	e04f      	b.n	80058c4 <_printf_i+0x1ec>
 8005824:	681a      	ldr	r2, [r3, #0]
 8005826:	1d11      	adds	r1, r2, #4
 8005828:	6019      	str	r1, [r3, #0]
 800582a:	6815      	ldr	r5, [r2, #0]
 800582c:	2100      	movs	r1, #0
 800582e:	6862      	ldr	r2, [r4, #4]
 8005830:	0028      	movs	r0, r5
 8005832:	f000 f859 	bl	80058e8 <memchr>
 8005836:	2800      	cmp	r0, #0
 8005838:	d001      	beq.n	800583e <_printf_i+0x166>
 800583a:	1b40      	subs	r0, r0, r5
 800583c:	6060      	str	r0, [r4, #4]
 800583e:	6863      	ldr	r3, [r4, #4]
 8005840:	6123      	str	r3, [r4, #16]
 8005842:	2300      	movs	r3, #0
 8005844:	9a02      	ldr	r2, [sp, #8]
 8005846:	7013      	strb	r3, [r2, #0]
 8005848:	e03c      	b.n	80058c4 <_printf_i+0x1ec>
 800584a:	6923      	ldr	r3, [r4, #16]
 800584c:	002a      	movs	r2, r5
 800584e:	9904      	ldr	r1, [sp, #16]
 8005850:	9803      	ldr	r0, [sp, #12]
 8005852:	9d05      	ldr	r5, [sp, #20]
 8005854:	47a8      	blx	r5
 8005856:	1c43      	adds	r3, r0, #1
 8005858:	d03e      	beq.n	80058d8 <_printf_i+0x200>
 800585a:	6823      	ldr	r3, [r4, #0]
 800585c:	079b      	lsls	r3, r3, #30
 800585e:	d415      	bmi.n	800588c <_printf_i+0x1b4>
 8005860:	9b07      	ldr	r3, [sp, #28]
 8005862:	68e0      	ldr	r0, [r4, #12]
 8005864:	4298      	cmp	r0, r3
 8005866:	da39      	bge.n	80058dc <_printf_i+0x204>
 8005868:	0018      	movs	r0, r3
 800586a:	e037      	b.n	80058dc <_printf_i+0x204>
 800586c:	0022      	movs	r2, r4
 800586e:	2301      	movs	r3, #1
 8005870:	3219      	adds	r2, #25
 8005872:	9904      	ldr	r1, [sp, #16]
 8005874:	9803      	ldr	r0, [sp, #12]
 8005876:	9e05      	ldr	r6, [sp, #20]
 8005878:	47b0      	blx	r6
 800587a:	1c43      	adds	r3, r0, #1
 800587c:	d02c      	beq.n	80058d8 <_printf_i+0x200>
 800587e:	3501      	adds	r5, #1
 8005880:	68e3      	ldr	r3, [r4, #12]
 8005882:	9a07      	ldr	r2, [sp, #28]
 8005884:	1a9b      	subs	r3, r3, r2
 8005886:	42ab      	cmp	r3, r5
 8005888:	dcf0      	bgt.n	800586c <_printf_i+0x194>
 800588a:	e7e9      	b.n	8005860 <_printf_i+0x188>
 800588c:	2500      	movs	r5, #0
 800588e:	e7f7      	b.n	8005880 <_printf_i+0x1a8>
 8005890:	2800      	cmp	r0, #0
 8005892:	d0ad      	beq.n	80057f0 <_printf_i+0x118>
 8005894:	9d02      	ldr	r5, [sp, #8]
 8005896:	0039      	movs	r1, r7
 8005898:	f7fa fcd8 	bl	800024c <__aeabi_uidivmod>
 800589c:	5c73      	ldrb	r3, [r6, r1]
 800589e:	3d01      	subs	r5, #1
 80058a0:	702b      	strb	r3, [r5, #0]
 80058a2:	2800      	cmp	r0, #0
 80058a4:	d1f7      	bne.n	8005896 <_printf_i+0x1be>
 80058a6:	2f08      	cmp	r7, #8
 80058a8:	d109      	bne.n	80058be <_printf_i+0x1e6>
 80058aa:	6823      	ldr	r3, [r4, #0]
 80058ac:	07db      	lsls	r3, r3, #31
 80058ae:	d506      	bpl.n	80058be <_printf_i+0x1e6>
 80058b0:	6863      	ldr	r3, [r4, #4]
 80058b2:	6922      	ldr	r2, [r4, #16]
 80058b4:	4293      	cmp	r3, r2
 80058b6:	dc02      	bgt.n	80058be <_printf_i+0x1e6>
 80058b8:	2330      	movs	r3, #48	; 0x30
 80058ba:	3d01      	subs	r5, #1
 80058bc:	702b      	strb	r3, [r5, #0]
 80058be:	9b02      	ldr	r3, [sp, #8]
 80058c0:	1b5b      	subs	r3, r3, r5
 80058c2:	6123      	str	r3, [r4, #16]
 80058c4:	9b05      	ldr	r3, [sp, #20]
 80058c6:	aa07      	add	r2, sp, #28
 80058c8:	9300      	str	r3, [sp, #0]
 80058ca:	0021      	movs	r1, r4
 80058cc:	9b04      	ldr	r3, [sp, #16]
 80058ce:	9803      	ldr	r0, [sp, #12]
 80058d0:	f7ff fe94 	bl	80055fc <_printf_common>
 80058d4:	1c43      	adds	r3, r0, #1
 80058d6:	d1b8      	bne.n	800584a <_printf_i+0x172>
 80058d8:	2001      	movs	r0, #1
 80058da:	4240      	negs	r0, r0
 80058dc:	b009      	add	sp, #36	; 0x24
 80058de:	bdf0      	pop	{r4, r5, r6, r7, pc}
 80058e0:	08005c09 	.word	0x08005c09
 80058e4:	08005c1a 	.word	0x08005c1a

080058e8 <memchr>:
 80058e8:	b2c9      	uxtb	r1, r1
 80058ea:	1882      	adds	r2, r0, r2
 80058ec:	4290      	cmp	r0, r2
 80058ee:	d101      	bne.n	80058f4 <memchr+0xc>
 80058f0:	2000      	movs	r0, #0
 80058f2:	4770      	bx	lr
 80058f4:	7803      	ldrb	r3, [r0, #0]
 80058f6:	428b      	cmp	r3, r1
 80058f8:	d0fb      	beq.n	80058f2 <memchr+0xa>
 80058fa:	3001      	adds	r0, #1
 80058fc:	e7f6      	b.n	80058ec <memchr+0x4>

080058fe <memmove>:
 80058fe:	b510      	push	{r4, lr}
 8005900:	4288      	cmp	r0, r1
 8005902:	d902      	bls.n	800590a <memmove+0xc>
 8005904:	188b      	adds	r3, r1, r2
 8005906:	4298      	cmp	r0, r3
 8005908:	d303      	bcc.n	8005912 <memmove+0x14>
 800590a:	2300      	movs	r3, #0
 800590c:	e007      	b.n	800591e <memmove+0x20>
 800590e:	5c8b      	ldrb	r3, [r1, r2]
 8005910:	5483      	strb	r3, [r0, r2]
 8005912:	3a01      	subs	r2, #1
 8005914:	d2fb      	bcs.n	800590e <memmove+0x10>
 8005916:	bd10      	pop	{r4, pc}
 8005918:	5ccc      	ldrb	r4, [r1, r3]
 800591a:	54c4      	strb	r4, [r0, r3]
 800591c:	3301      	adds	r3, #1
 800591e:	429a      	cmp	r2, r3
 8005920:	d1fa      	bne.n	8005918 <memmove+0x1a>
 8005922:	e7f8      	b.n	8005916 <memmove+0x18>

08005924 <_free_r>:
 8005924:	b570      	push	{r4, r5, r6, lr}
 8005926:	0005      	movs	r5, r0
 8005928:	2900      	cmp	r1, #0
 800592a:	d010      	beq.n	800594e <_free_r+0x2a>
 800592c:	1f0c      	subs	r4, r1, #4
 800592e:	6823      	ldr	r3, [r4, #0]
 8005930:	2b00      	cmp	r3, #0
 8005932:	da00      	bge.n	8005936 <_free_r+0x12>
 8005934:	18e4      	adds	r4, r4, r3
 8005936:	0028      	movs	r0, r5
 8005938:	f000 f8d4 	bl	8005ae4 <__malloc_lock>
 800593c:	4a1d      	ldr	r2, [pc, #116]	; (80059b4 <_free_r+0x90>)
 800593e:	6813      	ldr	r3, [r2, #0]
 8005940:	2b00      	cmp	r3, #0
 8005942:	d105      	bne.n	8005950 <_free_r+0x2c>
 8005944:	6063      	str	r3, [r4, #4]
 8005946:	6014      	str	r4, [r2, #0]
 8005948:	0028      	movs	r0, r5
 800594a:	f000 f8cc 	bl	8005ae6 <__malloc_unlock>
 800594e:	bd70      	pop	{r4, r5, r6, pc}
 8005950:	42a3      	cmp	r3, r4
 8005952:	d909      	bls.n	8005968 <_free_r+0x44>
 8005954:	6821      	ldr	r1, [r4, #0]
 8005956:	1860      	adds	r0, r4, r1
 8005958:	4283      	cmp	r3, r0
 800595a:	d1f3      	bne.n	8005944 <_free_r+0x20>
 800595c:	6818      	ldr	r0, [r3, #0]
 800595e:	685b      	ldr	r3, [r3, #4]
 8005960:	1841      	adds	r1, r0, r1
 8005962:	6021      	str	r1, [r4, #0]
 8005964:	e7ee      	b.n	8005944 <_free_r+0x20>
 8005966:	0013      	movs	r3, r2
 8005968:	685a      	ldr	r2, [r3, #4]
 800596a:	2a00      	cmp	r2, #0
 800596c:	d001      	beq.n	8005972 <_free_r+0x4e>
 800596e:	42a2      	cmp	r2, r4
 8005970:	d9f9      	bls.n	8005966 <_free_r+0x42>
 8005972:	6819      	ldr	r1, [r3, #0]
 8005974:	1858      	adds	r0, r3, r1
 8005976:	42a0      	cmp	r0, r4
 8005978:	d10b      	bne.n	8005992 <_free_r+0x6e>
 800597a:	6820      	ldr	r0, [r4, #0]
 800597c:	1809      	adds	r1, r1, r0
 800597e:	1858      	adds	r0, r3, r1
 8005980:	6019      	str	r1, [r3, #0]
 8005982:	4282      	cmp	r2, r0
 8005984:	d1e0      	bne.n	8005948 <_free_r+0x24>
 8005986:	6810      	ldr	r0, [r2, #0]
 8005988:	6852      	ldr	r2, [r2, #4]
 800598a:	1841      	adds	r1, r0, r1
 800598c:	6019      	str	r1, [r3, #0]
 800598e:	605a      	str	r2, [r3, #4]
 8005990:	e7da      	b.n	8005948 <_free_r+0x24>
 8005992:	42a0      	cmp	r0, r4
 8005994:	d902      	bls.n	800599c <_free_r+0x78>
 8005996:	230c      	movs	r3, #12
 8005998:	602b      	str	r3, [r5, #0]
 800599a:	e7d5      	b.n	8005948 <_free_r+0x24>
 800599c:	6821      	ldr	r1, [r4, #0]
 800599e:	1860      	adds	r0, r4, r1
 80059a0:	4282      	cmp	r2, r0
 80059a2:	d103      	bne.n	80059ac <_free_r+0x88>
 80059a4:	6810      	ldr	r0, [r2, #0]
 80059a6:	6852      	ldr	r2, [r2, #4]
 80059a8:	1841      	adds	r1, r0, r1
 80059aa:	6021      	str	r1, [r4, #0]
 80059ac:	6062      	str	r2, [r4, #4]
 80059ae:	605c      	str	r4, [r3, #4]
 80059b0:	e7ca      	b.n	8005948 <_free_r+0x24>
 80059b2:	46c0      	nop			; (mov r8, r8)
 80059b4:	2000055c 	.word	0x2000055c

080059b8 <_malloc_r>:
 80059b8:	2303      	movs	r3, #3
 80059ba:	b570      	push	{r4, r5, r6, lr}
 80059bc:	1ccd      	adds	r5, r1, #3
 80059be:	439d      	bics	r5, r3
 80059c0:	3508      	adds	r5, #8
 80059c2:	0006      	movs	r6, r0
 80059c4:	2d0c      	cmp	r5, #12
 80059c6:	d21e      	bcs.n	8005a06 <_malloc_r+0x4e>
 80059c8:	250c      	movs	r5, #12
 80059ca:	42a9      	cmp	r1, r5
 80059cc:	d81d      	bhi.n	8005a0a <_malloc_r+0x52>
 80059ce:	0030      	movs	r0, r6
 80059d0:	f000 f888 	bl	8005ae4 <__malloc_lock>
 80059d4:	4a25      	ldr	r2, [pc, #148]	; (8005a6c <_malloc_r+0xb4>)
 80059d6:	6814      	ldr	r4, [r2, #0]
 80059d8:	0021      	movs	r1, r4
 80059da:	2900      	cmp	r1, #0
 80059dc:	d119      	bne.n	8005a12 <_malloc_r+0x5a>
 80059de:	4c24      	ldr	r4, [pc, #144]	; (8005a70 <_malloc_r+0xb8>)
 80059e0:	6823      	ldr	r3, [r4, #0]
 80059e2:	2b00      	cmp	r3, #0
 80059e4:	d103      	bne.n	80059ee <_malloc_r+0x36>
 80059e6:	0030      	movs	r0, r6
 80059e8:	f000 f86a 	bl	8005ac0 <_sbrk_r>
 80059ec:	6020      	str	r0, [r4, #0]
 80059ee:	0029      	movs	r1, r5
 80059f0:	0030      	movs	r0, r6
 80059f2:	f000 f865 	bl	8005ac0 <_sbrk_r>
 80059f6:	1c43      	adds	r3, r0, #1
 80059f8:	d12b      	bne.n	8005a52 <_malloc_r+0x9a>
 80059fa:	230c      	movs	r3, #12
 80059fc:	0030      	movs	r0, r6
 80059fe:	6033      	str	r3, [r6, #0]
 8005a00:	f000 f871 	bl	8005ae6 <__malloc_unlock>
 8005a04:	e003      	b.n	8005a0e <_malloc_r+0x56>
 8005a06:	2d00      	cmp	r5, #0
 8005a08:	dadf      	bge.n	80059ca <_malloc_r+0x12>
 8005a0a:	230c      	movs	r3, #12
 8005a0c:	6033      	str	r3, [r6, #0]
 8005a0e:	2000      	movs	r0, #0
 8005a10:	bd70      	pop	{r4, r5, r6, pc}
 8005a12:	680b      	ldr	r3, [r1, #0]
 8005a14:	1b5b      	subs	r3, r3, r5
 8005a16:	d419      	bmi.n	8005a4c <_malloc_r+0x94>
 8005a18:	2b0b      	cmp	r3, #11
 8005a1a:	d903      	bls.n	8005a24 <_malloc_r+0x6c>
 8005a1c:	600b      	str	r3, [r1, #0]
 8005a1e:	18cc      	adds	r4, r1, r3
 8005a20:	6025      	str	r5, [r4, #0]
 8005a22:	e003      	b.n	8005a2c <_malloc_r+0x74>
 8005a24:	684b      	ldr	r3, [r1, #4]
 8005a26:	428c      	cmp	r4, r1
 8005a28:	d10d      	bne.n	8005a46 <_malloc_r+0x8e>
 8005a2a:	6013      	str	r3, [r2, #0]
 8005a2c:	0030      	movs	r0, r6
 8005a2e:	f000 f85a 	bl	8005ae6 <__malloc_unlock>
 8005a32:	0020      	movs	r0, r4
 8005a34:	2207      	movs	r2, #7
 8005a36:	300b      	adds	r0, #11
 8005a38:	1d23      	adds	r3, r4, #4
 8005a3a:	4390      	bics	r0, r2
 8005a3c:	1ac3      	subs	r3, r0, r3
 8005a3e:	d0e7      	beq.n	8005a10 <_malloc_r+0x58>
 8005a40:	425a      	negs	r2, r3
 8005a42:	50e2      	str	r2, [r4, r3]
 8005a44:	e7e4      	b.n	8005a10 <_malloc_r+0x58>
 8005a46:	6063      	str	r3, [r4, #4]
 8005a48:	000c      	movs	r4, r1
 8005a4a:	e7ef      	b.n	8005a2c <_malloc_r+0x74>
 8005a4c:	000c      	movs	r4, r1
 8005a4e:	6849      	ldr	r1, [r1, #4]
 8005a50:	e7c3      	b.n	80059da <_malloc_r+0x22>
 8005a52:	2303      	movs	r3, #3
 8005a54:	1cc4      	adds	r4, r0, #3
 8005a56:	439c      	bics	r4, r3
 8005a58:	42a0      	cmp	r0, r4
 8005a5a:	d0e1      	beq.n	8005a20 <_malloc_r+0x68>
 8005a5c:	1a21      	subs	r1, r4, r0
 8005a5e:	0030      	movs	r0, r6
 8005a60:	f000 f82e 	bl	8005ac0 <_sbrk_r>
 8005a64:	1c43      	adds	r3, r0, #1
 8005a66:	d1db      	bne.n	8005a20 <_malloc_r+0x68>
 8005a68:	e7c7      	b.n	80059fa <_malloc_r+0x42>
 8005a6a:	46c0      	nop			; (mov r8, r8)
 8005a6c:	2000055c 	.word	0x2000055c
 8005a70:	20000560 	.word	0x20000560

08005a74 <_realloc_r>:
 8005a74:	b5f8      	push	{r3, r4, r5, r6, r7, lr}
 8005a76:	0007      	movs	r7, r0
 8005a78:	000d      	movs	r5, r1
 8005a7a:	0016      	movs	r6, r2
 8005a7c:	2900      	cmp	r1, #0
 8005a7e:	d105      	bne.n	8005a8c <_realloc_r+0x18>
 8005a80:	0011      	movs	r1, r2
 8005a82:	f7ff ff99 	bl	80059b8 <_malloc_r>
 8005a86:	0004      	movs	r4, r0
 8005a88:	0020      	movs	r0, r4
 8005a8a:	bdf8      	pop	{r3, r4, r5, r6, r7, pc}
 8005a8c:	2a00      	cmp	r2, #0
 8005a8e:	d103      	bne.n	8005a98 <_realloc_r+0x24>
 8005a90:	f7ff ff48 	bl	8005924 <_free_r>
 8005a94:	0034      	movs	r4, r6
 8005a96:	e7f7      	b.n	8005a88 <_realloc_r+0x14>
 8005a98:	f000 f826 	bl	8005ae8 <_malloc_usable_size_r>
 8005a9c:	002c      	movs	r4, r5
 8005a9e:	42b0      	cmp	r0, r6
 8005aa0:	d2f2      	bcs.n	8005a88 <_realloc_r+0x14>
 8005aa2:	0031      	movs	r1, r6
 8005aa4:	0038      	movs	r0, r7
 8005aa6:	f7ff ff87 	bl	80059b8 <_malloc_r>
 8005aaa:	1e04      	subs	r4, r0, #0
 8005aac:	d0ec      	beq.n	8005a88 <_realloc_r+0x14>
 8005aae:	0029      	movs	r1, r5
 8005ab0:	0032      	movs	r2, r6
 8005ab2:	f7ff fc11 	bl	80052d8 <memcpy>
 8005ab6:	0029      	movs	r1, r5
 8005ab8:	0038      	movs	r0, r7
 8005aba:	f7ff ff33 	bl	8005924 <_free_r>
 8005abe:	e7e3      	b.n	8005a88 <_realloc_r+0x14>

08005ac0 <_sbrk_r>:
 8005ac0:	2300      	movs	r3, #0
 8005ac2:	b570      	push	{r4, r5, r6, lr}
 8005ac4:	4c06      	ldr	r4, [pc, #24]	; (8005ae0 <_sbrk_r+0x20>)
 8005ac6:	0005      	movs	r5, r0
 8005ac8:	0008      	movs	r0, r1
 8005aca:	6023      	str	r3, [r4, #0]
 8005acc:	f7fc fa34 	bl	8001f38 <_sbrk>
 8005ad0:	1c43      	adds	r3, r0, #1
 8005ad2:	d103      	bne.n	8005adc <_sbrk_r+0x1c>
 8005ad4:	6823      	ldr	r3, [r4, #0]
 8005ad6:	2b00      	cmp	r3, #0
 8005ad8:	d000      	beq.n	8005adc <_sbrk_r+0x1c>
 8005ada:	602b      	str	r3, [r5, #0]
 8005adc:	bd70      	pop	{r4, r5, r6, pc}
 8005ade:	46c0      	nop			; (mov r8, r8)
 8005ae0:	20000f60 	.word	0x20000f60

08005ae4 <__malloc_lock>:
 8005ae4:	4770      	bx	lr

08005ae6 <__malloc_unlock>:
 8005ae6:	4770      	bx	lr

08005ae8 <_malloc_usable_size_r>:
 8005ae8:	1f0b      	subs	r3, r1, #4
 8005aea:	681b      	ldr	r3, [r3, #0]
 8005aec:	1f18      	subs	r0, r3, #4
 8005aee:	2b00      	cmp	r3, #0
 8005af0:	da01      	bge.n	8005af6 <_malloc_usable_size_r+0xe>
 8005af2:	580b      	ldr	r3, [r1, r0]
 8005af4:	18c0      	adds	r0, r0, r3
 8005af6:	4770      	bx	lr

08005af8 <_init>:
 8005af8:	b5f8      	push	{r3, r4, r5, r6, r7, lr}
 8005afa:	46c0      	nop			; (mov r8, r8)
 8005afc:	bcf8      	pop	{r3, r4, r5, r6, r7}
 8005afe:	bc08      	pop	{r3}
 8005b00:	469e      	mov	lr, r3
 8005b02:	4770      	bx	lr

08005b04 <_fini>:
 8005b04:	b5f8      	push	{r3, r4, r5, r6, r7, lr}
 8005b06:	46c0      	nop			; (mov r8, r8)
 8005b08:	bcf8      	pop	{r3, r4, r5, r6, r7}
 8005b0a:	bc08      	pop	{r3}
 8005b0c:	469e      	mov	lr, r3
 8005b0e:	4770      	bx	lr
